

Microchip MPLAB XC8 Assembler V3.10 build 20250813170317 
                                                                                               Mon Nov 10 15:24:29 2025

Microchip MPLAB XC8 C Compiler v3.10 (Free license) build 20250813170317 Og1 
     1                           	processor	18F4685
     2                           	fnconf	rparam,??,?,0
     3                           	pagewidth 120
     4                           	opt	flic
     5                           	psect	idataBANK0,global,class=CODE,space=0,delta=1,noexec
     6                           	psect	smallconst,global,reloc=2,class=SMALLCONST,space=0,delta=1,noexec
     7                           	psect	cinit,global,reloc=2,class=CODE,space=0,delta=1
     8                           	psect	bssCOMRAM,global,class=COMRAM,space=1,delta=1,lowdata,noexec
     9                           	psect	bssBANK0,global,class=BANK0,space=1,delta=1,lowdata,noexec
    10                           	psect	dataBANK0,global,class=BANK0,space=1,delta=1,lowdata,noexec
    11                           	psect	bssBANK1,global,class=BANK1,space=1,delta=1,lowdata,noexec
    12                           	psect	cstackBANK0,global,class=BANK0,space=1,delta=1,lowdata,noexec
    13                           	psect	cstackCOMRAM,global,class=COMRAM,space=1,delta=1,lowdata,noexec
    14                           	psect	text0,global,reloc=2,class=CODE,space=0,delta=1
    15                           	psect	text1,global,reloc=2,class=CODE,space=0,delta=1,group=3
    16                           	psect	text2,global,reloc=2,class=CODE,space=0,delta=1,group=2
    17                           	psect	text3,global,reloc=2,class=CODE,space=0,delta=1
    18                           	psect	text4,global,reloc=2,class=CODE,space=0,delta=1,group=3
    19                           	psect	text5,global,reloc=2,class=CODE,space=0,delta=1,group=1
    20                           	psect	text6,global,reloc=2,class=CODE,space=0,delta=1,group=1
    21                           	psect	text7,global,reloc=2,class=CODE,space=0,delta=1,group=1
    22                           	psect	text8,global,reloc=2,class=CODE,space=0,delta=1,group=1
    23                           	psect	text9,global,reloc=2,class=CODE,space=0,delta=1,group=2
    24                           	psect	text10,global,reloc=2,class=CODE,space=0,delta=1,group=2
    25                           	psect	text11,global,reloc=2,class=CODE,space=0,delta=1,group=1
    26                           	psect	text12,global,reloc=2,class=CODE,space=0,delta=1,group=1
    27                           	psect	text13,global,reloc=2,class=CODE,space=0,delta=1,group=1
    28                           	psect	text14,global,reloc=2,class=CODE,space=0,delta=1,group=1
    29                           	psect	text15,global,reloc=2,class=CODE,space=0,delta=1,group=3
    30                           	psect	text16,global,reloc=2,class=CODE,space=0,delta=1,group=3
    31                           	psect	text17,global,reloc=2,class=CODE,space=0,delta=1,group=3
    32                           	psect	text18,global,reloc=2,class=CODE,space=0,delta=1,group=2
    33                           	psect	text19,global,reloc=2,class=CODE,space=0,delta=1,group=2
    34                           	psect	text20,global,reloc=2,class=CODE,space=0,delta=1,group=1
    35                           	psect	text21,global,reloc=2,class=CODE,space=0,delta=1,group=3
    36                           	psect	text22,global,reloc=2,class=CODE,space=0,delta=1,group=3
    37                           	psect	text23,global,reloc=2,class=CODE,space=0,delta=1,group=3
    38                           	psect	text24,global,reloc=2,class=CODE,space=0,delta=1,group=2
    39                           	psect	text25,global,reloc=2,class=CODE,space=0,delta=1,group=2
    40                           	psect	text26,global,reloc=2,class=CODE,space=0,delta=1,group=2
    41                           	psect	text27,global,reloc=2,class=CODE,space=0,delta=1,group=2
    42                           	psect	text28,global,reloc=2,class=CODE,space=0,delta=1,group=2
    43                           	psect	text29,global,reloc=2,class=CODE,space=0,delta=1,group=2
    44                           	psect	text30,global,reloc=2,class=CODE,space=0,delta=1,group=2
    45                           	psect	text31,global,reloc=2,class=CODE,space=0,delta=1
    46                           	psect	text32,global,reloc=2,class=CODE,space=0,delta=1
    47                           	psect	text33,global,reloc=2,class=CODE,space=0,delta=1
    48                           	psect	text34,global,reloc=2,class=CODE,space=0,delta=1
    49                           	psect	text35,global,reloc=2,class=CODE,space=0,delta=1
    50                           	psect	text36,global,reloc=2,class=CODE,space=0,delta=1
    51                           	psect	text37,global,reloc=2,class=CODE,space=0,delta=1
    52                           	psect	text38,global,reloc=2,class=CODE,space=0,delta=1
    53                           	psect	text39,global,reloc=2,class=CODE,space=0,delta=1
    54                           	psect	text40,global,reloc=2,class=CODE,space=0,delta=1
    55                           	psect	text41,global,reloc=2,class=CODE,space=0,delta=1
    56                           	psect	text42,global,reloc=2,class=CODE,space=0,delta=1
    57                           	psect	text43,global,reloc=2,class=CODE,space=0,delta=1
    58                           	psect	text44,global,reloc=2,class=CODE,space=0,delta=1
    59                           	psect	text45,global,reloc=2,class=CODE,space=0,delta=1
    60                           	psect	text46,global,reloc=2,class=CODE,space=0,delta=1
    61                           	psect	intsave_regs,global,class=BIGRAM,space=1,delta=1,noexec
    62                           	psect	rparam,global,class=COMRAM,space=1,delta=1,noexec
    63                           	psect	config,global,abs,ovrld,class=CONFIG,space=4,delta=1,noexec
    64   000000                     
    65                           ; Generated 17/01/2025 GMT
    66                           ; 
    67                           ; Copyright © 2025, Microchip Technology Inc. and its subsidiaries ("Microchip")
    68                           ; All rights reserved.
    69                           ; 
    70                           ; This software is developed by Microchip Technology Inc. and its subsidiaries ("Microch
      +                          ip").
    71                           ; 
    72                           ; Redistribution and use in source and binary forms, with or without modification, are
    73                           ; permitted provided that the following conditions are met:
    74                           ; 
    75                           ;     1. Redistributions of source code must retain the above copyright notice, this lis
      +                          t of
    76                           ;        conditions and the following disclaimer.
    77                           ; 
    78                           ;     2. Redistributions in binary form must reproduce the above copyright notice, this 
      +                          list
    79                           ;        of conditions and the following disclaimer in the documentation and/or other
    80                           ;        materials provided with the distribution. Publication is not required when
    81                           ;        this file is used in an embedded application.
    82                           ; 
    83                           ;     3. Microchip's name may not be used to endorse or promote products derived from th
      +                          is
    84                           ;        software without specific prior written permission.
    85                           ; 
    86                           ; THIS SOFTWARE IS PROVIDED BY MICROCHIP "AS IS" AND ANY EXPRESS OR IMPLIED WARRANTIES,
    87                           ; INCLUDING, BUT NOT LIMITED TO, THE IMPLIED WARRANTIES OF MERCHANTABILITY AND FITNESS F
      +                          OR
    88                           ; PURPOSE ARE DISCLAIMED.  IN NO EVENT SHALL MICROCHIP BE LIABLE FOR ANY DIRECT, INDIREC
      +                          T,
    89                           ; INCIDENTAL, SPECIAL, EXEMPLARY, OR CONSEQUENTIAL DAMAGES (INCLUDING BUT NOT LIMITED TO
    90                           ; PROCUREMENT OF SUBSTITUTE GOODS OR SERVICES; LOSS OF USE, DATA OR PROFITS; OR BUSINESS
    91                           ; INTERRUPTION) HOWSOEVER CAUSED AND ON ANY THEORY OF LIABILITY, WHETHER IN CONTRACT, ST
      +                          RICT
    92                           ; LIABILITY, OR TORT (INCLUDING NEGLIGENCE OR OTHERWISE) ARISING IN ANY WAY OUT OF THE U
      +                          SE OF
    93                           ; THIS SOFTWARE, EVEN IF ADVISED OF THE POSSIBILITY OF SUCH DAMAGE.
    94                           ; 
    95                           ; 
    96                           ; Code-generator required, PIC18F4685 Definitions
    97                           ; 
    98                           ; SFR Addresses
    99   000FE0                     bsr             equ	4064
   100   000FE9                     fsr0            equ	4073
   101   000FEA                     fsr0h           equ	4074
   102   000FE9                     fsr0l           equ	4073
   103   000FE1                     fsr1            equ	4065
   104   000FE2                     fsr1h           equ	4066
   105   000FE1                     fsr1l           equ	4065
   106   000FD9                     fsr2            equ	4057
   107   000FDA                     fsr2h           equ	4058
   108   000FD9                     fsr2l           equ	4057
   109   000FEF                     indf0           equ	4079
   110   000FE7                     indf1           equ	4071
   111   000FDF                     indf2           equ	4063
   112   000FF2                     intcon          equ	4082
   113   000000                     nvmcon          equ	0
   114   000FF9                     pcl             equ	4089
   115   000FFA                     pclath          equ	4090
   116   000FFB                     pclatu          equ	4091
   117   000FEB                     plusw0          equ	4075
   118   000FE3                     plusw1          equ	4067
   119   000FDB                     plusw2          equ	4059
   120   000FED                     postdec0        equ	4077
   121   000FE5                     postdec1        equ	4069
   122   000FDD                     postdec2        equ	4061
   123   000FEE                     postinc0        equ	4078
   124   000FE6                     postinc1        equ	4070
   125   000FDE                     postinc2        equ	4062
   126   000FEC                     preinc0         equ	4076
   127   000FE4                     preinc1         equ	4068
   128   000FDC                     preinc2         equ	4060
   129   000FF3                     prod            equ	4083
   130   000FF4                     prodh           equ	4084
   131   000FF3                     prodl           equ	4083
   132   000FD8                     status          equ	4056
   133   000FF5                     tablat          equ	4085
   134   000FF6                     tblptr          equ	4086
   135   000FF7                     tblptrh         equ	4087
   136   000FF6                     tblptrl         equ	4086
   137   000FF8                     tblptru         equ	4088
   138   000FFD                     tosl            equ	4093
   139   000FE8                     wreg            equ	4072
   140   000D60                     RXF6SIDH        equ	3424	;# 
   141   000D61                     RXF6SIDL        equ	3425	;# 
   142   000D62                     RXF6EIDH        equ	3426	;# 
   143   000D63                     RXF6EIDL        equ	3427	;# 
   144   000D64                     RXF7SIDH        equ	3428	;# 
   145   000D65                     RXF7SIDL        equ	3429	;# 
   146   000D66                     RXF7EIDH        equ	3430	;# 
   147   000D67                     RXF7EIDL        equ	3431	;# 
   148   000D68                     RXF8SIDH        equ	3432	;# 
   149   000D69                     RXF8SIDL        equ	3433	;# 
   150   000D6A                     RXF8EIDH        equ	3434	;# 
   151   000D6B                     RXF8EIDL        equ	3435	;# 
   152   000D70                     RXF9SIDH        equ	3440	;# 
   153   000D71                     RXF9SIDL        equ	3441	;# 
   154   000D72                     RXF9EIDH        equ	3442	;# 
   155   000D73                     RXF9EIDL        equ	3443	;# 
   156   000D74                     RXF10SIDH       equ	3444	;# 
   157   000D75                     RXF10SIDL       equ	3445	;# 
   158   000D76                     RXF10EIDH       equ	3446	;# 
   159   000D77                     RXF10EIDL       equ	3447	;# 
   160   000D78                     RXF11SIDH       equ	3448	;# 
   161   000D79                     RXF11SIDL       equ	3449	;# 
   162   000D7A                     RXF11EIDH       equ	3450	;# 
   163   000D7B                     RXF11EIDL       equ	3451	;# 
   164   000D80                     RXF12SIDH       equ	3456	;# 
   165   000D81                     RXF12SIDL       equ	3457	;# 
   166   000D82                     RXF12EIDH       equ	3458	;# 
   167   000D83                     RXF12EIDL       equ	3459	;# 
   168   000D84                     RXF13SIDH       equ	3460	;# 
   169   000D85                     RXF13SIDL       equ	3461	;# 
   170   000D86                     RXF13EIDH       equ	3462	;# 
   171   000D87                     RXF13EIDL       equ	3463	;# 
   172   000D88                     RXF14SIDH       equ	3464	;# 
   173   000D89                     RXF14SIDL       equ	3465	;# 
   174   000D8A                     RXF14EIDH       equ	3466	;# 
   175   000D8B                     RXF14EIDL       equ	3467	;# 
   176   000D90                     RXF15SIDH       equ	3472	;# 
   177   000D91                     RXF15SIDL       equ	3473	;# 
   178   000D92                     RXF15EIDH       equ	3474	;# 
   179   000D93                     RXF15EIDL       equ	3475	;# 
   180   000DD4                     RXFCON0         equ	3540	;# 
   181   000DD5                     RXFCON1         equ	3541	;# 
   182   000DD8                     SDFLC           equ	3544	;# 
   183   000DE0                     RXFBCON0        equ	3552	;# 
   184   000DE1                     RXFBCON1        equ	3553	;# 
   185   000DE2                     RXFBCON2        equ	3554	;# 
   186   000DE3                     RXFBCON3        equ	3555	;# 
   187   000DE4                     RXFBCON4        equ	3556	;# 
   188   000DE5                     RXFBCON5        equ	3557	;# 
   189   000DE6                     RXFBCON6        equ	3558	;# 
   190   000DE7                     RXFBCON7        equ	3559	;# 
   191   000DF0                     MSEL0           equ	3568	;# 
   192   000DF1                     MSEL1           equ	3569	;# 
   193   000DF2                     MSEL2           equ	3570	;# 
   194   000DF3                     MSEL3           equ	3571	;# 
   195   000DF8                     BSEL0           equ	3576	;# 
   196   000DFA                     BIE0            equ	3578	;# 
   197   000DFC                     TXBIE           equ	3580	;# 
   198   000E20                     B0CON           equ	3616	;# 
   199   000E21                     B0SIDH          equ	3617	;# 
   200   000E22                     B0SIDL          equ	3618	;# 
   201   000E23                     B0EIDH          equ	3619	;# 
   202   000E24                     B0EIDL          equ	3620	;# 
   203   000E25                     B0DLC           equ	3621	;# 
   204   000E26                     B0D0            equ	3622	;# 
   205   000E27                     B0D1            equ	3623	;# 
   206   000E28                     B0D2            equ	3624	;# 
   207   000E29                     B0D3            equ	3625	;# 
   208   000E2A                     B0D4            equ	3626	;# 
   209   000E2B                     B0D5            equ	3627	;# 
   210   000E2C                     B0D6            equ	3628	;# 
   211   000E2D                     B0D7            equ	3629	;# 
   212   000E2E                     CANSTAT_RO9     equ	3630	;# 
   213   000E2F                     CANCON_RO9      equ	3631	;# 
   214   000E30                     B1CON           equ	3632	;# 
   215   000E31                     B1SIDH          equ	3633	;# 
   216   000E32                     B1SIDL          equ	3634	;# 
   217   000E33                     B1EIDH          equ	3635	;# 
   218   000E34                     B1EIDL          equ	3636	;# 
   219   000E35                     B1DLC           equ	3637	;# 
   220   000E36                     B1D0            equ	3638	;# 
   221   000E37                     B1D1            equ	3639	;# 
   222   000E38                     B1D2            equ	3640	;# 
   223   000E39                     B1D3            equ	3641	;# 
   224   000E3A                     B1D4            equ	3642	;# 
   225   000E3B                     B1D5            equ	3643	;# 
   226   000E3C                     B1D6            equ	3644	;# 
   227   000E3D                     B1D7            equ	3645	;# 
   228   000E3E                     CANSTAT_RO8     equ	3646	;# 
   229   000E3F                     CANCON_RO8      equ	3647	;# 
   230   000E40                     B2CON           equ	3648	;# 
   231   000E41                     B2SIDH          equ	3649	;# 
   232   000E42                     B2SIDL          equ	3650	;# 
   233   000E43                     B2EIDH          equ	3651	;# 
   234   000E44                     B2EIDL          equ	3652	;# 
   235   000E45                     B2DLC           equ	3653	;# 
   236   000E46                     B2D0            equ	3654	;# 
   237   000E47                     B2D1            equ	3655	;# 
   238   000E48                     B2D2            equ	3656	;# 
   239   000E49                     B2D3            equ	3657	;# 
   240   000E4A                     B2D4            equ	3658	;# 
   241   000E4B                     B2D5            equ	3659	;# 
   242   000E4C                     B2D6            equ	3660	;# 
   243   000E4D                     B2D7            equ	3661	;# 
   244   000E4E                     CANSTAT_RO7     equ	3662	;# 
   245   000E4F                     CANCON_RO7      equ	3663	;# 
   246   000E50                     B3CON           equ	3664	;# 
   247   000E51                     B3SIDH          equ	3665	;# 
   248   000E52                     B3SIDL          equ	3666	;# 
   249   000E53                     B3EIDH          equ	3667	;# 
   250   000E54                     B3EIDL          equ	3668	;# 
   251   000E55                     B3DLC           equ	3669	;# 
   252   000E56                     B3D0            equ	3670	;# 
   253   000E57                     B3D1            equ	3671	;# 
   254   000E58                     B3D2            equ	3672	;# 
   255   000E59                     B3D3            equ	3673	;# 
   256   000E5A                     B3D4            equ	3674	;# 
   257   000E5B                     B3D5            equ	3675	;# 
   258   000E5C                     B3D6            equ	3676	;# 
   259   000E5D                     B3D7            equ	3677	;# 
   260   000E5E                     CANSTAT_RO6     equ	3678	;# 
   261   000E5F                     CANCON_RO6      equ	3679	;# 
   262   000E60                     B4CON           equ	3680	;# 
   263   000E61                     B4SIDH          equ	3681	;# 
   264   000E62                     B4SIDL          equ	3682	;# 
   265   000E63                     B4EIDH          equ	3683	;# 
   266   000E64                     B4EIDL          equ	3684	;# 
   267   000E65                     B4DLC           equ	3685	;# 
   268   000E66                     B4D0            equ	3686	;# 
   269   000E67                     B4D1            equ	3687	;# 
   270   000E68                     B4D2            equ	3688	;# 
   271   000E69                     B4D3            equ	3689	;# 
   272   000E6A                     B4D4            equ	3690	;# 
   273   000E6B                     B4D5            equ	3691	;# 
   274   000E6C                     B4D6            equ	3692	;# 
   275   000E6D                     B4D7            equ	3693	;# 
   276   000E6E                     CANSTAT_RO5     equ	3694	;# 
   277   000E6F                     CANCON_RO5      equ	3695	;# 
   278   000E70                     B5CON           equ	3696	;# 
   279   000E71                     B5SIDH          equ	3697	;# 
   280   000E72                     B5SIDL          equ	3698	;# 
   281   000E73                     B5EIDH          equ	3699	;# 
   282   000E74                     B5EIDL          equ	3700	;# 
   283   000E75                     B5DLC           equ	3701	;# 
   284   000E76                     B5D0            equ	3702	;# 
   285   000E77                     B5D1            equ	3703	;# 
   286   000E78                     B5D2            equ	3704	;# 
   287   000E79                     B5D3            equ	3705	;# 
   288   000E7A                     B5D4            equ	3706	;# 
   289   000E7B                     B5D5            equ	3707	;# 
   290   000E7C                     B5D6            equ	3708	;# 
   291   000E7D                     B5D7            equ	3709	;# 
   292   000E7E                     CANSTAT_RO4     equ	3710	;# 
   293   000E7F                     CANCON_RO4      equ	3711	;# 
   294   000F00                     RXF0SIDH        equ	3840	;# 
   295   000F01                     RXF0SIDL        equ	3841	;# 
   296   000F02                     RXF0EIDH        equ	3842	;# 
   297   000F03                     RXF0EIDL        equ	3843	;# 
   298   000F04                     RXF1SIDH        equ	3844	;# 
   299   000F05                     RXF1SIDL        equ	3845	;# 
   300   000F06                     RXF1EIDH        equ	3846	;# 
   301   000F07                     RXF1EIDL        equ	3847	;# 
   302   000F08                     RXF2SIDH        equ	3848	;# 
   303   000F09                     RXF2SIDL        equ	3849	;# 
   304   000F0A                     RXF2EIDH        equ	3850	;# 
   305   000F0B                     RXF2EIDL        equ	3851	;# 
   306   000F0C                     RXF3SIDH        equ	3852	;# 
   307   000F0D                     RXF3SIDL        equ	3853	;# 
   308   000F0E                     RXF3EIDH        equ	3854	;# 
   309   000F0F                     RXF3EIDL        equ	3855	;# 
   310   000F10                     RXF4SIDH        equ	3856	;# 
   311   000F11                     RXF4SIDL        equ	3857	;# 
   312   000F12                     RXF4EIDH        equ	3858	;# 
   313   000F13                     RXF4EIDL        equ	3859	;# 
   314   000F14                     RXF5SIDH        equ	3860	;# 
   315   000F15                     RXF5SIDL        equ	3861	;# 
   316   000F16                     RXF5EIDH        equ	3862	;# 
   317   000F17                     RXF5EIDL        equ	3863	;# 
   318   000F18                     RXM0SIDH        equ	3864	;# 
   319   000F19                     RXM0SIDL        equ	3865	;# 
   320   000F1A                     RXM0EIDH        equ	3866	;# 
   321   000F1B                     RXM0EIDL        equ	3867	;# 
   322   000F1C                     RXM1SIDH        equ	3868	;# 
   323   000F1D                     RXM1SIDL        equ	3869	;# 
   324   000F1E                     RXM1EIDH        equ	3870	;# 
   325   000F1F                     RXM1EIDL        equ	3871	;# 
   326   000F20                     TXB2CON         equ	3872	;# 
   327   000F21                     TXB2SIDH        equ	3873	;# 
   328   000F22                     TXB2SIDL        equ	3874	;# 
   329   000F23                     TXB2EIDH        equ	3875	;# 
   330   000F24                     TXB2EIDL        equ	3876	;# 
   331   000F25                     TXB2DLC         equ	3877	;# 
   332   000F26                     TXB2D0          equ	3878	;# 
   333   000F27                     TXB2D1          equ	3879	;# 
   334   000F28                     TXB2D2          equ	3880	;# 
   335   000F29                     TXB2D3          equ	3881	;# 
   336   000F2A                     TXB2D4          equ	3882	;# 
   337   000F2B                     TXB2D5          equ	3883	;# 
   338   000F2C                     TXB2D6          equ	3884	;# 
   339   000F2D                     TXB2D7          equ	3885	;# 
   340   000F2E                     CANSTAT_RO3     equ	3886	;# 
   341   000F2F                     CANCON_RO3      equ	3887	;# 
   342   000F30                     TXB1CON         equ	3888	;# 
   343   000F31                     TXB1SIDH        equ	3889	;# 
   344   000F32                     TXB1SIDL        equ	3890	;# 
   345   000F33                     TXB1EIDH        equ	3891	;# 
   346   000F34                     TXB1EIDL        equ	3892	;# 
   347   000F35                     TXB1DLC         equ	3893	;# 
   348   000F36                     TXB1D0          equ	3894	;# 
   349   000F37                     TXB1D1          equ	3895	;# 
   350   000F38                     TXB1D2          equ	3896	;# 
   351   000F39                     TXB1D3          equ	3897	;# 
   352   000F3A                     TXB1D4          equ	3898	;# 
   353   000F3B                     TXB1D5          equ	3899	;# 
   354   000F3C                     TXB1D6          equ	3900	;# 
   355   000F3D                     TXB1D7          equ	3901	;# 
   356   000F3E                     CANSTAT_RO2     equ	3902	;# 
   357   000F3F                     CANCON_RO2      equ	3903	;# 
   358   000F40                     TXB0CON         equ	3904	;# 
   359   000F41                     TXB0SIDH        equ	3905	;# 
   360   000F42                     TXB0SIDL        equ	3906	;# 
   361   000F43                     TXB0EIDH        equ	3907	;# 
   362   000F44                     TXB0EIDL        equ	3908	;# 
   363   000F45                     TXB0DLC         equ	3909	;# 
   364   000F46                     TXB0D0          equ	3910	;# 
   365   000F47                     TXB0D1          equ	3911	;# 
   366   000F48                     TXB0D2          equ	3912	;# 
   367   000F49                     TXB0D3          equ	3913	;# 
   368   000F4A                     TXB0D4          equ	3914	;# 
   369   000F4B                     TXB0D5          equ	3915	;# 
   370   000F4C                     TXB0D6          equ	3916	;# 
   371   000F4D                     TXB0D7          equ	3917	;# 
   372   000F4E                     CANSTAT_RO1     equ	3918	;# 
   373   000F4F                     CANCON_RO1      equ	3919	;# 
   374   000F50                     RXB1CON         equ	3920	;# 
   375   000F51                     RXB1SIDH        equ	3921	;# 
   376   000F52                     RXB1SIDL        equ	3922	;# 
   377   000F53                     RXB1EIDH        equ	3923	;# 
   378   000F54                     RXB1EIDL        equ	3924	;# 
   379   000F55                     RXB1DLC         equ	3925	;# 
   380   000F56                     RXB1D0          equ	3926	;# 
   381   000F57                     RXB1D1          equ	3927	;# 
   382   000F58                     RXB1D2          equ	3928	;# 
   383   000F59                     RXB1D3          equ	3929	;# 
   384   000F5A                     RXB1D4          equ	3930	;# 
   385   000F5B                     RXB1D5          equ	3931	;# 
   386   000F5C                     RXB1D6          equ	3932	;# 
   387   000F5D                     RXB1D7          equ	3933	;# 
   388   000F5E                     CANSTAT_RO0     equ	3934	;# 
   389   000F5F                     CANCON_RO0      equ	3935	;# 
   390   000F60                     RXB0CON         equ	3936	;# 
   391   000F61                     RXB0SIDH        equ	3937	;# 
   392   000F62                     RXB0SIDL        equ	3938	;# 
   393   000F63                     RXB0EIDH        equ	3939	;# 
   394   000F64                     RXB0EIDL        equ	3940	;# 
   395   000F65                     RXB0DLC         equ	3941	;# 
   396   000F66                     RXB0D0          equ	3942	;# 
   397   000F67                     RXB0D1          equ	3943	;# 
   398   000F68                     RXB0D2          equ	3944	;# 
   399   000F69                     RXB0D3          equ	3945	;# 
   400   000F6A                     RXB0D4          equ	3946	;# 
   401   000F6B                     RXB0D5          equ	3947	;# 
   402   000F6C                     RXB0D6          equ	3948	;# 
   403   000F6D                     RXB0D7          equ	3949	;# 
   404   000F6E                     CANSTAT         equ	3950	;# 
   405   000F6F                     CANCON          equ	3951	;# 
   406   000F70                     BRGCON1         equ	3952	;# 
   407   000F71                     BRGCON2         equ	3953	;# 
   408   000F72                     BRGCON3         equ	3954	;# 
   409   000F73                     CIOCON          equ	3955	;# 
   410   000F74                     COMSTAT         equ	3956	;# 
   411   000F75                     RXERRCNT        equ	3957	;# 
   412   000F76                     TXERRCNT        equ	3958	;# 
   413   000F77                     ECANCON         equ	3959	;# 
   414   000F80                     PORTA           equ	3968	;# 
   415   000F81                     PORTB           equ	3969	;# 
   416   000F82                     PORTC           equ	3970	;# 
   417   000F83                     PORTD           equ	3971	;# 
   418   000F84                     PORTE           equ	3972	;# 
   419   000F89                     LATA            equ	3977	;# 
   420   000F8A                     LATB            equ	3978	;# 
   421   000F8B                     LATC            equ	3979	;# 
   422   000F8C                     LATD            equ	3980	;# 
   423   000F8D                     LATE            equ	3981	;# 
   424   000F92                     TRISA           equ	3986	;# 
   425   000F92                     DDRA            equ	3986	;# 
   426   000F93                     TRISB           equ	3987	;# 
   427   000F93                     DDRB            equ	3987	;# 
   428   000F94                     TRISC           equ	3988	;# 
   429   000F94                     DDRC            equ	3988	;# 
   430   000F95                     TRISD           equ	3989	;# 
   431   000F95                     DDRD            equ	3989	;# 
   432   000F96                     TRISE           equ	3990	;# 
   433   000F96                     DDRE            equ	3990	;# 
   434   000F9B                     OSCTUNE         equ	3995	;# 
   435   000F9D                     PIE1            equ	3997	;# 
   436   000F9E                     PIR1            equ	3998	;# 
   437   000F9F                     IPR1            equ	3999	;# 
   438   000FA0                     PIE2            equ	4000	;# 
   439   000FA1                     PIR2            equ	4001	;# 
   440   000FA2                     IPR2            equ	4002	;# 
   441   000FA3                     PIE3            equ	4003	;# 
   442   000FA4                     PIR3            equ	4004	;# 
   443   000FA5                     IPR3            equ	4005	;# 
   444   000FA6                     EECON1          equ	4006	;# 
   445   000FA7                     EECON2          equ	4007	;# 
   446   000FA8                     EEDATA          equ	4008	;# 
   447   000FA9                     EEADR           equ	4009	;# 
   448   000FAA                     EEADRH          equ	4010	;# 
   449   000FAB                     RCSTA           equ	4011	;# 
   450   000FAB                     RCSTA1          equ	4011	;# 
   451   000FAC                     TXSTA           equ	4012	;# 
   452   000FAC                     TXSTA1          equ	4012	;# 
   453   000FAD                     TXREG           equ	4013	;# 
   454   000FAD                     TXREG1          equ	4013	;# 
   455   000FAE                     RCREG           equ	4014	;# 
   456   000FAE                     RCREG1          equ	4014	;# 
   457   000FAF                     SPBRG           equ	4015	;# 
   458   000FAF                     SPBRG1          equ	4015	;# 
   459   000FB0                     SPBRGH          equ	4016	;# 
   460   000FB1                     T3CON           equ	4017	;# 
   461   000FB2                     TMR3            equ	4018	;# 
   462   000FB2                     TMR3L           equ	4018	;# 
   463   000FB3                     TMR3H           equ	4019	;# 
   464   000FB4                     CMCON           equ	4020	;# 
   465   000FB5                     CVRCON          equ	4021	;# 
   466   000FB6                     ECCP1AS         equ	4022	;# 
   467   000FB7                     ECCP1DEL        equ	4023	;# 
   468   000FB8                     BAUDCON         equ	4024	;# 
   469   000FB8                     BAUDCTL         equ	4024	;# 
   470   000FBA                     ECCP1CON        equ	4026	;# 
   471   000FBB                     ECCPR1          equ	4027	;# 
   472   000FBB                     ECCPR1L         equ	4027	;# 
   473   000FBC                     ECCPR1H         equ	4028	;# 
   474   000FBD                     CCP1CON         equ	4029	;# 
   475   000FBE                     CCPR1           equ	4030	;# 
   476   000FBE                     CCPR1L          equ	4030	;# 
   477   000FBF                     CCPR1H          equ	4031	;# 
   478   000FC0                     ADCON2          equ	4032	;# 
   479   000FC1                     ADCON1          equ	4033	;# 
   480   000FC2                     ADCON0          equ	4034	;# 
   481   000FC3                     ADRES           equ	4035	;# 
   482   000FC3                     ADRESL          equ	4035	;# 
   483   000FC4                     ADRESH          equ	4036	;# 
   484   000FC5                     SSPCON2         equ	4037	;# 
   485   000FC6                     SSPCON1         equ	4038	;# 
   486   000FC7                     SSPSTAT         equ	4039	;# 
   487   000FC8                     SSPADD          equ	4040	;# 
   488   000FC9                     SSPBUF          equ	4041	;# 
   489   000FCA                     T2CON           equ	4042	;# 
   490   000FCB                     PR2             equ	4043	;# 
   491   000FCB                     MEMCON          equ	4043	;# 
   492   000FCC                     TMR2            equ	4044	;# 
   493   000FCD                     T1CON           equ	4045	;# 
   494   000FCE                     TMR1            equ	4046	;# 
   495   000FCE                     TMR1L           equ	4046	;# 
   496   000FCF                     TMR1H           equ	4047	;# 
   497   000FD0                     RCON            equ	4048	;# 
   498   000FD1                     WDTCON          equ	4049	;# 
   499   000FD2                     HLVDCON         equ	4050	;# 
   500   000FD2                     LVDCON          equ	4050	;# 
   501   000FD3                     OSCCON          equ	4051	;# 
   502   000FD5                     T0CON           equ	4053	;# 
   503   000FD6                     TMR0            equ	4054	;# 
   504   000FD6                     TMR0L           equ	4054	;# 
   505   000FD7                     TMR0H           equ	4055	;# 
   506   000FD8                     STATUS          equ	4056	;# 
   507   000FD9                     FSR2            equ	4057	;# 
   508   000FD9                     FSR2L           equ	4057	;# 
   509   000FDA                     FSR2H           equ	4058	;# 
   510   000FDB                     PLUSW2          equ	4059	;# 
   511   000FDC                     PREINC2         equ	4060	;# 
   512   000FDD                     POSTDEC2        equ	4061	;# 
   513   000FDE                     POSTINC2        equ	4062	;# 
   514   000FDF                     INDF2           equ	4063	;# 
   515   000FE0                     BSR             equ	4064	;# 
   516   000FE1                     FSR1            equ	4065	;# 
   517   000FE1                     FSR1L           equ	4065	;# 
   518   000FE2                     FSR1H           equ	4066	;# 
   519   000FE3                     PLUSW1          equ	4067	;# 
   520   000FE4                     PREINC1         equ	4068	;# 
   521   000FE5                     POSTDEC1        equ	4069	;# 
   522   000FE6                     POSTINC1        equ	4070	;# 
   523   000FE7                     INDF1           equ	4071	;# 
   524   000FE8                     WREG            equ	4072	;# 
   525   000FE9                     FSR0            equ	4073	;# 
   526   000FE9                     FSR0L           equ	4073	;# 
   527   000FEA                     FSR0H           equ	4074	;# 
   528   000FEB                     PLUSW0          equ	4075	;# 
   529   000FEC                     PREINC0         equ	4076	;# 
   530   000FED                     POSTDEC0        equ	4077	;# 
   531   000FEE                     POSTINC0        equ	4078	;# 
   532   000FEF                     INDF0           equ	4079	;# 
   533   000FF0                     INTCON3         equ	4080	;# 
   534   000FF1                     INTCON2         equ	4081	;# 
   535   000FF2                     INTCON          equ	4082	;# 
   536   000FF3                     PROD            equ	4083	;# 
   537   000FF3                     PRODL           equ	4083	;# 
   538   000FF4                     PRODH           equ	4084	;# 
   539   000FF5                     TABLAT          equ	4085	;# 
   540   000FF6                     TBLPTR          equ	4086	;# 
   541   000FF6                     TBLPTRL         equ	4086	;# 
   542   000FF7                     TBLPTRH         equ	4087	;# 
   543   000FF8                     TBLPTRU         equ	4088	;# 
   544   000FF9                     PCLAT           equ	4089	;# 
   545   000FF9                     PC              equ	4089	;# 
   546   000FF9                     PCL             equ	4089	;# 
   547   000FFA                     PCLATH          equ	4090	;# 
   548   000FFB                     PCLATU          equ	4091	;# 
   549   000FFC                     STKPTR          equ	4092	;# 
   550   000FFD                     TOS             equ	4093	;# 
   551   000FFD                     TOSL            equ	4093	;# 
   552   000FFE                     TOSH            equ	4094	;# 
   553   000FFF                     TOSU            equ	4095	;# 
   554   000D60                     RXF6SIDH        equ	3424	;# 
   555   000D61                     RXF6SIDL        equ	3425	;# 
   556   000D62                     RXF6EIDH        equ	3426	;# 
   557   000D63                     RXF6EIDL        equ	3427	;# 
   558   000D64                     RXF7SIDH        equ	3428	;# 
   559   000D65                     RXF7SIDL        equ	3429	;# 
   560   000D66                     RXF7EIDH        equ	3430	;# 
   561   000D67                     RXF7EIDL        equ	3431	;# 
   562   000D68                     RXF8SIDH        equ	3432	;# 
   563   000D69                     RXF8SIDL        equ	3433	;# 
   564   000D6A                     RXF8EIDH        equ	3434	;# 
   565   000D6B                     RXF8EIDL        equ	3435	;# 
   566   000D70                     RXF9SIDH        equ	3440	;# 
   567   000D71                     RXF9SIDL        equ	3441	;# 
   568   000D72                     RXF9EIDH        equ	3442	;# 
   569   000D73                     RXF9EIDL        equ	3443	;# 
   570   000D74                     RXF10SIDH       equ	3444	;# 
   571   000D75                     RXF10SIDL       equ	3445	;# 
   572   000D76                     RXF10EIDH       equ	3446	;# 
   573   000D77                     RXF10EIDL       equ	3447	;# 
   574   000D78                     RXF11SIDH       equ	3448	;# 
   575   000D79                     RXF11SIDL       equ	3449	;# 
   576   000D7A                     RXF11EIDH       equ	3450	;# 
   577   000D7B                     RXF11EIDL       equ	3451	;# 
   578   000D80                     RXF12SIDH       equ	3456	;# 
   579   000D81                     RXF12SIDL       equ	3457	;# 
   580   000D82                     RXF12EIDH       equ	3458	;# 
   581   000D83                     RXF12EIDL       equ	3459	;# 
   582   000D84                     RXF13SIDH       equ	3460	;# 
   583   000D85                     RXF13SIDL       equ	3461	;# 
   584   000D86                     RXF13EIDH       equ	3462	;# 
   585   000D87                     RXF13EIDL       equ	3463	;# 
   586   000D88                     RXF14SIDH       equ	3464	;# 
   587   000D89                     RXF14SIDL       equ	3465	;# 
   588   000D8A                     RXF14EIDH       equ	3466	;# 
   589   000D8B                     RXF14EIDL       equ	3467	;# 
   590   000D90                     RXF15SIDH       equ	3472	;# 
   591   000D91                     RXF15SIDL       equ	3473	;# 
   592   000D92                     RXF15EIDH       equ	3474	;# 
   593   000D93                     RXF15EIDL       equ	3475	;# 
   594   000DD4                     RXFCON0         equ	3540	;# 
   595   000DD5                     RXFCON1         equ	3541	;# 
   596   000DD8                     SDFLC           equ	3544	;# 
   597   000DE0                     RXFBCON0        equ	3552	;# 
   598   000DE1                     RXFBCON1        equ	3553	;# 
   599   000DE2                     RXFBCON2        equ	3554	;# 
   600   000DE3                     RXFBCON3        equ	3555	;# 
   601   000DE4                     RXFBCON4        equ	3556	;# 
   602   000DE5                     RXFBCON5        equ	3557	;# 
   603   000DE6                     RXFBCON6        equ	3558	;# 
   604   000DE7                     RXFBCON7        equ	3559	;# 
   605   000DF0                     MSEL0           equ	3568	;# 
   606   000DF1                     MSEL1           equ	3569	;# 
   607   000DF2                     MSEL2           equ	3570	;# 
   608   000DF3                     MSEL3           equ	3571	;# 
   609   000DF8                     BSEL0           equ	3576	;# 
   610   000DFA                     BIE0            equ	3578	;# 
   611   000DFC                     TXBIE           equ	3580	;# 
   612   000E20                     B0CON           equ	3616	;# 
   613   000E21                     B0SIDH          equ	3617	;# 
   614   000E22                     B0SIDL          equ	3618	;# 
   615   000E23                     B0EIDH          equ	3619	;# 
   616   000E24                     B0EIDL          equ	3620	;# 
   617   000E25                     B0DLC           equ	3621	;# 
   618   000E26                     B0D0            equ	3622	;# 
   619   000E27                     B0D1            equ	3623	;# 
   620   000E28                     B0D2            equ	3624	;# 
   621   000E29                     B0D3            equ	3625	;# 
   622   000E2A                     B0D4            equ	3626	;# 
   623   000E2B                     B0D5            equ	3627	;# 
   624   000E2C                     B0D6            equ	3628	;# 
   625   000E2D                     B0D7            equ	3629	;# 
   626   000E2E                     CANSTAT_RO9     equ	3630	;# 
   627   000E2F                     CANCON_RO9      equ	3631	;# 
   628   000E30                     B1CON           equ	3632	;# 
   629   000E31                     B1SIDH          equ	3633	;# 
   630   000E32                     B1SIDL          equ	3634	;# 
   631   000E33                     B1EIDH          equ	3635	;# 
   632   000E34                     B1EIDL          equ	3636	;# 
   633   000E35                     B1DLC           equ	3637	;# 
   634   000E36                     B1D0            equ	3638	;# 
   635   000E37                     B1D1            equ	3639	;# 
   636   000E38                     B1D2            equ	3640	;# 
   637   000E39                     B1D3            equ	3641	;# 
   638   000E3A                     B1D4            equ	3642	;# 
   639   000E3B                     B1D5            equ	3643	;# 
   640   000E3C                     B1D6            equ	3644	;# 
   641   000E3D                     B1D7            equ	3645	;# 
   642   000E3E                     CANSTAT_RO8     equ	3646	;# 
   643   000E3F                     CANCON_RO8      equ	3647	;# 
   644   000E40                     B2CON           equ	3648	;# 
   645   000E41                     B2SIDH          equ	3649	;# 
   646   000E42                     B2SIDL          equ	3650	;# 
   647   000E43                     B2EIDH          equ	3651	;# 
   648   000E44                     B2EIDL          equ	3652	;# 
   649   000E45                     B2DLC           equ	3653	;# 
   650   000E46                     B2D0            equ	3654	;# 
   651   000E47                     B2D1            equ	3655	;# 
   652   000E48                     B2D2            equ	3656	;# 
   653   000E49                     B2D3            equ	3657	;# 
   654   000E4A                     B2D4            equ	3658	;# 
   655   000E4B                     B2D5            equ	3659	;# 
   656   000E4C                     B2D6            equ	3660	;# 
   657   000E4D                     B2D7            equ	3661	;# 
   658   000E4E                     CANSTAT_RO7     equ	3662	;# 
   659   000E4F                     CANCON_RO7      equ	3663	;# 
   660   000E50                     B3CON           equ	3664	;# 
   661   000E51                     B3SIDH          equ	3665	;# 
   662   000E52                     B3SIDL          equ	3666	;# 
   663   000E53                     B3EIDH          equ	3667	;# 
   664   000E54                     B3EIDL          equ	3668	;# 
   665   000E55                     B3DLC           equ	3669	;# 
   666   000E56                     B3D0            equ	3670	;# 
   667   000E57                     B3D1            equ	3671	;# 
   668   000E58                     B3D2            equ	3672	;# 
   669   000E59                     B3D3            equ	3673	;# 
   670   000E5A                     B3D4            equ	3674	;# 
   671   000E5B                     B3D5            equ	3675	;# 
   672   000E5C                     B3D6            equ	3676	;# 
   673   000E5D                     B3D7            equ	3677	;# 
   674   000E5E                     CANSTAT_RO6     equ	3678	;# 
   675   000E5F                     CANCON_RO6      equ	3679	;# 
   676   000E60                     B4CON           equ	3680	;# 
   677   000E61                     B4SIDH          equ	3681	;# 
   678   000E62                     B4SIDL          equ	3682	;# 
   679   000E63                     B4EIDH          equ	3683	;# 
   680   000E64                     B4EIDL          equ	3684	;# 
   681   000E65                     B4DLC           equ	3685	;# 
   682   000E66                     B4D0            equ	3686	;# 
   683   000E67                     B4D1            equ	3687	;# 
   684   000E68                     B4D2            equ	3688	;# 
   685   000E69                     B4D3            equ	3689	;# 
   686   000E6A                     B4D4            equ	3690	;# 
   687   000E6B                     B4D5            equ	3691	;# 
   688   000E6C                     B4D6            equ	3692	;# 
   689   000E6D                     B4D7            equ	3693	;# 
   690   000E6E                     CANSTAT_RO5     equ	3694	;# 
   691   000E6F                     CANCON_RO5      equ	3695	;# 
   692   000E70                     B5CON           equ	3696	;# 
   693   000E71                     B5SIDH          equ	3697	;# 
   694   000E72                     B5SIDL          equ	3698	;# 
   695   000E73                     B5EIDH          equ	3699	;# 
   696   000E74                     B5EIDL          equ	3700	;# 
   697   000E75                     B5DLC           equ	3701	;# 
   698   000E76                     B5D0            equ	3702	;# 
   699   000E77                     B5D1            equ	3703	;# 
   700   000E78                     B5D2            equ	3704	;# 
   701   000E79                     B5D3            equ	3705	;# 
   702   000E7A                     B5D4            equ	3706	;# 
   703   000E7B                     B5D5            equ	3707	;# 
   704   000E7C                     B5D6            equ	3708	;# 
   705   000E7D                     B5D7            equ	3709	;# 
   706   000E7E                     CANSTAT_RO4     equ	3710	;# 
   707   000E7F                     CANCON_RO4      equ	3711	;# 
   708   000F00                     RXF0SIDH        equ	3840	;# 
   709   000F01                     RXF0SIDL        equ	3841	;# 
   710   000F02                     RXF0EIDH        equ	3842	;# 
   711   000F03                     RXF0EIDL        equ	3843	;# 
   712   000F04                     RXF1SIDH        equ	3844	;# 
   713   000F05                     RXF1SIDL        equ	3845	;# 
   714   000F06                     RXF1EIDH        equ	3846	;# 
   715   000F07                     RXF1EIDL        equ	3847	;# 
   716   000F08                     RXF2SIDH        equ	3848	;# 
   717   000F09                     RXF2SIDL        equ	3849	;# 
   718   000F0A                     RXF2EIDH        equ	3850	;# 
   719   000F0B                     RXF2EIDL        equ	3851	;# 
   720   000F0C                     RXF3SIDH        equ	3852	;# 
   721   000F0D                     RXF3SIDL        equ	3853	;# 
   722   000F0E                     RXF3EIDH        equ	3854	;# 
   723   000F0F                     RXF3EIDL        equ	3855	;# 
   724   000F10                     RXF4SIDH        equ	3856	;# 
   725   000F11                     RXF4SIDL        equ	3857	;# 
   726   000F12                     RXF4EIDH        equ	3858	;# 
   727   000F13                     RXF4EIDL        equ	3859	;# 
   728   000F14                     RXF5SIDH        equ	3860	;# 
   729   000F15                     RXF5SIDL        equ	3861	;# 
   730   000F16                     RXF5EIDH        equ	3862	;# 
   731   000F17                     RXF5EIDL        equ	3863	;# 
   732   000F18                     RXM0SIDH        equ	3864	;# 
   733   000F19                     RXM0SIDL        equ	3865	;# 
   734   000F1A                     RXM0EIDH        equ	3866	;# 
   735   000F1B                     RXM0EIDL        equ	3867	;# 
   736   000F1C                     RXM1SIDH        equ	3868	;# 
   737   000F1D                     RXM1SIDL        equ	3869	;# 
   738   000F1E                     RXM1EIDH        equ	3870	;# 
   739   000F1F                     RXM1EIDL        equ	3871	;# 
   740   000F20                     TXB2CON         equ	3872	;# 
   741   000F21                     TXB2SIDH        equ	3873	;# 
   742   000F22                     TXB2SIDL        equ	3874	;# 
   743   000F23                     TXB2EIDH        equ	3875	;# 
   744   000F24                     TXB2EIDL        equ	3876	;# 
   745   000F25                     TXB2DLC         equ	3877	;# 
   746   000F26                     TXB2D0          equ	3878	;# 
   747   000F27                     TXB2D1          equ	3879	;# 
   748   000F28                     TXB2D2          equ	3880	;# 
   749   000F29                     TXB2D3          equ	3881	;# 
   750   000F2A                     TXB2D4          equ	3882	;# 
   751   000F2B                     TXB2D5          equ	3883	;# 
   752   000F2C                     TXB2D6          equ	3884	;# 
   753   000F2D                     TXB2D7          equ	3885	;# 
   754   000F2E                     CANSTAT_RO3     equ	3886	;# 
   755   000F2F                     CANCON_RO3      equ	3887	;# 
   756   000F30                     TXB1CON         equ	3888	;# 
   757   000F31                     TXB1SIDH        equ	3889	;# 
   758   000F32                     TXB1SIDL        equ	3890	;# 
   759   000F33                     TXB1EIDH        equ	3891	;# 
   760   000F34                     TXB1EIDL        equ	3892	;# 
   761   000F35                     TXB1DLC         equ	3893	;# 
   762   000F36                     TXB1D0          equ	3894	;# 
   763   000F37                     TXB1D1          equ	3895	;# 
   764   000F38                     TXB1D2          equ	3896	;# 
   765   000F39                     TXB1D3          equ	3897	;# 
   766   000F3A                     TXB1D4          equ	3898	;# 
   767   000F3B                     TXB1D5          equ	3899	;# 
   768   000F3C                     TXB1D6          equ	3900	;# 
   769   000F3D                     TXB1D7          equ	3901	;# 
   770   000F3E                     CANSTAT_RO2     equ	3902	;# 
   771   000F3F                     CANCON_RO2      equ	3903	;# 
   772   000F40                     TXB0CON         equ	3904	;# 
   773   000F41                     TXB0SIDH        equ	3905	;# 
   774   000F42                     TXB0SIDL        equ	3906	;# 
   775   000F43                     TXB0EIDH        equ	3907	;# 
   776   000F44                     TXB0EIDL        equ	3908	;# 
   777   000F45                     TXB0DLC         equ	3909	;# 
   778   000F46                     TXB0D0          equ	3910	;# 
   779   000F47                     TXB0D1          equ	3911	;# 
   780   000F48                     TXB0D2          equ	3912	;# 
   781   000F49                     TXB0D3          equ	3913	;# 
   782   000F4A                     TXB0D4          equ	3914	;# 
   783   000F4B                     TXB0D5          equ	3915	;# 
   784   000F4C                     TXB0D6          equ	3916	;# 
   785   000F4D                     TXB0D7          equ	3917	;# 
   786   000F4E                     CANSTAT_RO1     equ	3918	;# 
   787   000F4F                     CANCON_RO1      equ	3919	;# 
   788   000F50                     RXB1CON         equ	3920	;# 
   789   000F51                     RXB1SIDH        equ	3921	;# 
   790   000F52                     RXB1SIDL        equ	3922	;# 
   791   000F53                     RXB1EIDH        equ	3923	;# 
   792   000F54                     RXB1EIDL        equ	3924	;# 
   793   000F55                     RXB1DLC         equ	3925	;# 
   794   000F56                     RXB1D0          equ	3926	;# 
   795   000F57                     RXB1D1          equ	3927	;# 
   796   000F58                     RXB1D2          equ	3928	;# 
   797   000F59                     RXB1D3          equ	3929	;# 
   798   000F5A                     RXB1D4          equ	3930	;# 
   799   000F5B                     RXB1D5          equ	3931	;# 
   800   000F5C                     RXB1D6          equ	3932	;# 
   801   000F5D                     RXB1D7          equ	3933	;# 
   802   000F5E                     CANSTAT_RO0     equ	3934	;# 
   803   000F5F                     CANCON_RO0      equ	3935	;# 
   804   000F60                     RXB0CON         equ	3936	;# 
   805   000F61                     RXB0SIDH        equ	3937	;# 
   806   000F62                     RXB0SIDL        equ	3938	;# 
   807   000F63                     RXB0EIDH        equ	3939	;# 
   808   000F64                     RXB0EIDL        equ	3940	;# 
   809   000F65                     RXB0DLC         equ	3941	;# 
   810   000F66                     RXB0D0          equ	3942	;# 
   811   000F67                     RXB0D1          equ	3943	;# 
   812   000F68                     RXB0D2          equ	3944	;# 
   813   000F69                     RXB0D3          equ	3945	;# 
   814   000F6A                     RXB0D4          equ	3946	;# 
   815   000F6B                     RXB0D5          equ	3947	;# 
   816   000F6C                     RXB0D6          equ	3948	;# 
   817   000F6D                     RXB0D7          equ	3949	;# 
   818   000F6E                     CANSTAT         equ	3950	;# 
   819   000F6F                     CANCON          equ	3951	;# 
   820   000F70                     BRGCON1         equ	3952	;# 
   821   000F71                     BRGCON2         equ	3953	;# 
   822   000F72                     BRGCON3         equ	3954	;# 
   823   000F73                     CIOCON          equ	3955	;# 
   824   000F74                     COMSTAT         equ	3956	;# 
   825   000F75                     RXERRCNT        equ	3957	;# 
   826   000F76                     TXERRCNT        equ	3958	;# 
   827   000F77                     ECANCON         equ	3959	;# 
   828   000F80                     PORTA           equ	3968	;# 
   829   000F81                     PORTB           equ	3969	;# 
   830   000F82                     PORTC           equ	3970	;# 
   831   000F83                     PORTD           equ	3971	;# 
   832   000F84                     PORTE           equ	3972	;# 
   833   000F89                     LATA            equ	3977	;# 
   834   000F8A                     LATB            equ	3978	;# 
   835   000F8B                     LATC            equ	3979	;# 
   836   000F8C                     LATD            equ	3980	;# 
   837   000F8D                     LATE            equ	3981	;# 
   838   000F92                     TRISA           equ	3986	;# 
   839   000F92                     DDRA            equ	3986	;# 
   840   000F93                     TRISB           equ	3987	;# 
   841   000F93                     DDRB            equ	3987	;# 
   842   000F94                     TRISC           equ	3988	;# 
   843   000F94                     DDRC            equ	3988	;# 
   844   000F95                     TRISD           equ	3989	;# 
   845   000F95                     DDRD            equ	3989	;# 
   846   000F96                     TRISE           equ	3990	;# 
   847   000F96                     DDRE            equ	3990	;# 
   848   000F9B                     OSCTUNE         equ	3995	;# 
   849   000F9D                     PIE1            equ	3997	;# 
   850   000F9E                     PIR1            equ	3998	;# 
   851   000F9F                     IPR1            equ	3999	;# 
   852   000FA0                     PIE2            equ	4000	;# 
   853   000FA1                     PIR2            equ	4001	;# 
   854   000FA2                     IPR2            equ	4002	;# 
   855   000FA3                     PIE3            equ	4003	;# 
   856   000FA4                     PIR3            equ	4004	;# 
   857   000FA5                     IPR3            equ	4005	;# 
   858   000FA6                     EECON1          equ	4006	;# 
   859   000FA7                     EECON2          equ	4007	;# 
   860   000FA8                     EEDATA          equ	4008	;# 
   861   000FA9                     EEADR           equ	4009	;# 
   862   000FAA                     EEADRH          equ	4010	;# 
   863   000FAB                     RCSTA           equ	4011	;# 
   864   000FAB                     RCSTA1          equ	4011	;# 
   865   000FAC                     TXSTA           equ	4012	;# 
   866   000FAC                     TXSTA1          equ	4012	;# 
   867   000FAD                     TXREG           equ	4013	;# 
   868   000FAD                     TXREG1          equ	4013	;# 
   869   000FAE                     RCREG           equ	4014	;# 
   870   000FAE                     RCREG1          equ	4014	;# 
   871   000FAF                     SPBRG           equ	4015	;# 
   872   000FAF                     SPBRG1          equ	4015	;# 
   873   000FB0                     SPBRGH          equ	4016	;# 
   874   000FB1                     T3CON           equ	4017	;# 
   875   000FB2                     TMR3            equ	4018	;# 
   876   000FB2                     TMR3L           equ	4018	;# 
   877   000FB3                     TMR3H           equ	4019	;# 
   878   000FB4                     CMCON           equ	4020	;# 
   879   000FB5                     CVRCON          equ	4021	;# 
   880   000FB6                     ECCP1AS         equ	4022	;# 
   881   000FB7                     ECCP1DEL        equ	4023	;# 
   882   000FB8                     BAUDCON         equ	4024	;# 
   883   000FB8                     BAUDCTL         equ	4024	;# 
   884   000FBA                     ECCP1CON        equ	4026	;# 
   885   000FBB                     ECCPR1          equ	4027	;# 
   886   000FBB                     ECCPR1L         equ	4027	;# 
   887   000FBC                     ECCPR1H         equ	4028	;# 
   888   000FBD                     CCP1CON         equ	4029	;# 
   889   000FBE                     CCPR1           equ	4030	;# 
   890   000FBE                     CCPR1L          equ	4030	;# 
   891   000FBF                     CCPR1H          equ	4031	;# 
   892   000FC0                     ADCON2          equ	4032	;# 
   893   000FC1                     ADCON1          equ	4033	;# 
   894   000FC2                     ADCON0          equ	4034	;# 
   895   000FC3                     ADRES           equ	4035	;# 
   896   000FC3                     ADRESL          equ	4035	;# 
   897   000FC4                     ADRESH          equ	4036	;# 
   898   000FC5                     SSPCON2         equ	4037	;# 
   899   000FC6                     SSPCON1         equ	4038	;# 
   900   000FC7                     SSPSTAT         equ	4039	;# 
   901   000FC8                     SSPADD          equ	4040	;# 
   902   000FC9                     SSPBUF          equ	4041	;# 
   903   000FCA                     T2CON           equ	4042	;# 
   904   000FCB                     PR2             equ	4043	;# 
   905   000FCB                     MEMCON          equ	4043	;# 
   906   000FCC                     TMR2            equ	4044	;# 
   907   000FCD                     T1CON           equ	4045	;# 
   908   000FCE                     TMR1            equ	4046	;# 
   909   000FCE                     TMR1L           equ	4046	;# 
   910   000FCF                     TMR1H           equ	4047	;# 
   911   000FD0                     RCON            equ	4048	;# 
   912   000FD1                     WDTCON          equ	4049	;# 
   913   000FD2                     HLVDCON         equ	4050	;# 
   914   000FD2                     LVDCON          equ	4050	;# 
   915   000FD3                     OSCCON          equ	4051	;# 
   916   000FD5                     T0CON           equ	4053	;# 
   917   000FD6                     TMR0            equ	4054	;# 
   918   000FD6                     TMR0L           equ	4054	;# 
   919   000FD7                     TMR0H           equ	4055	;# 
   920   000FD8                     STATUS          equ	4056	;# 
   921   000FD9                     FSR2            equ	4057	;# 
   922   000FD9                     FSR2L           equ	4057	;# 
   923   000FDA                     FSR2H           equ	4058	;# 
   924   000FDB                     PLUSW2          equ	4059	;# 
   925   000FDC                     PREINC2         equ	4060	;# 
   926   000FDD                     POSTDEC2        equ	4061	;# 
   927   000FDE                     POSTINC2        equ	4062	;# 
   928   000FDF                     INDF2           equ	4063	;# 
   929   000FE0                     BSR             equ	4064	;# 
   930   000FE1                     FSR1            equ	4065	;# 
   931   000FE1                     FSR1L           equ	4065	;# 
   932   000FE2                     FSR1H           equ	4066	;# 
   933   000FE3                     PLUSW1          equ	4067	;# 
   934   000FE4                     PREINC1         equ	4068	;# 
   935   000FE5                     POSTDEC1        equ	4069	;# 
   936   000FE6                     POSTINC1        equ	4070	;# 
   937   000FE7                     INDF1           equ	4071	;# 
   938   000FE8                     WREG            equ	4072	;# 
   939   000FE9                     FSR0            equ	4073	;# 
   940   000FE9                     FSR0L           equ	4073	;# 
   941   000FEA                     FSR0H           equ	4074	;# 
   942   000FEB                     PLUSW0          equ	4075	;# 
   943   000FEC                     PREINC0         equ	4076	;# 
   944   000FED                     POSTDEC0        equ	4077	;# 
   945   000FEE                     POSTINC0        equ	4078	;# 
   946   000FEF                     INDF0           equ	4079	;# 
   947   000FF0                     INTCON3         equ	4080	;# 
   948   000FF1                     INTCON2         equ	4081	;# 
   949   000FF2                     INTCON          equ	4082	;# 
   950   000FF3                     PROD            equ	4083	;# 
   951   000FF3                     PRODL           equ	4083	;# 
   952   000FF4                     PRODH           equ	4084	;# 
   953   000FF5                     TABLAT          equ	4085	;# 
   954   000FF6                     TBLPTR          equ	4086	;# 
   955   000FF6                     TBLPTRL         equ	4086	;# 
   956   000FF7                     TBLPTRH         equ	4087	;# 
   957   000FF8                     TBLPTRU         equ	4088	;# 
   958   000FF9                     PCLAT           equ	4089	;# 
   959   000FF9                     PC              equ	4089	;# 
   960   000FF9                     PCL             equ	4089	;# 
   961   000FFA                     PCLATH          equ	4090	;# 
   962   000FFB                     PCLATU          equ	4091	;# 
   963   000FFC                     STKPTR          equ	4092	;# 
   964   000FFD                     TOS             equ	4093	;# 
   965   000FFD                     TOSL            equ	4093	;# 
   966   000FFE                     TOSH            equ	4094	;# 
   967   000FFF                     TOSU            equ	4095	;# 
   968   000D60                     RXF6SIDH        equ	3424	;# 
   969   000D61                     RXF6SIDL        equ	3425	;# 
   970   000D62                     RXF6EIDH        equ	3426	;# 
   971   000D63                     RXF6EIDL        equ	3427	;# 
   972   000D64                     RXF7SIDH        equ	3428	;# 
   973   000D65                     RXF7SIDL        equ	3429	;# 
   974   000D66                     RXF7EIDH        equ	3430	;# 
   975   000D67                     RXF7EIDL        equ	3431	;# 
   976   000D68                     RXF8SIDH        equ	3432	;# 
   977   000D69                     RXF8SIDL        equ	3433	;# 
   978   000D6A                     RXF8EIDH        equ	3434	;# 
   979   000D6B                     RXF8EIDL        equ	3435	;# 
   980   000D70                     RXF9SIDH        equ	3440	;# 
   981   000D71                     RXF9SIDL        equ	3441	;# 
   982   000D72                     RXF9EIDH        equ	3442	;# 
   983   000D73                     RXF9EIDL        equ	3443	;# 
   984   000D74                     RXF10SIDH       equ	3444	;# 
   985   000D75                     RXF10SIDL       equ	3445	;# 
   986   000D76                     RXF10EIDH       equ	3446	;# 
   987   000D77                     RXF10EIDL       equ	3447	;# 
   988   000D78                     RXF11SIDH       equ	3448	;# 
   989   000D79                     RXF11SIDL       equ	3449	;# 
   990   000D7A                     RXF11EIDH       equ	3450	;# 
   991   000D7B                     RXF11EIDL       equ	3451	;# 
   992   000D80                     RXF12SIDH       equ	3456	;# 
   993   000D81                     RXF12SIDL       equ	3457	;# 
   994   000D82                     RXF12EIDH       equ	3458	;# 
   995   000D83                     RXF12EIDL       equ	3459	;# 
   996   000D84                     RXF13SIDH       equ	3460	;# 
   997   000D85                     RXF13SIDL       equ	3461	;# 
   998   000D86                     RXF13EIDH       equ	3462	;# 
   999   000D87                     RXF13EIDL       equ	3463	;# 
  1000   000D88                     RXF14SIDH       equ	3464	;# 
  1001   000D89                     RXF14SIDL       equ	3465	;# 
  1002   000D8A                     RXF14EIDH       equ	3466	;# 
  1003   000D8B                     RXF14EIDL       equ	3467	;# 
  1004   000D90                     RXF15SIDH       equ	3472	;# 
  1005   000D91                     RXF15SIDL       equ	3473	;# 
  1006   000D92                     RXF15EIDH       equ	3474	;# 
  1007   000D93                     RXF15EIDL       equ	3475	;# 
  1008   000DD4                     RXFCON0         equ	3540	;# 
  1009   000DD5                     RXFCON1         equ	3541	;# 
  1010   000DD8                     SDFLC           equ	3544	;# 
  1011   000DE0                     RXFBCON0        equ	3552	;# 
  1012   000DE1                     RXFBCON1        equ	3553	;# 
  1013   000DE2                     RXFBCON2        equ	3554	;# 
  1014   000DE3                     RXFBCON3        equ	3555	;# 
  1015   000DE4                     RXFBCON4        equ	3556	;# 
  1016   000DE5                     RXFBCON5        equ	3557	;# 
  1017   000DE6                     RXFBCON6        equ	3558	;# 
  1018   000DE7                     RXFBCON7        equ	3559	;# 
  1019   000DF0                     MSEL0           equ	3568	;# 
  1020   000DF1                     MSEL1           equ	3569	;# 
  1021   000DF2                     MSEL2           equ	3570	;# 
  1022   000DF3                     MSEL3           equ	3571	;# 
  1023   000DF8                     BSEL0           equ	3576	;# 
  1024   000DFA                     BIE0            equ	3578	;# 
  1025   000DFC                     TXBIE           equ	3580	;# 
  1026   000E20                     B0CON           equ	3616	;# 
  1027   000E21                     B0SIDH          equ	3617	;# 
  1028   000E22                     B0SIDL          equ	3618	;# 
  1029   000E23                     B0EIDH          equ	3619	;# 
  1030   000E24                     B0EIDL          equ	3620	;# 
  1031   000E25                     B0DLC           equ	3621	;# 
  1032   000E26                     B0D0            equ	3622	;# 
  1033   000E27                     B0D1            equ	3623	;# 
  1034   000E28                     B0D2            equ	3624	;# 
  1035   000E29                     B0D3            equ	3625	;# 
  1036   000E2A                     B0D4            equ	3626	;# 
  1037   000E2B                     B0D5            equ	3627	;# 
  1038   000E2C                     B0D6            equ	3628	;# 
  1039   000E2D                     B0D7            equ	3629	;# 
  1040   000E2E                     CANSTAT_RO9     equ	3630	;# 
  1041   000E2F                     CANCON_RO9      equ	3631	;# 
  1042   000E30                     B1CON           equ	3632	;# 
  1043   000E31                     B1SIDH          equ	3633	;# 
  1044   000E32                     B1SIDL          equ	3634	;# 
  1045   000E33                     B1EIDH          equ	3635	;# 
  1046   000E34                     B1EIDL          equ	3636	;# 
  1047   000E35                     B1DLC           equ	3637	;# 
  1048   000E36                     B1D0            equ	3638	;# 
  1049   000E37                     B1D1            equ	3639	;# 
  1050   000E38                     B1D2            equ	3640	;# 
  1051   000E39                     B1D3            equ	3641	;# 
  1052   000E3A                     B1D4            equ	3642	;# 
  1053   000E3B                     B1D5            equ	3643	;# 
  1054   000E3C                     B1D6            equ	3644	;# 
  1055   000E3D                     B1D7            equ	3645	;# 
  1056   000E3E                     CANSTAT_RO8     equ	3646	;# 
  1057   000E3F                     CANCON_RO8      equ	3647	;# 
  1058   000E40                     B2CON           equ	3648	;# 
  1059   000E41                     B2SIDH          equ	3649	;# 
  1060   000E42                     B2SIDL          equ	3650	;# 
  1061   000E43                     B2EIDH          equ	3651	;# 
  1062   000E44                     B2EIDL          equ	3652	;# 
  1063   000E45                     B2DLC           equ	3653	;# 
  1064   000E46                     B2D0            equ	3654	;# 
  1065   000E47                     B2D1            equ	3655	;# 
  1066   000E48                     B2D2            equ	3656	;# 
  1067   000E49                     B2D3            equ	3657	;# 
  1068   000E4A                     B2D4            equ	3658	;# 
  1069   000E4B                     B2D5            equ	3659	;# 
  1070   000E4C                     B2D6            equ	3660	;# 
  1071   000E4D                     B2D7            equ	3661	;# 
  1072   000E4E                     CANSTAT_RO7     equ	3662	;# 
  1073   000E4F                     CANCON_RO7      equ	3663	;# 
  1074   000E50                     B3CON           equ	3664	;# 
  1075   000E51                     B3SIDH          equ	3665	;# 
  1076   000E52                     B3SIDL          equ	3666	;# 
  1077   000E53                     B3EIDH          equ	3667	;# 
  1078   000E54                     B3EIDL          equ	3668	;# 
  1079   000E55                     B3DLC           equ	3669	;# 
  1080   000E56                     B3D0            equ	3670	;# 
  1081   000E57                     B3D1            equ	3671	;# 
  1082   000E58                     B3D2            equ	3672	;# 
  1083   000E59                     B3D3            equ	3673	;# 
  1084   000E5A                     B3D4            equ	3674	;# 
  1085   000E5B                     B3D5            equ	3675	;# 
  1086   000E5C                     B3D6            equ	3676	;# 
  1087   000E5D                     B3D7            equ	3677	;# 
  1088   000E5E                     CANSTAT_RO6     equ	3678	;# 
  1089   000E5F                     CANCON_RO6      equ	3679	;# 
  1090   000E60                     B4CON           equ	3680	;# 
  1091   000E61                     B4SIDH          equ	3681	;# 
  1092   000E62                     B4SIDL          equ	3682	;# 
  1093   000E63                     B4EIDH          equ	3683	;# 
  1094   000E64                     B4EIDL          equ	3684	;# 
  1095   000E65                     B4DLC           equ	3685	;# 
  1096   000E66                     B4D0            equ	3686	;# 
  1097   000E67                     B4D1            equ	3687	;# 
  1098   000E68                     B4D2            equ	3688	;# 
  1099   000E69                     B4D3            equ	3689	;# 
  1100   000E6A                     B4D4            equ	3690	;# 
  1101   000E6B                     B4D5            equ	3691	;# 
  1102   000E6C                     B4D6            equ	3692	;# 
  1103   000E6D                     B4D7            equ	3693	;# 
  1104   000E6E                     CANSTAT_RO5     equ	3694	;# 
  1105   000E6F                     CANCON_RO5      equ	3695	;# 
  1106   000E70                     B5CON           equ	3696	;# 
  1107   000E71                     B5SIDH          equ	3697	;# 
  1108   000E72                     B5SIDL          equ	3698	;# 
  1109   000E73                     B5EIDH          equ	3699	;# 
  1110   000E74                     B5EIDL          equ	3700	;# 
  1111   000E75                     B5DLC           equ	3701	;# 
  1112   000E76                     B5D0            equ	3702	;# 
  1113   000E77                     B5D1            equ	3703	;# 
  1114   000E78                     B5D2            equ	3704	;# 
  1115   000E79                     B5D3            equ	3705	;# 
  1116   000E7A                     B5D4            equ	3706	;# 
  1117   000E7B                     B5D5            equ	3707	;# 
  1118   000E7C                     B5D6            equ	3708	;# 
  1119   000E7D                     B5D7            equ	3709	;# 
  1120   000E7E                     CANSTAT_RO4     equ	3710	;# 
  1121   000E7F                     CANCON_RO4      equ	3711	;# 
  1122   000F00                     RXF0SIDH        equ	3840	;# 
  1123   000F01                     RXF0SIDL        equ	3841	;# 
  1124   000F02                     RXF0EIDH        equ	3842	;# 
  1125   000F03                     RXF0EIDL        equ	3843	;# 
  1126   000F04                     RXF1SIDH        equ	3844	;# 
  1127   000F05                     RXF1SIDL        equ	3845	;# 
  1128   000F06                     RXF1EIDH        equ	3846	;# 
  1129   000F07                     RXF1EIDL        equ	3847	;# 
  1130   000F08                     RXF2SIDH        equ	3848	;# 
  1131   000F09                     RXF2SIDL        equ	3849	;# 
  1132   000F0A                     RXF2EIDH        equ	3850	;# 
  1133   000F0B                     RXF2EIDL        equ	3851	;# 
  1134   000F0C                     RXF3SIDH        equ	3852	;# 
  1135   000F0D                     RXF3SIDL        equ	3853	;# 
  1136   000F0E                     RXF3EIDH        equ	3854	;# 
  1137   000F0F                     RXF3EIDL        equ	3855	;# 
  1138   000F10                     RXF4SIDH        equ	3856	;# 
  1139   000F11                     RXF4SIDL        equ	3857	;# 
  1140   000F12                     RXF4EIDH        equ	3858	;# 
  1141   000F13                     RXF4EIDL        equ	3859	;# 
  1142   000F14                     RXF5SIDH        equ	3860	;# 
  1143   000F15                     RXF5SIDL        equ	3861	;# 
  1144   000F16                     RXF5EIDH        equ	3862	;# 
  1145   000F17                     RXF5EIDL        equ	3863	;# 
  1146   000F18                     RXM0SIDH        equ	3864	;# 
  1147   000F19                     RXM0SIDL        equ	3865	;# 
  1148   000F1A                     RXM0EIDH        equ	3866	;# 
  1149   000F1B                     RXM0EIDL        equ	3867	;# 
  1150   000F1C                     RXM1SIDH        equ	3868	;# 
  1151   000F1D                     RXM1SIDL        equ	3869	;# 
  1152   000F1E                     RXM1EIDH        equ	3870	;# 
  1153   000F1F                     RXM1EIDL        equ	3871	;# 
  1154   000F20                     TXB2CON         equ	3872	;# 
  1155   000F21                     TXB2SIDH        equ	3873	;# 
  1156   000F22                     TXB2SIDL        equ	3874	;# 
  1157   000F23                     TXB2EIDH        equ	3875	;# 
  1158   000F24                     TXB2EIDL        equ	3876	;# 
  1159   000F25                     TXB2DLC         equ	3877	;# 
  1160   000F26                     TXB2D0          equ	3878	;# 
  1161   000F27                     TXB2D1          equ	3879	;# 
  1162   000F28                     TXB2D2          equ	3880	;# 
  1163   000F29                     TXB2D3          equ	3881	;# 
  1164   000F2A                     TXB2D4          equ	3882	;# 
  1165   000F2B                     TXB2D5          equ	3883	;# 
  1166   000F2C                     TXB2D6          equ	3884	;# 
  1167   000F2D                     TXB2D7          equ	3885	;# 
  1168   000F2E                     CANSTAT_RO3     equ	3886	;# 
  1169   000F2F                     CANCON_RO3      equ	3887	;# 
  1170   000F30                     TXB1CON         equ	3888	;# 
  1171   000F31                     TXB1SIDH        equ	3889	;# 
  1172   000F32                     TXB1SIDL        equ	3890	;# 
  1173   000F33                     TXB1EIDH        equ	3891	;# 
  1174   000F34                     TXB1EIDL        equ	3892	;# 
  1175   000F35                     TXB1DLC         equ	3893	;# 
  1176   000F36                     TXB1D0          equ	3894	;# 
  1177   000F37                     TXB1D1          equ	3895	;# 
  1178   000F38                     TXB1D2          equ	3896	;# 
  1179   000F39                     TXB1D3          equ	3897	;# 
  1180   000F3A                     TXB1D4          equ	3898	;# 
  1181   000F3B                     TXB1D5          equ	3899	;# 
  1182   000F3C                     TXB1D6          equ	3900	;# 
  1183   000F3D                     TXB1D7          equ	3901	;# 
  1184   000F3E                     CANSTAT_RO2     equ	3902	;# 
  1185   000F3F                     CANCON_RO2      equ	3903	;# 
  1186   000F40                     TXB0CON         equ	3904	;# 
  1187   000F41                     TXB0SIDH        equ	3905	;# 
  1188   000F42                     TXB0SIDL        equ	3906	;# 
  1189   000F43                     TXB0EIDH        equ	3907	;# 
  1190   000F44                     TXB0EIDL        equ	3908	;# 
  1191   000F45                     TXB0DLC         equ	3909	;# 
  1192   000F46                     TXB0D0          equ	3910	;# 
  1193   000F47                     TXB0D1          equ	3911	;# 
  1194   000F48                     TXB0D2          equ	3912	;# 
  1195   000F49                     TXB0D3          equ	3913	;# 
  1196   000F4A                     TXB0D4          equ	3914	;# 
  1197   000F4B                     TXB0D5          equ	3915	;# 
  1198   000F4C                     TXB0D6          equ	3916	;# 
  1199   000F4D                     TXB0D7          equ	3917	;# 
  1200   000F4E                     CANSTAT_RO1     equ	3918	;# 
  1201   000F4F                     CANCON_RO1      equ	3919	;# 
  1202   000F50                     RXB1CON         equ	3920	;# 
  1203   000F51                     RXB1SIDH        equ	3921	;# 
  1204   000F52                     RXB1SIDL        equ	3922	;# 
  1205   000F53                     RXB1EIDH        equ	3923	;# 
  1206   000F54                     RXB1EIDL        equ	3924	;# 
  1207   000F55                     RXB1DLC         equ	3925	;# 
  1208   000F56                     RXB1D0          equ	3926	;# 
  1209   000F57                     RXB1D1          equ	3927	;# 
  1210   000F58                     RXB1D2          equ	3928	;# 
  1211   000F59                     RXB1D3          equ	3929	;# 
  1212   000F5A                     RXB1D4          equ	3930	;# 
  1213   000F5B                     RXB1D5          equ	3931	;# 
  1214   000F5C                     RXB1D6          equ	3932	;# 
  1215   000F5D                     RXB1D7          equ	3933	;# 
  1216   000F5E                     CANSTAT_RO0     equ	3934	;# 
  1217   000F5F                     CANCON_RO0      equ	3935	;# 
  1218   000F60                     RXB0CON         equ	3936	;# 
  1219   000F61                     RXB0SIDH        equ	3937	;# 
  1220   000F62                     RXB0SIDL        equ	3938	;# 
  1221   000F63                     RXB0EIDH        equ	3939	;# 
  1222   000F64                     RXB0EIDL        equ	3940	;# 
  1223   000F65                     RXB0DLC         equ	3941	;# 
  1224   000F66                     RXB0D0          equ	3942	;# 
  1225   000F67                     RXB0D1          equ	3943	;# 
  1226   000F68                     RXB0D2          equ	3944	;# 
  1227   000F69                     RXB0D3          equ	3945	;# 
  1228   000F6A                     RXB0D4          equ	3946	;# 
  1229   000F6B                     RXB0D5          equ	3947	;# 
  1230   000F6C                     RXB0D6          equ	3948	;# 
  1231   000F6D                     RXB0D7          equ	3949	;# 
  1232   000F6E                     CANSTAT         equ	3950	;# 
  1233   000F6F                     CANCON          equ	3951	;# 
  1234   000F70                     BRGCON1         equ	3952	;# 
  1235   000F71                     BRGCON2         equ	3953	;# 
  1236   000F72                     BRGCON3         equ	3954	;# 
  1237   000F73                     CIOCON          equ	3955	;# 
  1238   000F74                     COMSTAT         equ	3956	;# 
  1239   000F75                     RXERRCNT        equ	3957	;# 
  1240   000F76                     TXERRCNT        equ	3958	;# 
  1241   000F77                     ECANCON         equ	3959	;# 
  1242   000F80                     PORTA           equ	3968	;# 
  1243   000F81                     PORTB           equ	3969	;# 
  1244   000F82                     PORTC           equ	3970	;# 
  1245   000F83                     PORTD           equ	3971	;# 
  1246   000F84                     PORTE           equ	3972	;# 
  1247   000F89                     LATA            equ	3977	;# 
  1248   000F8A                     LATB            equ	3978	;# 
  1249   000F8B                     LATC            equ	3979	;# 
  1250   000F8C                     LATD            equ	3980	;# 
  1251   000F8D                     LATE            equ	3981	;# 
  1252   000F92                     TRISA           equ	3986	;# 
  1253   000F92                     DDRA            equ	3986	;# 
  1254   000F93                     TRISB           equ	3987	;# 
  1255   000F93                     DDRB            equ	3987	;# 
  1256   000F94                     TRISC           equ	3988	;# 
  1257   000F94                     DDRC            equ	3988	;# 
  1258   000F95                     TRISD           equ	3989	;# 
  1259   000F95                     DDRD            equ	3989	;# 
  1260   000F96                     TRISE           equ	3990	;# 
  1261   000F96                     DDRE            equ	3990	;# 
  1262   000F9B                     OSCTUNE         equ	3995	;# 
  1263   000F9D                     PIE1            equ	3997	;# 
  1264   000F9E                     PIR1            equ	3998	;# 
  1265   000F9F                     IPR1            equ	3999	;# 
  1266   000FA0                     PIE2            equ	4000	;# 
  1267   000FA1                     PIR2            equ	4001	;# 
  1268   000FA2                     IPR2            equ	4002	;# 
  1269   000FA3                     PIE3            equ	4003	;# 
  1270   000FA4                     PIR3            equ	4004	;# 
  1271   000FA5                     IPR3            equ	4005	;# 
  1272   000FA6                     EECON1          equ	4006	;# 
  1273   000FA7                     EECON2          equ	4007	;# 
  1274   000FA8                     EEDATA          equ	4008	;# 
  1275   000FA9                     EEADR           equ	4009	;# 
  1276   000FAA                     EEADRH          equ	4010	;# 
  1277   000FAB                     RCSTA           equ	4011	;# 
  1278   000FAB                     RCSTA1          equ	4011	;# 
  1279   000FAC                     TXSTA           equ	4012	;# 
  1280   000FAC                     TXSTA1          equ	4012	;# 
  1281   000FAD                     TXREG           equ	4013	;# 
  1282   000FAD                     TXREG1          equ	4013	;# 
  1283   000FAE                     RCREG           equ	4014	;# 
  1284   000FAE                     RCREG1          equ	4014	;# 
  1285   000FAF                     SPBRG           equ	4015	;# 
  1286   000FAF                     SPBRG1          equ	4015	;# 
  1287   000FB0                     SPBRGH          equ	4016	;# 
  1288   000FB1                     T3CON           equ	4017	;# 
  1289   000FB2                     TMR3            equ	4018	;# 
  1290   000FB2                     TMR3L           equ	4018	;# 
  1291   000FB3                     TMR3H           equ	4019	;# 
  1292   000FB4                     CMCON           equ	4020	;# 
  1293   000FB5                     CVRCON          equ	4021	;# 
  1294   000FB6                     ECCP1AS         equ	4022	;# 
  1295   000FB7                     ECCP1DEL        equ	4023	;# 
  1296   000FB8                     BAUDCON         equ	4024	;# 
  1297   000FB8                     BAUDCTL         equ	4024	;# 
  1298   000FBA                     ECCP1CON        equ	4026	;# 
  1299   000FBB                     ECCPR1          equ	4027	;# 
  1300   000FBB                     ECCPR1L         equ	4027	;# 
  1301   000FBC                     ECCPR1H         equ	4028	;# 
  1302   000FBD                     CCP1CON         equ	4029	;# 
  1303   000FBE                     CCPR1           equ	4030	;# 
  1304   000FBE                     CCPR1L          equ	4030	;# 
  1305   000FBF                     CCPR1H          equ	4031	;# 
  1306   000FC0                     ADCON2          equ	4032	;# 
  1307   000FC1                     ADCON1          equ	4033	;# 
  1308   000FC2                     ADCON0          equ	4034	;# 
  1309   000FC3                     ADRES           equ	4035	;# 
  1310   000FC3                     ADRESL          equ	4035	;# 
  1311   000FC4                     ADRESH          equ	4036	;# 
  1312   000FC5                     SSPCON2         equ	4037	;# 
  1313   000FC6                     SSPCON1         equ	4038	;# 
  1314   000FC7                     SSPSTAT         equ	4039	;# 
  1315   000FC8                     SSPADD          equ	4040	;# 
  1316   000FC9                     SSPBUF          equ	4041	;# 
  1317   000FCA                     T2CON           equ	4042	;# 
  1318   000FCB                     PR2             equ	4043	;# 
  1319   000FCB                     MEMCON          equ	4043	;# 
  1320   000FCC                     TMR2            equ	4044	;# 
  1321   000FCD                     T1CON           equ	4045	;# 
  1322   000FCE                     TMR1            equ	4046	;# 
  1323   000FCE                     TMR1L           equ	4046	;# 
  1324   000FCF                     TMR1H           equ	4047	;# 
  1325   000FD0                     RCON            equ	4048	;# 
  1326   000FD1                     WDTCON          equ	4049	;# 
  1327   000FD2                     HLVDCON         equ	4050	;# 
  1328   000FD2                     LVDCON          equ	4050	;# 
  1329   000FD3                     OSCCON          equ	4051	;# 
  1330   000FD5                     T0CON           equ	4053	;# 
  1331   000FD6                     TMR0            equ	4054	;# 
  1332   000FD6                     TMR0L           equ	4054	;# 
  1333   000FD7                     TMR0H           equ	4055	;# 
  1334   000FD8                     STATUS          equ	4056	;# 
  1335   000FD9                     FSR2            equ	4057	;# 
  1336   000FD9                     FSR2L           equ	4057	;# 
  1337   000FDA                     FSR2H           equ	4058	;# 
  1338   000FDB                     PLUSW2          equ	4059	;# 
  1339   000FDC                     PREINC2         equ	4060	;# 
  1340   000FDD                     POSTDEC2        equ	4061	;# 
  1341   000FDE                     POSTINC2        equ	4062	;# 
  1342   000FDF                     INDF2           equ	4063	;# 
  1343   000FE0                     BSR             equ	4064	;# 
  1344   000FE1                     FSR1            equ	4065	;# 
  1345   000FE1                     FSR1L           equ	4065	;# 
  1346   000FE2                     FSR1H           equ	4066	;# 
  1347   000FE3                     PLUSW1          equ	4067	;# 
  1348   000FE4                     PREINC1         equ	4068	;# 
  1349   000FE5                     POSTDEC1        equ	4069	;# 
  1350   000FE6                     POSTINC1        equ	4070	;# 
  1351   000FE7                     INDF1           equ	4071	;# 
  1352   000FE8                     WREG            equ	4072	;# 
  1353   000FE9                     FSR0            equ	4073	;# 
  1354   000FE9                     FSR0L           equ	4073	;# 
  1355   000FEA                     FSR0H           equ	4074	;# 
  1356   000FEB                     PLUSW0          equ	4075	;# 
  1357   000FEC                     PREINC0         equ	4076	;# 
  1358   000FED                     POSTDEC0        equ	4077	;# 
  1359   000FEE                     POSTINC0        equ	4078	;# 
  1360   000FEF                     INDF0           equ	4079	;# 
  1361   000FF0                     INTCON3         equ	4080	;# 
  1362   000FF1                     INTCON2         equ	4081	;# 
  1363   000FF2                     INTCON          equ	4082	;# 
  1364   000FF3                     PROD            equ	4083	;# 
  1365   000FF3                     PRODL           equ	4083	;# 
  1366   000FF4                     PRODH           equ	4084	;# 
  1367   000FF5                     TABLAT          equ	4085	;# 
  1368   000FF6                     TBLPTR          equ	4086	;# 
  1369   000FF6                     TBLPTRL         equ	4086	;# 
  1370   000FF7                     TBLPTRH         equ	4087	;# 
  1371   000FF8                     TBLPTRU         equ	4088	;# 
  1372   000FF9                     PCLAT           equ	4089	;# 
  1373   000FF9                     PC              equ	4089	;# 
  1374   000FF9                     PCL             equ	4089	;# 
  1375   000FFA                     PCLATH          equ	4090	;# 
  1376   000FFB                     PCLATU          equ	4091	;# 
  1377   000FFC                     STKPTR          equ	4092	;# 
  1378   000FFD                     TOS             equ	4093	;# 
  1379   000FFD                     TOSL            equ	4093	;# 
  1380   000FFE                     TOSH            equ	4094	;# 
  1381   000FFF                     TOSU            equ	4095	;# 
  1382   000D60                     RXF6SIDH        equ	3424	;# 
  1383   000D61                     RXF6SIDL        equ	3425	;# 
  1384   000D62                     RXF6EIDH        equ	3426	;# 
  1385   000D63                     RXF6EIDL        equ	3427	;# 
  1386   000D64                     RXF7SIDH        equ	3428	;# 
  1387   000D65                     RXF7SIDL        equ	3429	;# 
  1388   000D66                     RXF7EIDH        equ	3430	;# 
  1389   000D67                     RXF7EIDL        equ	3431	;# 
  1390   000D68                     RXF8SIDH        equ	3432	;# 
  1391   000D69                     RXF8SIDL        equ	3433	;# 
  1392   000D6A                     RXF8EIDH        equ	3434	;# 
  1393   000D6B                     RXF8EIDL        equ	3435	;# 
  1394   000D70                     RXF9SIDH        equ	3440	;# 
  1395   000D71                     RXF9SIDL        equ	3441	;# 
  1396   000D72                     RXF9EIDH        equ	3442	;# 
  1397   000D73                     RXF9EIDL        equ	3443	;# 
  1398   000D74                     RXF10SIDH       equ	3444	;# 
  1399   000D75                     RXF10SIDL       equ	3445	;# 
  1400   000D76                     RXF10EIDH       equ	3446	;# 
  1401   000D77                     RXF10EIDL       equ	3447	;# 
  1402   000D78                     RXF11SIDH       equ	3448	;# 
  1403   000D79                     RXF11SIDL       equ	3449	;# 
  1404   000D7A                     RXF11EIDH       equ	3450	;# 
  1405   000D7B                     RXF11EIDL       equ	3451	;# 
  1406   000D80                     RXF12SIDH       equ	3456	;# 
  1407   000D81                     RXF12SIDL       equ	3457	;# 
  1408   000D82                     RXF12EIDH       equ	3458	;# 
  1409   000D83                     RXF12EIDL       equ	3459	;# 
  1410   000D84                     RXF13SIDH       equ	3460	;# 
  1411   000D85                     RXF13SIDL       equ	3461	;# 
  1412   000D86                     RXF13EIDH       equ	3462	;# 
  1413   000D87                     RXF13EIDL       equ	3463	;# 
  1414   000D88                     RXF14SIDH       equ	3464	;# 
  1415   000D89                     RXF14SIDL       equ	3465	;# 
  1416   000D8A                     RXF14EIDH       equ	3466	;# 
  1417   000D8B                     RXF14EIDL       equ	3467	;# 
  1418   000D90                     RXF15SIDH       equ	3472	;# 
  1419   000D91                     RXF15SIDL       equ	3473	;# 
  1420   000D92                     RXF15EIDH       equ	3474	;# 
  1421   000D93                     RXF15EIDL       equ	3475	;# 
  1422   000DD4                     RXFCON0         equ	3540	;# 
  1423   000DD5                     RXFCON1         equ	3541	;# 
  1424   000DD8                     SDFLC           equ	3544	;# 
  1425   000DE0                     RXFBCON0        equ	3552	;# 
  1426   000DE1                     RXFBCON1        equ	3553	;# 
  1427   000DE2                     RXFBCON2        equ	3554	;# 
  1428   000DE3                     RXFBCON3        equ	3555	;# 
  1429   000DE4                     RXFBCON4        equ	3556	;# 
  1430   000DE5                     RXFBCON5        equ	3557	;# 
  1431   000DE6                     RXFBCON6        equ	3558	;# 
  1432   000DE7                     RXFBCON7        equ	3559	;# 
  1433   000DF0                     MSEL0           equ	3568	;# 
  1434   000DF1                     MSEL1           equ	3569	;# 
  1435   000DF2                     MSEL2           equ	3570	;# 
  1436   000DF3                     MSEL3           equ	3571	;# 
  1437   000DF8                     BSEL0           equ	3576	;# 
  1438   000DFA                     BIE0            equ	3578	;# 
  1439   000DFC                     TXBIE           equ	3580	;# 
  1440   000E20                     B0CON           equ	3616	;# 
  1441   000E21                     B0SIDH          equ	3617	;# 
  1442   000E22                     B0SIDL          equ	3618	;# 
  1443   000E23                     B0EIDH          equ	3619	;# 
  1444   000E24                     B0EIDL          equ	3620	;# 
  1445   000E25                     B0DLC           equ	3621	;# 
  1446   000E26                     B0D0            equ	3622	;# 
  1447   000E27                     B0D1            equ	3623	;# 
  1448   000E28                     B0D2            equ	3624	;# 
  1449   000E29                     B0D3            equ	3625	;# 
  1450   000E2A                     B0D4            equ	3626	;# 
  1451   000E2B                     B0D5            equ	3627	;# 
  1452   000E2C                     B0D6            equ	3628	;# 
  1453   000E2D                     B0D7            equ	3629	;# 
  1454   000E2E                     CANSTAT_RO9     equ	3630	;# 
  1455   000E2F                     CANCON_RO9      equ	3631	;# 
  1456   000E30                     B1CON           equ	3632	;# 
  1457   000E31                     B1SIDH          equ	3633	;# 
  1458   000E32                     B1SIDL          equ	3634	;# 
  1459   000E33                     B1EIDH          equ	3635	;# 
  1460   000E34                     B1EIDL          equ	3636	;# 
  1461   000E35                     B1DLC           equ	3637	;# 
  1462   000E36                     B1D0            equ	3638	;# 
  1463   000E37                     B1D1            equ	3639	;# 
  1464   000E38                     B1D2            equ	3640	;# 
  1465   000E39                     B1D3            equ	3641	;# 
  1466   000E3A                     B1D4            equ	3642	;# 
  1467   000E3B                     B1D5            equ	3643	;# 
  1468   000E3C                     B1D6            equ	3644	;# 
  1469   000E3D                     B1D7            equ	3645	;# 
  1470   000E3E                     CANSTAT_RO8     equ	3646	;# 
  1471   000E3F                     CANCON_RO8      equ	3647	;# 
  1472   000E40                     B2CON           equ	3648	;# 
  1473   000E41                     B2SIDH          equ	3649	;# 
  1474   000E42                     B2SIDL          equ	3650	;# 
  1475   000E43                     B2EIDH          equ	3651	;# 
  1476   000E44                     B2EIDL          equ	3652	;# 
  1477   000E45                     B2DLC           equ	3653	;# 
  1478   000E46                     B2D0            equ	3654	;# 
  1479   000E47                     B2D1            equ	3655	;# 
  1480   000E48                     B2D2            equ	3656	;# 
  1481   000E49                     B2D3            equ	3657	;# 
  1482   000E4A                     B2D4            equ	3658	;# 
  1483   000E4B                     B2D5            equ	3659	;# 
  1484   000E4C                     B2D6            equ	3660	;# 
  1485   000E4D                     B2D7            equ	3661	;# 
  1486   000E4E                     CANSTAT_RO7     equ	3662	;# 
  1487   000E4F                     CANCON_RO7      equ	3663	;# 
  1488   000E50                     B3CON           equ	3664	;# 
  1489   000E51                     B3SIDH          equ	3665	;# 
  1490   000E52                     B3SIDL          equ	3666	;# 
  1491   000E53                     B3EIDH          equ	3667	;# 
  1492   000E54                     B3EIDL          equ	3668	;# 
  1493   000E55                     B3DLC           equ	3669	;# 
  1494   000E56                     B3D0            equ	3670	;# 
  1495   000E57                     B3D1            equ	3671	;# 
  1496   000E58                     B3D2            equ	3672	;# 
  1497   000E59                     B3D3            equ	3673	;# 
  1498   000E5A                     B3D4            equ	3674	;# 
  1499   000E5B                     B3D5            equ	3675	;# 
  1500   000E5C                     B3D6            equ	3676	;# 
  1501   000E5D                     B3D7            equ	3677	;# 
  1502   000E5E                     CANSTAT_RO6     equ	3678	;# 
  1503   000E5F                     CANCON_RO6      equ	3679	;# 
  1504   000E60                     B4CON           equ	3680	;# 
  1505   000E61                     B4SIDH          equ	3681	;# 
  1506   000E62                     B4SIDL          equ	3682	;# 
  1507   000E63                     B4EIDH          equ	3683	;# 
  1508   000E64                     B4EIDL          equ	3684	;# 
  1509   000E65                     B4DLC           equ	3685	;# 
  1510   000E66                     B4D0            equ	3686	;# 
  1511   000E67                     B4D1            equ	3687	;# 
  1512   000E68                     B4D2            equ	3688	;# 
  1513   000E69                     B4D3            equ	3689	;# 
  1514   000E6A                     B4D4            equ	3690	;# 
  1515   000E6B                     B4D5            equ	3691	;# 
  1516   000E6C                     B4D6            equ	3692	;# 
  1517   000E6D                     B4D7            equ	3693	;# 
  1518   000E6E                     CANSTAT_RO5     equ	3694	;# 
  1519   000E6F                     CANCON_RO5      equ	3695	;# 
  1520   000E70                     B5CON           equ	3696	;# 
  1521   000E71                     B5SIDH          equ	3697	;# 
  1522   000E72                     B5SIDL          equ	3698	;# 
  1523   000E73                     B5EIDH          equ	3699	;# 
  1524   000E74                     B5EIDL          equ	3700	;# 
  1525   000E75                     B5DLC           equ	3701	;# 
  1526   000E76                     B5D0            equ	3702	;# 
  1527   000E77                     B5D1            equ	3703	;# 
  1528   000E78                     B5D2            equ	3704	;# 
  1529   000E79                     B5D3            equ	3705	;# 
  1530   000E7A                     B5D4            equ	3706	;# 
  1531   000E7B                     B5D5            equ	3707	;# 
  1532   000E7C                     B5D6            equ	3708	;# 
  1533   000E7D                     B5D7            equ	3709	;# 
  1534   000E7E                     CANSTAT_RO4     equ	3710	;# 
  1535   000E7F                     CANCON_RO4      equ	3711	;# 
  1536   000F00                     RXF0SIDH        equ	3840	;# 
  1537   000F01                     RXF0SIDL        equ	3841	;# 
  1538   000F02                     RXF0EIDH        equ	3842	;# 
  1539   000F03                     RXF0EIDL        equ	3843	;# 
  1540   000F04                     RXF1SIDH        equ	3844	;# 
  1541   000F05                     RXF1SIDL        equ	3845	;# 
  1542   000F06                     RXF1EIDH        equ	3846	;# 
  1543   000F07                     RXF1EIDL        equ	3847	;# 
  1544   000F08                     RXF2SIDH        equ	3848	;# 
  1545   000F09                     RXF2SIDL        equ	3849	;# 
  1546   000F0A                     RXF2EIDH        equ	3850	;# 
  1547   000F0B                     RXF2EIDL        equ	3851	;# 
  1548   000F0C                     RXF3SIDH        equ	3852	;# 
  1549   000F0D                     RXF3SIDL        equ	3853	;# 
  1550   000F0E                     RXF3EIDH        equ	3854	;# 
  1551   000F0F                     RXF3EIDL        equ	3855	;# 
  1552   000F10                     RXF4SIDH        equ	3856	;# 
  1553   000F11                     RXF4SIDL        equ	3857	;# 
  1554   000F12                     RXF4EIDH        equ	3858	;# 
  1555   000F13                     RXF4EIDL        equ	3859	;# 
  1556   000F14                     RXF5SIDH        equ	3860	;# 
  1557   000F15                     RXF5SIDL        equ	3861	;# 
  1558   000F16                     RXF5EIDH        equ	3862	;# 
  1559   000F17                     RXF5EIDL        equ	3863	;# 
  1560   000F18                     RXM0SIDH        equ	3864	;# 
  1561   000F19                     RXM0SIDL        equ	3865	;# 
  1562   000F1A                     RXM0EIDH        equ	3866	;# 
  1563   000F1B                     RXM0EIDL        equ	3867	;# 
  1564   000F1C                     RXM1SIDH        equ	3868	;# 
  1565   000F1D                     RXM1SIDL        equ	3869	;# 
  1566   000F1E                     RXM1EIDH        equ	3870	;# 
  1567   000F1F                     RXM1EIDL        equ	3871	;# 
  1568   000F20                     TXB2CON         equ	3872	;# 
  1569   000F21                     TXB2SIDH        equ	3873	;# 
  1570   000F22                     TXB2SIDL        equ	3874	;# 
  1571   000F23                     TXB2EIDH        equ	3875	;# 
  1572   000F24                     TXB2EIDL        equ	3876	;# 
  1573   000F25                     TXB2DLC         equ	3877	;# 
  1574   000F26                     TXB2D0          equ	3878	;# 
  1575   000F27                     TXB2D1          equ	3879	;# 
  1576   000F28                     TXB2D2          equ	3880	;# 
  1577   000F29                     TXB2D3          equ	3881	;# 
  1578   000F2A                     TXB2D4          equ	3882	;# 
  1579   000F2B                     TXB2D5          equ	3883	;# 
  1580   000F2C                     TXB2D6          equ	3884	;# 
  1581   000F2D                     TXB2D7          equ	3885	;# 
  1582   000F2E                     CANSTAT_RO3     equ	3886	;# 
  1583   000F2F                     CANCON_RO3      equ	3887	;# 
  1584   000F30                     TXB1CON         equ	3888	;# 
  1585   000F31                     TXB1SIDH        equ	3889	;# 
  1586   000F32                     TXB1SIDL        equ	3890	;# 
  1587   000F33                     TXB1EIDH        equ	3891	;# 
  1588   000F34                     TXB1EIDL        equ	3892	;# 
  1589   000F35                     TXB1DLC         equ	3893	;# 
  1590   000F36                     TXB1D0          equ	3894	;# 
  1591   000F37                     TXB1D1          equ	3895	;# 
  1592   000F38                     TXB1D2          equ	3896	;# 
  1593   000F39                     TXB1D3          equ	3897	;# 
  1594   000F3A                     TXB1D4          equ	3898	;# 
  1595   000F3B                     TXB1D5          equ	3899	;# 
  1596   000F3C                     TXB1D6          equ	3900	;# 
  1597   000F3D                     TXB1D7          equ	3901	;# 
  1598   000F3E                     CANSTAT_RO2     equ	3902	;# 
  1599   000F3F                     CANCON_RO2      equ	3903	;# 
  1600   000F40                     TXB0CON         equ	3904	;# 
  1601   000F41                     TXB0SIDH        equ	3905	;# 
  1602   000F42                     TXB0SIDL        equ	3906	;# 
  1603   000F43                     TXB0EIDH        equ	3907	;# 
  1604   000F44                     TXB0EIDL        equ	3908	;# 
  1605   000F45                     TXB0DLC         equ	3909	;# 
  1606   000F46                     TXB0D0          equ	3910	;# 
  1607   000F47                     TXB0D1          equ	3911	;# 
  1608   000F48                     TXB0D2          equ	3912	;# 
  1609   000F49                     TXB0D3          equ	3913	;# 
  1610   000F4A                     TXB0D4          equ	3914	;# 
  1611   000F4B                     TXB0D5          equ	3915	;# 
  1612   000F4C                     TXB0D6          equ	3916	;# 
  1613   000F4D                     TXB0D7          equ	3917	;# 
  1614   000F4E                     CANSTAT_RO1     equ	3918	;# 
  1615   000F4F                     CANCON_RO1      equ	3919	;# 
  1616   000F50                     RXB1CON         equ	3920	;# 
  1617   000F51                     RXB1SIDH        equ	3921	;# 
  1618   000F52                     RXB1SIDL        equ	3922	;# 
  1619   000F53                     RXB1EIDH        equ	3923	;# 
  1620   000F54                     RXB1EIDL        equ	3924	;# 
  1621   000F55                     RXB1DLC         equ	3925	;# 
  1622   000F56                     RXB1D0          equ	3926	;# 
  1623   000F57                     RXB1D1          equ	3927	;# 
  1624   000F58                     RXB1D2          equ	3928	;# 
  1625   000F59                     RXB1D3          equ	3929	;# 
  1626   000F5A                     RXB1D4          equ	3930	;# 
  1627   000F5B                     RXB1D5          equ	3931	;# 
  1628   000F5C                     RXB1D6          equ	3932	;# 
  1629   000F5D                     RXB1D7          equ	3933	;# 
  1630   000F5E                     CANSTAT_RO0     equ	3934	;# 
  1631   000F5F                     CANCON_RO0      equ	3935	;# 
  1632   000F60                     RXB0CON         equ	3936	;# 
  1633   000F61                     RXB0SIDH        equ	3937	;# 
  1634   000F62                     RXB0SIDL        equ	3938	;# 
  1635   000F63                     RXB0EIDH        equ	3939	;# 
  1636   000F64                     RXB0EIDL        equ	3940	;# 
  1637   000F65                     RXB0DLC         equ	3941	;# 
  1638   000F66                     RXB0D0          equ	3942	;# 
  1639   000F67                     RXB0D1          equ	3943	;# 
  1640   000F68                     RXB0D2          equ	3944	;# 
  1641   000F69                     RXB0D3          equ	3945	;# 
  1642   000F6A                     RXB0D4          equ	3946	;# 
  1643   000F6B                     RXB0D5          equ	3947	;# 
  1644   000F6C                     RXB0D6          equ	3948	;# 
  1645   000F6D                     RXB0D7          equ	3949	;# 
  1646   000F6E                     CANSTAT         equ	3950	;# 
  1647   000F6F                     CANCON          equ	3951	;# 
  1648   000F70                     BRGCON1         equ	3952	;# 
  1649   000F71                     BRGCON2         equ	3953	;# 
  1650   000F72                     BRGCON3         equ	3954	;# 
  1651   000F73                     CIOCON          equ	3955	;# 
  1652   000F74                     COMSTAT         equ	3956	;# 
  1653   000F75                     RXERRCNT        equ	3957	;# 
  1654   000F76                     TXERRCNT        equ	3958	;# 
  1655   000F77                     ECANCON         equ	3959	;# 
  1656   000F80                     PORTA           equ	3968	;# 
  1657   000F81                     PORTB           equ	3969	;# 
  1658   000F82                     PORTC           equ	3970	;# 
  1659   000F83                     PORTD           equ	3971	;# 
  1660   000F84                     PORTE           equ	3972	;# 
  1661   000F89                     LATA            equ	3977	;# 
  1662   000F8A                     LATB            equ	3978	;# 
  1663   000F8B                     LATC            equ	3979	;# 
  1664   000F8C                     LATD            equ	3980	;# 
  1665   000F8D                     LATE            equ	3981	;# 
  1666   000F92                     TRISA           equ	3986	;# 
  1667   000F92                     DDRA            equ	3986	;# 
  1668   000F93                     TRISB           equ	3987	;# 
  1669   000F93                     DDRB            equ	3987	;# 
  1670   000F94                     TRISC           equ	3988	;# 
  1671   000F94                     DDRC            equ	3988	;# 
  1672   000F95                     TRISD           equ	3989	;# 
  1673   000F95                     DDRD            equ	3989	;# 
  1674   000F96                     TRISE           equ	3990	;# 
  1675   000F96                     DDRE            equ	3990	;# 
  1676   000F9B                     OSCTUNE         equ	3995	;# 
  1677   000F9D                     PIE1            equ	3997	;# 
  1678   000F9E                     PIR1            equ	3998	;# 
  1679   000F9F                     IPR1            equ	3999	;# 
  1680   000FA0                     PIE2            equ	4000	;# 
  1681   000FA1                     PIR2            equ	4001	;# 
  1682   000FA2                     IPR2            equ	4002	;# 
  1683   000FA3                     PIE3            equ	4003	;# 
  1684   000FA4                     PIR3            equ	4004	;# 
  1685   000FA5                     IPR3            equ	4005	;# 
  1686   000FA6                     EECON1          equ	4006	;# 
  1687   000FA7                     EECON2          equ	4007	;# 
  1688   000FA8                     EEDATA          equ	4008	;# 
  1689   000FA9                     EEADR           equ	4009	;# 
  1690   000FAA                     EEADRH          equ	4010	;# 
  1691   000FAB                     RCSTA           equ	4011	;# 
  1692   000FAB                     RCSTA1          equ	4011	;# 
  1693   000FAC                     TXSTA           equ	4012	;# 
  1694   000FAC                     TXSTA1          equ	4012	;# 
  1695   000FAD                     TXREG           equ	4013	;# 
  1696   000FAD                     TXREG1          equ	4013	;# 
  1697   000FAE                     RCREG           equ	4014	;# 
  1698   000FAE                     RCREG1          equ	4014	;# 
  1699   000FAF                     SPBRG           equ	4015	;# 
  1700   000FAF                     SPBRG1          equ	4015	;# 
  1701   000FB0                     SPBRGH          equ	4016	;# 
  1702   000FB1                     T3CON           equ	4017	;# 
  1703   000FB2                     TMR3            equ	4018	;# 
  1704   000FB2                     TMR3L           equ	4018	;# 
  1705   000FB3                     TMR3H           equ	4019	;# 
  1706   000FB4                     CMCON           equ	4020	;# 
  1707   000FB5                     CVRCON          equ	4021	;# 
  1708   000FB6                     ECCP1AS         equ	4022	;# 
  1709   000FB7                     ECCP1DEL        equ	4023	;# 
  1710   000FB8                     BAUDCON         equ	4024	;# 
  1711   000FB8                     BAUDCTL         equ	4024	;# 
  1712   000FBA                     ECCP1CON        equ	4026	;# 
  1713   000FBB                     ECCPR1          equ	4027	;# 
  1714   000FBB                     ECCPR1L         equ	4027	;# 
  1715   000FBC                     ECCPR1H         equ	4028	;# 
  1716   000FBD                     CCP1CON         equ	4029	;# 
  1717   000FBE                     CCPR1           equ	4030	;# 
  1718   000FBE                     CCPR1L          equ	4030	;# 
  1719   000FBF                     CCPR1H          equ	4031	;# 
  1720   000FC0                     ADCON2          equ	4032	;# 
  1721   000FC1                     ADCON1          equ	4033	;# 
  1722   000FC2                     ADCON0          equ	4034	;# 
  1723   000FC3                     ADRES           equ	4035	;# 
  1724   000FC3                     ADRESL          equ	4035	;# 
  1725   000FC4                     ADRESH          equ	4036	;# 
  1726   000FC5                     SSPCON2         equ	4037	;# 
  1727   000FC6                     SSPCON1         equ	4038	;# 
  1728   000FC7                     SSPSTAT         equ	4039	;# 
  1729   000FC8                     SSPADD          equ	4040	;# 
  1730   000FC9                     SSPBUF          equ	4041	;# 
  1731   000FCA                     T2CON           equ	4042	;# 
  1732   000FCB                     PR2             equ	4043	;# 
  1733   000FCB                     MEMCON          equ	4043	;# 
  1734   000FCC                     TMR2            equ	4044	;# 
  1735   000FCD                     T1CON           equ	4045	;# 
  1736   000FCE                     TMR1            equ	4046	;# 
  1737   000FCE                     TMR1L           equ	4046	;# 
  1738   000FCF                     TMR1H           equ	4047	;# 
  1739   000FD0                     RCON            equ	4048	;# 
  1740   000FD1                     WDTCON          equ	4049	;# 
  1741   000FD2                     HLVDCON         equ	4050	;# 
  1742   000FD2                     LVDCON          equ	4050	;# 
  1743   000FD3                     OSCCON          equ	4051	;# 
  1744   000FD5                     T0CON           equ	4053	;# 
  1745   000FD6                     TMR0            equ	4054	;# 
  1746   000FD6                     TMR0L           equ	4054	;# 
  1747   000FD7                     TMR0H           equ	4055	;# 
  1748   000FD8                     STATUS          equ	4056	;# 
  1749   000FD9                     FSR2            equ	4057	;# 
  1750   000FD9                     FSR2L           equ	4057	;# 
  1751   000FDA                     FSR2H           equ	4058	;# 
  1752   000FDB                     PLUSW2          equ	4059	;# 
  1753   000FDC                     PREINC2         equ	4060	;# 
  1754   000FDD                     POSTDEC2        equ	4061	;# 
  1755   000FDE                     POSTINC2        equ	4062	;# 
  1756   000FDF                     INDF2           equ	4063	;# 
  1757   000FE0                     BSR             equ	4064	;# 
  1758   000FE1                     FSR1            equ	4065	;# 
  1759   000FE1                     FSR1L           equ	4065	;# 
  1760   000FE2                     FSR1H           equ	4066	;# 
  1761   000FE3                     PLUSW1          equ	4067	;# 
  1762   000FE4                     PREINC1         equ	4068	;# 
  1763   000FE5                     POSTDEC1        equ	4069	;# 
  1764   000FE6                     POSTINC1        equ	4070	;# 
  1765   000FE7                     INDF1           equ	4071	;# 
  1766   000FE8                     WREG            equ	4072	;# 
  1767   000FE9                     FSR0            equ	4073	;# 
  1768   000FE9                     FSR0L           equ	4073	;# 
  1769   000FEA                     FSR0H           equ	4074	;# 
  1770   000FEB                     PLUSW0          equ	4075	;# 
  1771   000FEC                     PREINC0         equ	4076	;# 
  1772   000FED                     POSTDEC0        equ	4077	;# 
  1773   000FEE                     POSTINC0        equ	4078	;# 
  1774   000FEF                     INDF0           equ	4079	;# 
  1775   000FF0                     INTCON3         equ	4080	;# 
  1776   000FF1                     INTCON2         equ	4081	;# 
  1777   000FF2                     INTCON          equ	4082	;# 
  1778   000FF3                     PROD            equ	4083	;# 
  1779   000FF3                     PRODL           equ	4083	;# 
  1780   000FF4                     PRODH           equ	4084	;# 
  1781   000FF5                     TABLAT          equ	4085	;# 
  1782   000FF6                     TBLPTR          equ	4086	;# 
  1783   000FF6                     TBLPTRL         equ	4086	;# 
  1784   000FF7                     TBLPTRH         equ	4087	;# 
  1785   000FF8                     TBLPTRU         equ	4088	;# 
  1786   000FF9                     PCLAT           equ	4089	;# 
  1787   000FF9                     PC              equ	4089	;# 
  1788   000FF9                     PCL             equ	4089	;# 
  1789   000FFA                     PCLATH          equ	4090	;# 
  1790   000FFB                     PCLATU          equ	4091	;# 
  1791   000FFC                     STKPTR          equ	4092	;# 
  1792   000FFD                     TOS             equ	4093	;# 
  1793   000FFD                     TOSL            equ	4093	;# 
  1794   000FFE                     TOSH            equ	4094	;# 
  1795   000FFF                     TOSU            equ	4095	;# 
  1796                           
  1797                           	psect	idataBANK0
  1798   00496E                     __pidataBANK0:
  1799                           	callstack 0
  1800                           
  1801                           ;initializer for _backlight_status
  1802   00496E  08                 	db	8
  1803                           
  1804                           	psect	smallconst
  1805   001000                     __psmallconst:
  1806                           	callstack 0
  1807   001000  00                 	db	0
  1808   001001  9E26               	dw	40486
  1809   001003  3E78               	dw	15992
  1810   001005                     __end_of_Lg4:
  1811                           	callstack 0
  1812   001005  E9EE               	dw	59886
  1813   001007  3E91               	dw	16017
  1814   001009                     __end_of_Lg3:
  1815                           	callstack 0
  1816   001009  CE13               	dw	52755
  1817   00100B  3ECC               	dw	16076
  1818   00100D                     __end_of_Lg2:
  1819                           	callstack 0
  1820   00100D  AAAA               	dw	43690
  1821   00100F  3F2A               	dw	16170
  1822   001011                     __end_of_Lg1:
  1823                           	callstack 0
  1824   001011  F7D1               	dw	63441
  1825   001013  3717               	dw	14103
  1826   001015                     __end_of_ln2_lo:
  1827                           	callstack 0
  1828   001015  7180               	dw	29056
  1829   001017  3F31               	dw	16177
  1830   001019                     __end_of_ln2_hi:
  1831                           	callstack 0
  1832   000FC7                     _SSPSTATbits    set	4039
  1833   000F9E                     _PIR1bits       set	3998
  1834   000FC9                     _SSPBUF         set	4041
  1835   000FC5                     _SSPCON2bits    set	4037
  1836   000FC8                     _SSPADD         set	4040
  1837   000FC6                     _SSPCON1        set	4038
  1838   000F94                     _TRISCbits      set	3988
  1839   000FC5                     _SSPCON2        set	4037
  1840   000FC7                     _SSPSTAT        set	4039
  1841   000FC3                     _ADRESL         set	4035
  1842   000FC4                     _ADRESH         set	4036
  1843   000FC2                     _ADCON0         set	4034
  1844   000FC2                     _ADCON0bits     set	4034
  1845   000FC0                     _ADCON2         set	4032
  1846   000FC1                     _ADCON1         set	4033
  1847   000FD3                     _OSCCON         set	4051
  1848   001019                     STR_3:
  1849   001019  59                 	db	89	;'Y'
  1850   00101A  53                 	db	83	;'S'
  1851   00101B  53                 	db	83	;'S'
  1852   00101C  20                 	db	32
  1853   00101D  54                 	db	84	;'T'
  1854   00101E  65                 	db	101	;'e'
  1855   00101F  72                 	db	114	;'r'
  1856   001020  6D                 	db	109	;'m'
  1857   001021  6F                 	db	111	;'o'
  1858   001022  6D                 	db	109	;'m'
  1859   001023  65                 	db	101	;'e'
  1860   001024  74                 	db	116	;'t'
  1861   001025  72                 	db	114	;'r'
  1862   001026  6F                 	db	111	;'o'
  1863   001027  2E                 	db	46
  1864   001028  2E                 	db	46
  1865   001029  2E                 	db	46
  1866   00102A  00                 	db	0
  1867   00102B                     STR_6:
  1868   00102B  56                 	db	86	;'V'
  1869   00102C  65                 	db	101	;'e'
  1870   00102D  72                 	db	114	;'r'
  1871   00102E  69                 	db	105	;'i'
  1872   00102F  66                 	db	102	;'f'
  1873   001030  69                 	db	105	;'i'
  1874   001031  71                 	db	113	;'q'
  1875   001032  75                 	db	117	;'u'
  1876   001033  65                 	db	101	;'e'
  1877   001034  20                 	db	32
  1878   001035  63                 	db	99	;'c'
  1879   001036  6F                 	db	111	;'o'
  1880   001037  6E                 	db	110	;'n'
  1881   001038  65                 	db	101	;'e'
  1882   001039  78                 	db	120	;'x'
  1883   00103A  61                 	db	97	;'a'
  1884   00103B  6F                 	db	111	;'o'
  1885   00103C  00                 	db	0
  1886   00103D                     STR_5:
  1887   00103D  46                 	db	70	;'F'
  1888   00103E  61                 	db	97	;'a'
  1889   00103F  6C                 	db	108	;'l'
  1890   001040  68                 	db	104	;'h'
  1891   001041  61                 	db	97	;'a'
  1892   001042  20                 	db	32
  1893   001043  6E                 	db	110	;'n'
  1894   001044  6F                 	db	111	;'o'
  1895   001045  20                 	db	32
  1896   001046  73                 	db	115	;'s'
  1897   001047  65                 	db	101	;'e'
  1898   001048  6E                 	db	110	;'n'
  1899   001049  73                 	db	115	;'s'
  1900   00104A  6F                 	db	111	;'o'
  1901   00104B  72                 	db	114	;'r'
  1902   00104C  21                 	db	33
  1903   00104D  00                 	db	0
  1904   00104E                     STR_4:
  1905   00104E  49                 	db	73	;'I'
  1906   00104F  6E                 	db	110	;'n'
  1907   001050  69                 	db	105	;'i'
  1908   001051  63                 	db	99	;'c'
  1909   001052  69                 	db	105	;'i'
  1910   001053  61                 	db	97	;'a'
  1911   001054  6E                 	db	110	;'n'
  1912   001055  64                 	db	100	;'d'
  1913   001056  6F                 	db	111	;'o'
  1914   001057  20                 	db	32
  1915   001058  50                 	db	80	;'P'
  1916   001059  49                 	db	73	;'I'
  1917   00105A  43                 	db	67	;'C'
  1918   00105B  2E                 	db	46
  1919   00105C  2E                 	db	46
  1920   00105D  2E                 	db	46
  1921   00105E  00                 	db	0
  1922   00105F                     STR_9:
  1923   00105F  41                 	db	65	;'A'
  1924   001060  2D                 	db	45
  1925   001061  42                 	db	66	;'B'
  1926   001062  28                 	db	40
  1927   001063  56                 	db	86	;'V'
  1928   001064  29                 	db	41
  1929   001065  3A                 	db	58	;':'
  1930   001066  00                 	db	0
  1931   001067                     STR_7:
  1932   001067  54                 	db	84	;'T'
  1933   001068  65                 	db	101	;'e'
  1934   001069  6D                 	db	109	;'m'
  1935   00106A  70                 	db	112	;'p'
  1936   00106B  3A                 	db	58	;':'
  1937   00106C  20                 	db	32
  1938   00106D  00                 	db	0
  1939   00106E                     STR_2:
  1940   00106E  25                 	db	37
  1941   00106F  25                 	db	37
  1942   001070  30                 	db	48	;'0'
  1943   001071  25                 	db	37
  1944   001072  64                 	db	100	;'d'
  1945   001073  64                 	db	100	;'d'
  1946   001074  00                 	db	0
  1947   001075                     STR_8:
  1948   001075  20                 	db	32
  1949   001076  43                 	db	67	;'C'
  1950   001077  20                 	db	32
  1951   001078  20                 	db	32
  1952   001079  20                 	db	32
  1953   00107A  00                 	db	0
  1954   00107B                     STR_10:
  1955   00107B  20                 	db	32
  1956   00107C  56                 	db	86	;'V'
  1957   00107D  20                 	db	32
  1958   00107E  20                 	db	32
  1959   00107F  20                 	db	32
  1960   001080  00                 	db	0
  1961   001081                     STR_1:
  1962   001081  25                 	db	37
  1963   001082  64                 	db	100	;'d'
  1964   001083  2E                 	db	46
  1965   001084  00                 	db	0
  1966   001085  00                 	db	0	; dummy byte at the end
  1967   001000                     __smallconst    set	__psmallconst
  1968   001000                     __mediumconst   set	__psmallconst
  1969   000003                     __activetblptr  equ	3
  1970                           
  1971                           ; #config settings
  1972                           
  1973                           	psect	cinit
  1974   0047B0                     __pcinit:
  1975                           	callstack 0
  1976   0047B0                     start_initialization:
  1977                           	callstack 0
  1978   0047B0                     __initialization:
  1979                           	callstack 0
  1980                           
  1981                           ; Initialize objects allocated to BANK0 (1 bytes)
  1982                           ; load TBLPTR registers with __pidataBANK0
  1983   0047B0  0E6E               	movlw	low __pidataBANK0
  1984   0047B2  6EF6               	movwf	tblptrl,c
  1985   0047B4  0E49               	movlw	high __pidataBANK0
  1986   0047B6  6EF7               	movwf	tblptrh,c
  1987   0047B8  0E00               	movlw	low (__pidataBANK0 shr (0+16))
  1988   0047BA  6EF8               	movwf	tblptru,c
  1989   0047BC  0009               	tblrd		*+	;fetch initializer
  1990   0047BE  CFF5 F0FE          	movff	tablat,__pdataBANK0
  1991                           
  1992                           ; Clear objects allocated to BANK1 (36 bytes)
  1993   0047C2  EE01  F000         	lfsr	0,__pbssBANK1
  1994   0047C6  0E24               	movlw	36
  1995   0047C8                     clear_0:
  1996   0047C8  6AEE               	clrf	postinc0,c
  1997   0047CA  06E8               	decf	wreg,f,c
  1998   0047CC  E1FD               	bnz	clear_0
  1999                           
  2000                           ; Clear objects allocated to BANK0 (12 bytes)
  2001   0047CE  EE00  F0F2         	lfsr	0,__pbssBANK0
  2002   0047D2  0E0C               	movlw	12
  2003   0047D4                     clear_1:
  2004   0047D4  6AEE               	clrf	postinc0,c
  2005   0047D6  06E8               	decf	wreg,f,c
  2006   0047D8  E1FD               	bnz	clear_1
  2007                           
  2008                           ; Clear objects allocated to COMRAM (1 bytes)
  2009   0047DA  6A5F               	clrf	__pbssCOMRAM& (0+255),c
  2010   0047DC                     end_of_initialization:
  2011                           	callstack 0
  2012   0047DC                     __end_of__initialization:
  2013                           	callstack 0
  2014   0047DC  0100               	movlb	0
  2015   0047DE  EFBE  F00C         	goto	_main	;jump to C main() function
  2016                           
  2017                           	psect	bssCOMRAM
  2018   00005F                     __pbssCOMRAM:
  2019                           	callstack 0
  2020   00005F                     _flags:
  2021                           	callstack 0
  2022   00005F                     	ds	1
  2023                           
  2024                           	psect	bssBANK0
  2025   0000F2                     __pbssBANK0:
  2026                           	callstack 0
  2027   0000F2                     fabsf@F465:
  2028                           	callstack 0
  2029   0000F2                     	ds	4
  2030   0000F6                     _nout:
  2031                           	callstack 0
  2032   0000F6                     	ds	2
  2033   0000F8                     _width:
  2034                           	callstack 0
  2035   0000F8                     	ds	2
  2036   0000FA                     _prec:
  2037                           	callstack 0
  2038   0000FA                     	ds	2
  2039   0000FC                     _errno:
  2040                           	callstack 0
  2041   0000FC                     	ds	2
  2042                           
  2043                           	psect	dataBANK0
  2044   0000FE                     __pdataBANK0:
  2045                           	callstack 0
  2046   0000FE                     	ds	1
  2047                           
  2048                           	psect	bssBANK1
  2049   000100                     __pbssBANK1:
  2050                           	callstack 0
  2051   000100                     logf@F472:
  2052                           	callstack 0
  2053   000100                     	ds	4
  2054   000104                     _dbuf:
  2055                           	callstack 0
  2056   000104                     	ds	32
  2057                           
  2058                           	psect	cstackBANK0
  2059   000060                     __pcstackBANK0:
  2060                           	callstack 0
  2061   000060                     ftoa@format:
  2062                           	callstack 0
  2063   000060                     ??_logf:
  2064                           
  2065                           ; 1 bytes @ 0x0
  2066   000060                     	ds	6
  2067   000066                     logf@R:
  2068                           	callstack 0
  2069                           
  2070                           ; 4 bytes @ 0x6
  2071   000066                     	ds	4
  2072   00006A                     ftoa@fractionalAsInt:
  2073                           	callstack 0
  2074   00006A                     logf@t1:
  2075                           	callstack 0
  2076                           
  2077                           ; 4 bytes @ 0xA
  2078   00006A                     	ds	2
  2079   00006C                     _ftoa$1574:
  2080                           	callstack 0
  2081                           
  2082                           ; 1 bytes @ 0xC
  2083   00006C                     	ds	1
  2084   00006D                     ftoa@i:
  2085                           	callstack 0
  2086                           
  2087                           ; 2 bytes @ 0xD
  2088   00006D                     	ds	1
  2089   00006E                     logf@t2:
  2090                           	callstack 0
  2091                           
  2092                           ; 4 bytes @ 0xE
  2093   00006E                     	ds	1
  2094   00006F                     ftoa@integerPart:
  2095                           	callstack 0
  2096                           
  2097                           ; 2 bytes @ 0xF
  2098   00006F                     	ds	2
  2099   000071                     ftoa@fractionalPart:
  2100                           	callstack 0
  2101                           
  2102                           ; 4 bytes @ 0x11
  2103   000071                     	ds	1
  2104   000072                     _logf$1579:
  2105                           	callstack 0
  2106                           
  2107                           ; 4 bytes @ 0x12
  2108   000072                     	ds	4
  2109   000076                     _logf$1580:
  2110                           	callstack 0
  2111                           
  2112                           ; 4 bytes @ 0x16
  2113   000076                     	ds	4
  2114   00007A                     _logf$1581:
  2115                           	callstack 0
  2116                           
  2117                           ; 4 bytes @ 0x1A
  2118   00007A                     	ds	4
  2119   00007E                     _logf$1582:
  2120                           	callstack 0
  2121                           
  2122                           ; 4 bytes @ 0x1E
  2123   00007E                     	ds	4
  2124   000082                     logf@k:
  2125                           	callstack 0
  2126                           
  2127                           ; 2 bytes @ 0x22
  2128   000082                     	ds	2
  2129   000084                     logf@hfsq:
  2130                           	callstack 0
  2131                           
  2132                           ; 4 bytes @ 0x24
  2133   000084                     	ds	4
  2134   000088                     logf@dk:
  2135                           	callstack 0
  2136                           
  2137                           ; 4 bytes @ 0x28
  2138   000088                     	ds	4
  2139   00008C                     logf@s:
  2140                           	callstack 0
  2141                           
  2142                           ; 4 bytes @ 0x2C
  2143   00008C                     	ds	4
  2144   000090                     logf@z:
  2145                           	callstack 0
  2146                           
  2147                           ; 4 bytes @ 0x30
  2148   000090                     	ds	4
  2149   000094                     logf@w:
  2150                           	callstack 0
  2151                           
  2152                           ; 4 bytes @ 0x34
  2153   000094                     	ds	4
  2154   000098                     _logf$1578:
  2155                           	callstack 0
  2156                           
  2157                           ; 4 bytes @ 0x38
  2158   000098                     	ds	4
  2159   00009C                     logf@ux:
  2160                           	callstack 0
  2161                           
  2162                           ; 4 bytes @ 0x3C
  2163   00009C                     	ds	4
  2164   0000A0                     main@tempBuffer:
  2165                           	callstack 0
  2166                           
  2167                           ; 16 bytes @ 0x40
  2168   0000A0                     	ds	16
  2169   0000B0                     main@tensaoBuffer:
  2170                           	callstack 0
  2171                           
  2172                           ; 16 bytes @ 0x50
  2173   0000B0                     	ds	16
  2174   0000C0                     main@resistenciaNTC:
  2175                           	callstack 0
  2176                           
  2177                           ; 4 bytes @ 0x60
  2178   0000C0                     	ds	4
  2179   0000C4                     main@tempKelvin:
  2180                           	callstack 0
  2181                           
  2182                           ; 4 bytes @ 0x64
  2183   0000C4                     	ds	4
  2184   0000C8                     main@tempCelsius:
  2185                           	callstack 0
  2186                           
  2187                           ; 4 bytes @ 0x68
  2188   0000C8                     	ds	4
  2189   0000CC                     main@valorPonte:
  2190                           	callstack 0
  2191                           
  2192                           ; 4 bytes @ 0x6C
  2193   0000CC                     	ds	4
  2194   0000D0                     main@tensaoPonte:
  2195                           	callstack 0
  2196                           
  2197                           ; 4 bytes @ 0x70
  2198   0000D0                     	ds	4
  2199   0000D4                     _main$1575:
  2200                           	callstack 0
  2201                           
  2202                           ; 4 bytes @ 0x74
  2203   0000D4                     	ds	4
  2204   0000D8                     _main$1576:
  2205                           	callstack 0
  2206                           
  2207                           ; 4 bytes @ 0x78
  2208   0000D8                     	ds	4
  2209   0000DC                     _main$1577:
  2210                           	callstack 0
  2211                           
  2212                           ; 4 bytes @ 0x7C
  2213   0000DC                     	ds	4
  2214   0000E0                     main@leituraSensorSum:
  2215                           	callstack 0
  2216                           
  2217                           ; 4 bytes @ 0x80
  2218   0000E0                     	ds	4
  2219   0000E4                     main@leituraRefSum:
  2220                           	callstack 0
  2221                           
  2222                           ; 4 bytes @ 0x84
  2223   0000E4                     	ds	4
  2224   0000E8                     main@i:
  2225                           	callstack 0
  2226                           
  2227                           ; 2 bytes @ 0x88
  2228   0000E8                     	ds	2
  2229   0000EA                     main@leituraRefAvg:
  2230                           	callstack 0
  2231                           
  2232                           ; 2 bytes @ 0x8A
  2233   0000EA                     	ds	2
  2234   0000EC                     main@leituraSensorAvg:
  2235                           	callstack 0
  2236                           
  2237                           ; 2 bytes @ 0x8C
  2238   0000EC                     	ds	2
  2239   0000EE                     main@logNTC:
  2240                           	callstack 0
  2241                           
  2242                           ; 4 bytes @ 0x8E
  2243   0000EE                     	ds	4
  2244                           
  2245                           	psect	cstackCOMRAM
  2246   000001                     __pcstackCOMRAM:
  2247                           	callstack 0
  2248   000001                     ?_strlen:
  2249                           	callstack 0
  2250   000001                     ?_ADC_Read:
  2251                           	callstack 0
  2252   000001                     ?___awdiv:
  2253                           	callstack 0
  2254   000001                     ?___awmod:
  2255                           	callstack 0
  2256   000001                     ?___lwdiv:
  2257                           	callstack 0
  2258   000001                     ?___lwmod:
  2259                           	callstack 0
  2260   000001                     ?_read_prec_or_width:
  2261                           	callstack 0
  2262   000001                     ?_fabsf:
  2263                           	callstack 0
  2264   000001                     ?___aldiv:
  2265                           	callstack 0
  2266   000001                     ?___xxtofl:
  2267                           	callstack 0
  2268   000001                     read_prec_or_width@fmt:
  2269                           	callstack 0
  2270   000001                     ___awdiv@dividend:
  2271                           	callstack 0
  2272   000001                     ___awmod@dividend:
  2273                           	callstack 0
  2274   000001                     ___lwdiv@dividend:
  2275                           	callstack 0
  2276   000001                     ___lwmod@dividend:
  2277                           	callstack 0
  2278   000001                     fputc@c:
  2279                           	callstack 0
  2280   000001                     strlen@s:
  2281                           	callstack 0
  2282   000001                     ___aldiv@dividend:
  2283                           	callstack 0
  2284   000001                     ___xxtofl@val:
  2285                           	callstack 0
  2286   000001                     fabsf@x:
  2287                           	callstack 0
  2288   000001                     ??_I2C_Wait:
  2289   000001                     
  2290                           ; 1 bytes @ 0x0
  2291   000001                     	ds	1
  2292   000002                     I2C_Write@data:
  2293                           	callstack 0
  2294   000002                     read_prec_or_width@ap:
  2295                           	callstack 0
  2296   000002                     
  2297                           ; 1 bytes @ 0x1
  2298   000002                     	ds	1
  2299   000003                     LCD_Write_I2C@data:
  2300                           	callstack 0
  2301   000003                     fputc@fp:
  2302                           	callstack 0
  2303   000003                     ___awdiv@divisor:
  2304                           	callstack 0
  2305   000003                     ___awmod@divisor:
  2306                           	callstack 0
  2307   000003                     ___lwdiv@divisor:
  2308                           	callstack 0
  2309   000003                     ___lwmod@divisor:
  2310                           	callstack 0
  2311   000003                     strlen@a:
  2312                           	callstack 0
  2313   000003                     ??_ADC_Read:
  2314   000003                     ??_read_prec_or_width:
  2315                           
  2316                           ; 1 bytes @ 0x2
  2317   000003                     	ds	1
  2318   000004                     LCD_Pulse_EN@data:
  2319                           	callstack 0
  2320   000004                     ??_fputc:
  2321   000004                     
  2322                           ; 1 bytes @ 0x3
  2323   000004                     	ds	1
  2324   000005                     ADC_Read@channel:
  2325                           	callstack 0
  2326   000005                     LCD_Write_Nibble@rs:
  2327                           	callstack 0
  2328   000005                     ___awdiv@counter:
  2329                           	callstack 0
  2330   000005                     ___awmod@counter:
  2331                           	callstack 0
  2332   000005                     ___lwmod@counter:
  2333                           	callstack 0
  2334   000005                     read_prec_or_width@c:
  2335                           	callstack 0
  2336   000005                     ___lwdiv@quotient:
  2337                           	callstack 0
  2338   000005                     ___aldiv@divisor:
  2339                           	callstack 0
  2340   000005                     fabsf@u:
  2341                           	callstack 0
  2342   000005                     ??___xxtofl:
  2343                           
  2344                           ; 1 bytes @ 0x4
  2345   000005                     	ds	1
  2346   000006                     LCD_Write_Nibble@nibble:
  2347                           	callstack 0
  2348   000006                     ___awdiv@sign:
  2349                           	callstack 0
  2350   000006                     ___awmod@sign:
  2351                           	callstack 0
  2352   000006                     read_prec_or_width@n:
  2353                           	callstack 0
  2354   000006                     
  2355                           ; 1 bytes @ 0x5
  2356   000006                     	ds	1
  2357   000007                     ?_abs:
  2358                           	callstack 0
  2359   000007                     LCD_Write_Nibble@data:
  2360                           	callstack 0
  2361   000007                     ___lwdiv@counter:
  2362                           	callstack 0
  2363   000007                     ___awdiv@quotient:
  2364                           	callstack 0
  2365   000007                     abs@a:
  2366                           	callstack 0
  2367                           
  2368                           ; 2 bytes @ 0x6
  2369   000007                     	ds	1
  2370   000008                     LCD_SendCommand@cmd:
  2371                           	callstack 0
  2372   000008                     LCD_SendData@data:
  2373                           	callstack 0
  2374   000008                     
  2375                           ; 1 bytes @ 0x7
  2376   000008                     	ds	1
  2377   000009                     ?_ctoa:
  2378                           	callstack 0
  2379   000009                     ?___fltol:
  2380                           	callstack 0
  2381   000009                     LCD_SetCursor@row:
  2382                           	callstack 0
  2383   000009                     ___aldiv@counter:
  2384                           	callstack 0
  2385   000009                     ___xxtofl@sign:
  2386                           	callstack 0
  2387   000009                     ctoa@fp:
  2388                           	callstack 0
  2389   000009                     LCD_PrintString@str:
  2390                           	callstack 0
  2391   000009                     fputs@s:
  2392                           	callstack 0
  2393   000009                     ___fltol@f1:
  2394                           	callstack 0
  2395   000009                     ??_LCD_Init:
  2396   000009                     ??_LCD_Clear:
  2397   000009                     ??_abs:
  2398   000009                     
  2399                           ; 1 bytes @ 0x8
  2400   000009                     	ds	1
  2401   00000A                     LCD_SetCursor@address:
  2402                           	callstack 0
  2403   00000A                     ___aldiv@sign:
  2404                           	callstack 0
  2405   00000A                     ___xxtofl@exp:
  2406                           	callstack 0
  2407   00000A                     ctoa@c:
  2408                           	callstack 0
  2409   00000A                     
  2410                           ; 1 bytes @ 0x9
  2411   00000A                     	ds	1
  2412   00000B                     LCD_SetCursor@col:
  2413                           	callstack 0
  2414   00000B                     fputs@fp:
  2415                           	callstack 0
  2416   00000B                     ___aldiv@quotient:
  2417                           	callstack 0
  2418   00000B                     ___xxtofl@arg:
  2419                           	callstack 0
  2420   00000B                     ??_ctoa:
  2421                           
  2422                           ; 1 bytes @ 0xA
  2423   00000B                     	ds	1
  2424   00000C                     fputs@c:
  2425                           	callstack 0
  2426   00000C                     ctoa@l:
  2427                           	callstack 0
  2428   00000C                     
  2429                           ; 1 bytes @ 0xB
  2430   00000C                     	ds	1
  2431   00000D                     fputs@i:
  2432                           	callstack 0
  2433   00000D                     ??___fltol:
  2434                           
  2435                           ; 1 bytes @ 0xC
  2436   00000D                     	ds	1
  2437   00000E                     ctoa@w:
  2438                           	callstack 0
  2439                           
  2440                           ; 2 bytes @ 0xD
  2441   00000E                     	ds	1
  2442   00000F                     ?_pad:
  2443                           	callstack 0
  2444   00000F                     ?___flmul:
  2445                           	callstack 0
  2446   00000F                     pad@fp:
  2447                           	callstack 0
  2448   00000F                     ___flmul@b:
  2449                           	callstack 0
  2450                           
  2451                           ; 4 bytes @ 0xE
  2452   00000F                     	ds	1
  2453   000010                     pad@buf:
  2454                           	callstack 0
  2455                           
  2456                           ; 2 bytes @ 0xF
  2457   000010                     	ds	1
  2458   000011                     ___fltol@sign1:
  2459                           	callstack 0
  2460                           
  2461                           ; 1 bytes @ 0x10
  2462   000011                     	ds	1
  2463   000012                     ___fltol@exp1:
  2464                           	callstack 0
  2465   000012                     pad@p:
  2466                           	callstack 0
  2467                           
  2468                           ; 2 bytes @ 0x11
  2469   000012                     	ds	1
  2470   000013                     ___flmul@a:
  2471                           	callstack 0
  2472                           
  2473                           ; 4 bytes @ 0x12
  2474   000013                     	ds	1
  2475   000014                     ??_pad:
  2476                           
  2477                           ; 1 bytes @ 0x13
  2478   000014                     	ds	1
  2479   000015                     pad@i:
  2480                           	callstack 0
  2481                           
  2482                           ; 2 bytes @ 0x14
  2483   000015                     	ds	2
  2484   000017                     ?_dtoa:
  2485                           	callstack 0
  2486   000017                     ?_otoa:
  2487                           	callstack 0
  2488   000017                     ?_utoa:
  2489                           	callstack 0
  2490   000017                     ?_xtoa:
  2491                           	callstack 0
  2492   000017                     dtoa@fp:
  2493                           	callstack 0
  2494   000017                     otoa@fp:
  2495                           	callstack 0
  2496   000017                     utoa@fp:
  2497                           	callstack 0
  2498   000017                     xtoa@fp:
  2499                           	callstack 0
  2500   000017                     ??___flmul:
  2501                           
  2502                           ; 1 bytes @ 0x16
  2503   000017                     	ds	1
  2504   000018                     dtoa@d:
  2505                           	callstack 0
  2506   000018                     otoa@d:
  2507                           	callstack 0
  2508   000018                     utoa@d:
  2509                           	callstack 0
  2510   000018                     xtoa@d:
  2511                           	callstack 0
  2512                           
  2513                           ; 2 bytes @ 0x17
  2514   000018                     	ds	2
  2515   00001A                     xtoa@x:
  2516                           	callstack 0
  2517   00001A                     _dtoa$1231:
  2518                           	callstack 0
  2519   00001A                     utoa@p:
  2520                           	callstack 0
  2521   00001A                     ??_otoa:
  2522   00001A                     
  2523                           ; 1 bytes @ 0x19
  2524   00001A                     	ds	1
  2525   00001B                     ___flmul@sign:
  2526                           	callstack 0
  2527   00001B                     ??_xtoa:
  2528                           
  2529                           ; 1 bytes @ 0x1A
  2530   00001B                     	ds	1
  2531   00001C                     dtoa@p:
  2532                           	callstack 0
  2533   00001C                     otoa@p:
  2534                           	callstack 0
  2535   00001C                     utoa@w:
  2536                           	callstack 0
  2537   00001C                     ___flmul@grs:
  2538                           	callstack 0
  2539                           
  2540                           ; 4 bytes @ 0x1B
  2541   00001C                     	ds	2
  2542   00001E                     otoa@t:
  2543                           	callstack 0
  2544   00001E                     xtoa@a:
  2545                           	callstack 0
  2546   00001E                     dtoa@w:
  2547                           	callstack 0
  2548   00001E                     utoa@i:
  2549                           	callstack 0
  2550                           
  2551                           ; 2 bytes @ 0x1D
  2552   00001E                     	ds	1
  2553   00001F                     otoa@w:
  2554                           	callstack 0
  2555   00001F                     _xtoa$1256:
  2556                           	callstack 0
  2557                           
  2558                           ; 2 bytes @ 0x1E
  2559   00001F                     	ds	1
  2560   000020                     ___flmul@aexp:
  2561                           	callstack 0
  2562   000020                     dtoa@s:
  2563                           	callstack 0
  2564                           
  2565                           ; 1 bytes @ 0x1F
  2566   000020                     	ds	1
  2567   000021                     ___flmul@bexp:
  2568                           	callstack 0
  2569   000021                     dtoa@i:
  2570                           	callstack 0
  2571   000021                     otoa@i:
  2572                           	callstack 0
  2573   000021                     xtoa@p:
  2574                           	callstack 0
  2575                           
  2576                           ; 2 bytes @ 0x20
  2577   000021                     	ds	1
  2578   000022                     ___flmul@prod:
  2579                           	callstack 0
  2580                           
  2581                           ; 4 bytes @ 0x21
  2582   000022                     	ds	1
  2583   000023                     xtoa@d_nonzero:
  2584                           	callstack 0
  2585                           
  2586                           ; 1 bytes @ 0x22
  2587   000023                     	ds	1
  2588   000024                     xtoa@w:
  2589                           	callstack 0
  2590                           
  2591                           ; 2 bytes @ 0x23
  2592   000024                     	ds	2
  2593   000026                     xtoa@c:
  2594                           	callstack 0
  2595   000026                     ___flmul@temp:
  2596                           	callstack 0
  2597                           
  2598                           ; 2 bytes @ 0x25
  2599   000026                     	ds	1
  2600   000027                     xtoa@i:
  2601                           	callstack 0
  2602                           
  2603                           ; 2 bytes @ 0x26
  2604   000027                     	ds	1
  2605   000028                     ?___fladd:
  2606                           	callstack 0
  2607   000028                     ___fladd@b:
  2608                           	callstack 0
  2609                           
  2610                           ; 4 bytes @ 0x27
  2611   000028                     	ds	1
  2612   000029                     ?_vfpfcnvrt:
  2613                           	callstack 0
  2614   000029                     vfpfcnvrt@fp:
  2615                           	callstack 0
  2616                           
  2617                           ; 1 bytes @ 0x28
  2618   000029                     	ds	1
  2619   00002A                     vfpfcnvrt@fmt:
  2620                           	callstack 0
  2621                           
  2622                           ; 1 bytes @ 0x29
  2623   00002A                     	ds	1
  2624   00002B                     vfpfcnvrt@ap:
  2625                           	callstack 0
  2626                           
  2627                           ; 2 bytes @ 0x2A
  2628   00002B                     	ds	1
  2629   00002C                     ___fladd@a:
  2630                           	callstack 0
  2631                           
  2632                           ; 4 bytes @ 0x2B
  2633   00002C                     	ds	1
  2634   00002D                     ??_vfpfcnvrt:
  2635                           
  2636                           ; 1 bytes @ 0x2C
  2637   00002D                     	ds	3
  2638   000030                     vfpfcnvrt@done:
  2639                           	callstack 0
  2640   000030                     ??___fladd:
  2641                           
  2642                           ; 1 bytes @ 0x2F
  2643   000030                     	ds	1
  2644   000031                     vfpfcnvrt@c:
  2645                           	callstack 0
  2646                           
  2647                           ; 1 bytes @ 0x30
  2648   000031                     	ds	1
  2649   000032                     vfpfcnvrt@convarg:
  2650                           	callstack 0
  2651                           
  2652                           ; 4 bytes @ 0x31
  2653   000032                     	ds	2
  2654   000034                     ___fladd@signs:
  2655                           	callstack 0
  2656                           
  2657                           ; 1 bytes @ 0x33
  2658   000034                     	ds	1
  2659   000035                     ___fladd@aexp:
  2660                           	callstack 0
  2661                           
  2662                           ; 1 bytes @ 0x34
  2663   000035                     	ds	1
  2664   000036                     ___fladd@bexp:
  2665                           	callstack 0
  2666   000036                     vfpfcnvrt@cp:
  2667                           	callstack 0
  2668                           
  2669                           ; 2 bytes @ 0x35
  2670   000036                     	ds	1
  2671   000037                     ___fladd@grs:
  2672                           	callstack 0
  2673                           
  2674                           ; 1 bytes @ 0x36
  2675   000037                     	ds	1
  2676   000038                     ?_vfprintf:
  2677                           	callstack 0
  2678   000038                     ?___flsub:
  2679                           	callstack 0
  2680   000038                     vfprintf@fp:
  2681                           	callstack 0
  2682   000038                     ___flsub@b:
  2683                           	callstack 0
  2684                           
  2685                           ; 4 bytes @ 0x37
  2686   000038                     	ds	1
  2687   000039                     vfprintf@fmt:
  2688                           	callstack 0
  2689                           
  2690                           ; 2 bytes @ 0x38
  2691   000039                     	ds	2
  2692   00003B                     vfprintf@ap:
  2693                           	callstack 0
  2694                           
  2695                           ; 1 bytes @ 0x3A
  2696   00003B                     	ds	1
  2697   00003C                     vfprintf@cfmt:
  2698                           	callstack 0
  2699   00003C                     ___flsub@a:
  2700                           	callstack 0
  2701   00003C                     
  2702                           ; 1 bytes @ 0x3B
  2703   00003C                     	ds	2
  2704   00003E                     ?_sprintf:
  2705                           	callstack 0
  2706   00003E                     sprintf@s:
  2707                           	callstack 0
  2708                           
  2709                           ; 1 bytes @ 0x3D
  2710   00003E                     	ds	1
  2711   00003F                     sprintf@fmt:
  2712                           	callstack 0
  2713                           
  2714                           ; 2 bytes @ 0x3E
  2715   00003F                     	ds	1
  2716   000040                     ?___fldiv:
  2717                           	callstack 0
  2718   000040                     ___flge@ff1:
  2719                           	callstack 0
  2720   000040                     ___fldiv@b:
  2721                           	callstack 0
  2722   000040                     
  2723                           ; 1 bytes @ 0x3F
  2724   000040                     	ds	3
  2725   000043                     sprintf@f:
  2726                           	callstack 0
  2727   000043                     
  2728                           ; 1 bytes @ 0x42
  2729   000043                     	ds	1
  2730   000044                     ___flge@ff2:
  2731                           	callstack 0
  2732   000044                     ___fldiv@a:
  2733                           	callstack 0
  2734                           
  2735                           ; 4 bytes @ 0x43
  2736   000044                     	ds	4
  2737   000048                     ??___fldiv:
  2738   000048                     ??___flge:
  2739                           
  2740                           ; 1 bytes @ 0x47
  2741   000048                     	ds	4
  2742   00004C                     ___fldiv@rem:
  2743                           	callstack 0
  2744                           
  2745                           ; 4 bytes @ 0x4B
  2746   00004C                     	ds	2
  2747   00004E                     sprintf@ap:
  2748                           	callstack 0
  2749                           
  2750                           ; 1 bytes @ 0x4D
  2751   00004E                     	ds	1
  2752   00004F                     ftoa@f:
  2753                           	callstack 0
  2754                           
  2755                           ; 4 bytes @ 0x4E
  2756   00004F                     	ds	1
  2757   000050                     ___fldiv@sign:
  2758                           	callstack 0
  2759                           
  2760                           ; 1 bytes @ 0x4F
  2761   000050                     	ds	1
  2762   000051                     ___fldiv@new_exp:
  2763                           	callstack 0
  2764                           
  2765                           ; 2 bytes @ 0x50
  2766   000051                     	ds	2
  2767   000053                     ftoa@buffer:
  2768                           	callstack 0
  2769   000053                     ___fldiv@grs:
  2770                           	callstack 0
  2771                           
  2772                           ; 4 bytes @ 0x52
  2773   000053                     	ds	1
  2774   000054                     ftoa@precision:
  2775                           	callstack 0
  2776                           
  2777                           ; 2 bytes @ 0x53
  2778   000054                     	ds	2
  2779   000056                     ??_ftoa:
  2780                           
  2781                           ; 1 bytes @ 0x55
  2782   000056                     	ds	1
  2783   000057                     ___fldiv@bexp:
  2784                           	callstack 0
  2785                           
  2786                           ; 1 bytes @ 0x56
  2787   000057                     	ds	1
  2788   000058                     ___fldiv@aexp:
  2789                           	callstack 0
  2790                           
  2791                           ; 1 bytes @ 0x57
  2792   000058                     	ds	1
  2793   000059                     ?_logf:
  2794                           	callstack 0
  2795   000059                     logf@x:
  2796                           	callstack 0
  2797                           
  2798                           ; 4 bytes @ 0x58
  2799   000059                     	ds	4
  2800   00005D                     ??_main:
  2801                           
  2802                           ; 1 bytes @ 0x5C
  2803   00005D                     	ds	2
  2804                           
  2805 ;;
  2806 ;;Main: autosize = 0, tempsize = 2, incstack = 0, save=0
  2807 ;;
  2808 ;; *************** function _main *****************
  2809 ;; Defined at:
  2810 ;;		line 112 in file "main.c"
  2811 ;; Parameters:    Size  Location     Type
  2812 ;;		None
  2813 ;; Auto vars:     Size  Location     Type
  2814 ;;  i               2  136[BANK0 ] int 
  2815 ;;  tensaoBuffer   16   80[BANK0 ] unsigned char [16]
  2816 ;;  tempBuffer     16   64[BANK0 ] unsigned char [16]
  2817 ;;  logNTC          4  142[BANK0 ] float 
  2818 ;;  leituraRefSu    4  132[BANK0 ] long 
  2819 ;;  leituraSenso    4  128[BANK0 ] long 
  2820 ;;  tensaoPonte     4  112[BANK0 ] float 
  2821 ;;  valorPonte      4  108[BANK0 ] long 
  2822 ;;  tempCelsius     4  104[BANK0 ] float 
  2823 ;;  tempKelvin      4  100[BANK0 ] float 
  2824 ;;  resistenciaN    4   96[BANK0 ] float 
  2825 ;;  leituraSenso    2  140[BANK0 ] int 
  2826 ;;  leituraRefAv    2  138[BANK0 ] int 
  2827 ;; Return value:  Size  Location     Type
  2828 ;;                  2   35[None  ] int 
  2829 ;; Registers used:
  2830 ;;		wreg, fsr1l, fsr1h, fsr2l, fsr2h, status,2, status,0, tblptrl, tblptrh, tblptru, prodl, prodh, cstack
  2831 ;; Tracked objects:
  2832 ;;		On entry : 0/0
  2833 ;;		On exit  : 0/0
  2834 ;;		Unchanged: 0/0
  2835 ;; Data sizes:     COMRAM   BANK0   BANK1   BANK2   BANK3   BANK4   BANK5   BANK6   BANK7   BANK8   BANK9  BANK10  BANK1
      +1  BANK12
  2836 ;;      Params:         0       0       0       0       0       0       0       0       0       0       0       0       
      +0       0
  2837 ;;      Locals:         0      82       0       0       0       0       0       0       0       0       0       0       
      +0       0
  2838 ;;      Temps:          2       0       0       0       0       0       0       0       0       0       0       0       
      +0       0
  2839 ;;      Totals:         2      82       0       0       0       0       0       0       0       0       0       0       
      +0       0
  2840 ;;Total ram usage:       84 bytes
  2841 ;; Hardware stack levels required when called: 8
  2842 ;; This function calls:
  2843 ;;		_ADC_Init
  2844 ;;		_ADC_Read
  2845 ;;		_LCD_Clear
  2846 ;;		_LCD_Init
  2847 ;;		_LCD_PrintString
  2848 ;;		_LCD_SetCursor
  2849 ;;		___aldiv
  2850 ;;		___fladd
  2851 ;;		___fldiv
  2852 ;;		___flge
  2853 ;;		___flmul
  2854 ;;		___flsub
  2855 ;;		___xxtofl
  2856 ;;		_ftoa
  2857 ;;		_logf
  2858 ;; This function is called by:
  2859 ;;		Startup code after reset
  2860 ;; This function uses a non-reentrant model
  2861 ;;
  2862                           
  2863                           	psect	text0
  2864   00197C                     __ptext0:
  2865                           	callstack 0
  2866   00197C                     _main:
  2867                           	callstack 23
  2868   00197C                     
  2869                           ;main.c: 115:     OSCCON = 0x70;
  2870   00197C  0E70               	movlw	112
  2871   00197E  6ED3               	movwf	211,c	;volatile
  2872   001980                     
  2873                           ;main.c: 118:     ADC_Init();
  2874   001980  ECB0  F024         	call	_ADC_Init	;wreg free
  2875   001984                     
  2876                           ;main.c: 119:     LCD_Init();
  2877   001984  ECEF  F021         	call	_LCD_Init	;wreg free
  2878   001988                     
  2879                           ;main.c: 121:     LCD_PrintString("YSS Termometro...");
  2880   001988  0E19               	movlw	low STR_3
  2881   00198A  6E09               	movwf	LCD_PrintString@str^0,c
  2882   00198C  5009               	movf	LCD_PrintString@str^0,w,c
  2883   00198E  A4D8               	btfss	status,2,c
  2884   001990  0E10               	movlw	high __smallconst
  2885   001992  6E0A               	movwf	(LCD_PrintString@str+1)^0,c
  2886   001994  ECDB  F022         	call	_LCD_PrintString	;wreg free
  2887   001998                     
  2888                           ;main.c: 122:     LCD_SetCursor(0, 1);
  2889   001998  0E01               	movlw	1
  2890   00199A  6E09               	movwf	LCD_SetCursor@row^0,c
  2891   00199C  0E00               	movlw	0
  2892   00199E  EC23  F024         	call	_LCD_SetCursor
  2893   0019A2                     
  2894                           ;main.c: 123:     LCD_PrintString("Iniciando PIC...");
  2895   0019A2  0E4E               	movlw	low STR_4
  2896   0019A4  6E09               	movwf	LCD_PrintString@str^0,c
  2897   0019A6  5009               	movf	LCD_PrintString@str^0,w,c
  2898   0019A8  A4D8               	btfss	status,2,c
  2899   0019AA  0E10               	movlw	high __smallconst
  2900   0019AC  6E0A               	movwf	(LCD_PrintString@str+1)^0,c
  2901   0019AE  ECDB  F022         	call	_LCD_PrintString	;wreg free
  2902   0019B2                     
  2903                           ;main.c: 124:     _delay((unsigned long)((500)*(8000000/4000.0)));
  2904   0019B2  0E06               	movlw	6
  2905   0019B4  6E5E               	movwf	(??_main+1)^0,c
  2906   0019B6  0E13               	movlw	19
  2907   0019B8  6E5D               	movwf	??_main^0,c
  2908   0019BA  0EAE               	movlw	174
  2909   0019BC                     u6177:
  2910   0019BC  2EE8               	decfsz	wreg,f,c
  2911   0019BE  D7FE               	bra	u6177
  2912   0019C0  2E5D               	decfsz	??_main^0,f,c
  2913   0019C2  D7FC               	bra	u6177
  2914   0019C4  2E5E               	decfsz	(??_main+1)^0,f,c
  2915   0019C6  D7FA               	bra	u6177
  2916   0019C8                     
  2917                           ;main.c: 125:     LCD_Clear();
  2918   0019C8  EC78  F024         	call	_LCD_Clear	;wreg free
  2919   0019CC                     l4961:
  2920                           
  2921                           ;main.c: 129:         long leituraSensorSum = 0;
  2922   0019CC  0E00               	movlw	0
  2923   0019CE  0100               	movlb	0	; () banked
  2924   0019D0  6FE0               	movwf	main@leituraSensorSum& (0+255),b
  2925   0019D2  0E00               	movlw	0
  2926   0019D4  6FE1               	movwf	(main@leituraSensorSum+1)& (0+255),b
  2927   0019D6  0E00               	movlw	0
  2928   0019D8  6FE2               	movwf	(main@leituraSensorSum+2)& (0+255),b
  2929   0019DA  0E00               	movlw	0
  2930   0019DC  6FE3               	movwf	(main@leituraSensorSum+3)& (0+255),b
  2931   0019DE                     
  2932                           ; BSR set to: 0
  2933                           ;main.c: 130:         long leituraRefSum = 0;
  2934   0019DE  0E00               	movlw	0
  2935   0019E0  6FE4               	movwf	main@leituraRefSum& (0+255),b
  2936   0019E2  0E00               	movlw	0
  2937   0019E4  6FE5               	movwf	(main@leituraRefSum+1)& (0+255),b
  2938   0019E6  0E00               	movlw	0
  2939   0019E8  6FE6               	movwf	(main@leituraRefSum+2)& (0+255),b
  2940   0019EA  0E00               	movlw	0
  2941   0019EC  6FE7               	movwf	(main@leituraRefSum+3)& (0+255),b
  2942   0019EE                     
  2943                           ; BSR set to: 0
  2944                           ;main.c: 131:         int leituraSensorAvg;;main.c: 132:         int leituraRefAvg;;main
      +                          .c: 133:         float resistenciaNTC;;main.c: 134:         float tempKelvin;;main.c: 13
      +                          5:         float tempCelsius;;main.c: 137:         char tempBuffer[16];;main.c: 138:    
      +                               char tensaoBuffer[16];;main.c: 141:         for (int i = 0; i < 10; i++) {
  2945   0019EE  6BE9               	clrf	(main@i+1)& (0+255),b
  2946   0019F0  0E00               	movlw	0
  2947   0019F2  6FE8               	movwf	main@i& (0+255),b
  2948   0019F4                     l4971:
  2949                           
  2950                           ; BSR set to: 0
  2951                           ;main.c: 142:             leituraSensorSum += ADC_Read(0);
  2952   0019F4  0E00               	movlw	0
  2953   0019F6  EC2F  F023         	call	_ADC_Read
  2954   0019FA  5001               	movf	?_ADC_Read^0,w,c
  2955   0019FC  0100               	movlb	0	; () banked
  2956   0019FE  27E0               	addwf	main@leituraSensorSum& (0+255),f,b
  2957   001A00  5002               	movf	(?_ADC_Read+1)^0,w,c
  2958   001A02  23E1               	addwfc	(main@leituraSensorSum+1)& (0+255),f,b
  2959   001A04  0E00               	movlw	0
  2960   001A06  23E2               	addwfc	(main@leituraSensorSum+2)& (0+255),f,b
  2961   001A08  0E00               	movlw	0
  2962   001A0A  23E3               	addwfc	(main@leituraSensorSum+3)& (0+255),f,b
  2963                           
  2964                           ;main.c: 143:             leituraRefSum += ADC_Read(1);
  2965   001A0C  0E01               	movlw	1
  2966   001A0E  EC2F  F023         	call	_ADC_Read
  2967   001A12  5001               	movf	?_ADC_Read^0,w,c
  2968   001A14  0100               	movlb	0	; () banked
  2969   001A16  27E4               	addwf	main@leituraRefSum& (0+255),f,b
  2970   001A18  5002               	movf	(?_ADC_Read+1)^0,w,c
  2971   001A1A  23E5               	addwfc	(main@leituraRefSum+1)& (0+255),f,b
  2972   001A1C  0E00               	movlw	0
  2973   001A1E  23E6               	addwfc	(main@leituraRefSum+2)& (0+255),f,b
  2974   001A20  0E00               	movlw	0
  2975   001A22  23E7               	addwfc	(main@leituraRefSum+3)& (0+255),f,b
  2976   001A24                     
  2977                           ; BSR set to: 0
  2978                           ;main.c: 144:             _delay((unsigned long)((2)*(8000000/4000.0)));
  2979   001A24  0E06               	movlw	6
  2980   001A26  6E5D               	movwf	??_main^0,c
  2981   001A28  0E30               	movlw	48
  2982   001A2A                     u6187:
  2983   001A2A  2EE8               	decfsz	wreg,f,c
  2984   001A2C  D7FE               	bra	u6187
  2985   001A2E  2E5D               	decfsz	??_main^0,f,c
  2986   001A30  D7FC               	bra	u6187
  2987   001A32  D000               	nop2	
  2988   001A34                     
  2989                           ;main.c: 145:         }
  2990   001A34  0100               	movlb	0	; () banked
  2991   001A36  4BE8               	infsnz	main@i& (0+255),f,b
  2992   001A38  2BE9               	incf	(main@i+1)& (0+255),f,b
  2993   001A3A                     
  2994                           ; BSR set to: 0
  2995   001A3A  BFE9               	btfsc	(main@i+1)& (0+255),7,b
  2996   001A3C  EF29  F00D         	goto	u6111
  2997   001A40  51E9               	movf	(main@i+1)& (0+255),w,b
  2998   001A42  E109               	bnz	u6110
  2999   001A44  0E0A               	movlw	10
  3000   001A46  5DE8               	subwf	main@i& (0+255),w,b
  3001   001A48  A0D8               	btfss	status,0,c
  3002   001A4A  EF29  F00D         	goto	u6111
  3003   001A4E  EF2B  F00D         	goto	u6110
  3004   001A52                     u6111:
  3005   001A52  EFFA  F00C         	goto	l4971
  3006   001A56                     u6110:
  3007   001A56                     
  3008                           ; BSR set to: 0
  3009                           ;main.c: 146:         leituraSensorAvg = leituraSensorSum / 10;
  3010   001A56  C0E0  F001         	movff	main@leituraSensorSum,___aldiv@dividend
  3011   001A5A  C0E1  F002         	movff	main@leituraSensorSum+1,___aldiv@dividend+1
  3012   001A5E  C0E2  F003         	movff	main@leituraSensorSum+2,___aldiv@dividend+2
  3013   001A62  C0E3  F004         	movff	main@leituraSensorSum+3,___aldiv@dividend+3
  3014   001A66  0E0A               	movlw	10
  3015   001A68  6E05               	movwf	___aldiv@divisor^0,c
  3016   001A6A  0E00               	movlw	0
  3017   001A6C  6E06               	movwf	(___aldiv@divisor+1)^0,c
  3018   001A6E  0E00               	movlw	0
  3019   001A70  6E07               	movwf	(___aldiv@divisor+2)^0,c
  3020   001A72  0E00               	movlw	0
  3021   001A74  6E08               	movwf	(___aldiv@divisor+3)^0,c
  3022   001A76  EC32  F01E         	call	___aldiv	;wreg free
  3023   001A7A  C001  F0EC         	movff	?___aldiv,main@leituraSensorAvg
  3024   001A7E  C002  F0ED         	movff	?___aldiv+1,main@leituraSensorAvg+1
  3025                           
  3026                           ;main.c: 147:         leituraRefAvg = leituraRefSum / 10;
  3027   001A82  C0E4  F001         	movff	main@leituraRefSum,___aldiv@dividend
  3028   001A86  C0E5  F002         	movff	main@leituraRefSum+1,___aldiv@dividend+1
  3029   001A8A  C0E6  F003         	movff	main@leituraRefSum+2,___aldiv@dividend+2
  3030   001A8E  C0E7  F004         	movff	main@leituraRefSum+3,___aldiv@dividend+3
  3031   001A92  0E0A               	movlw	10
  3032   001A94  6E05               	movwf	___aldiv@divisor^0,c
  3033   001A96  0E00               	movlw	0
  3034   001A98  6E06               	movwf	(___aldiv@divisor+1)^0,c
  3035   001A9A  0E00               	movlw	0
  3036   001A9C  6E07               	movwf	(___aldiv@divisor+2)^0,c
  3037   001A9E  0E00               	movlw	0
  3038   001AA0  6E08               	movwf	(___aldiv@divisor+3)^0,c
  3039   001AA2  EC32  F01E         	call	___aldiv	;wreg free
  3040   001AA6  C001  F0EA         	movff	?___aldiv,main@leituraRefAvg
  3041   001AAA  C002  F0EB         	movff	?___aldiv+1,main@leituraRefAvg+1
  3042   001AAE                     
  3043                           ;main.c: 150:         if (leituraSensorAvg <= 0 || leituraSensorAvg >= 1023.0 ||
  3044   001AAE  0100               	movlb	0	; () banked
  3045   001AB0  BFED               	btfsc	(main@leituraSensorAvg+1)& (0+255),7,b
  3046   001AB2  EF63  F00D         	goto	u6121
  3047   001AB6  51ED               	movf	(main@leituraSensorAvg+1)& (0+255),w,b
  3048   001AB8  E108               	bnz	u6120
  3049   001ABA  05EC               	decf	main@leituraSensorAvg& (0+255),w,b
  3050   001ABC  A0D8               	btfss	status,0,c
  3051   001ABE  EF63  F00D         	goto	u6121
  3052   001AC2  EF65  F00D         	goto	u6120
  3053   001AC6                     u6121:
  3054   001AC6  EF12  F00E         	goto	l4991
  3055   001ACA                     u6120:
  3056   001ACA                     
  3057                           ; BSR set to: 0
  3058   001ACA  C0EC  F001         	movff	main@leituraSensorAvg,___xxtofl@val
  3059   001ACE  C0ED  F002         	movff	main@leituraSensorAvg+1,___xxtofl@val+1
  3060   001AD2  0E00               	movlw	0
  3061   001AD4  BE02               	btfsc	(___xxtofl@val+1)^0,7,c
  3062   001AD6  0EFF               	movlw	-1
  3063   001AD8  6E03               	movwf	(___xxtofl@val+2)^0,c
  3064   001ADA  6E04               	movwf	(___xxtofl@val+3)^0,c
  3065   001ADC  0E01               	movlw	1
  3066   001ADE  EC4E  F01B         	call	___xxtofl
  3067   001AE2  C001  F040         	movff	?___xxtofl,___flge@ff1
  3068   001AE6  C002  F041         	movff	?___xxtofl+1,___flge@ff1+1
  3069   001AEA  C003  F042         	movff	?___xxtofl+2,___flge@ff1+2
  3070   001AEE  C004  F043         	movff	?___xxtofl+3,___flge@ff1+3
  3071   001AF2  0E00               	movlw	0
  3072   001AF4  6E44               	movwf	___flge@ff2^0,c
  3073   001AF6  0EC0               	movlw	192
  3074   001AF8  6E45               	movwf	(___flge@ff2+1)^0,c
  3075   001AFA  0E7F               	movlw	127
  3076   001AFC  6E46               	movwf	(___flge@ff2+2)^0,c
  3077   001AFE  0E44               	movlw	68
  3078   001B00  6E47               	movwf	(___flge@ff2+3)^0,c
  3079   001B02  EC3A  F01F         	call	___flge	;wreg free
  3080   001B06  B0D8               	btfsc	status,0,c
  3081   001B08  EF88  F00D         	goto	u6131
  3082   001B0C  EF8A  F00D         	goto	u6130
  3083   001B10                     u6131:
  3084   001B10  EF12  F00E         	goto	l4991
  3085   001B14                     u6130:
  3086   001B14  0100               	movlb	0	; () banked
  3087   001B16  BFEB               	btfsc	(main@leituraRefAvg+1)& (0+255),7,b
  3088   001B18  EF96  F00D         	goto	u6141
  3089   001B1C  51EB               	movf	(main@leituraRefAvg+1)& (0+255),w,b
  3090   001B1E  E108               	bnz	u6140
  3091   001B20  05EA               	decf	main@leituraRefAvg& (0+255),w,b
  3092   001B22  A0D8               	btfss	status,0,c
  3093   001B24  EF96  F00D         	goto	u6141
  3094   001B28  EF98  F00D         	goto	u6140
  3095   001B2C                     u6141:
  3096   001B2C  EF12  F00E         	goto	l4991
  3097   001B30                     u6140:
  3098   001B30                     
  3099                           ; BSR set to: 0
  3100   001B30  C0EA  F001         	movff	main@leituraRefAvg,___xxtofl@val
  3101   001B34  C0EB  F002         	movff	main@leituraRefAvg+1,___xxtofl@val+1
  3102   001B38  0E00               	movlw	0
  3103   001B3A  BE02               	btfsc	(___xxtofl@val+1)^0,7,c
  3104   001B3C  0EFF               	movlw	-1
  3105   001B3E  6E03               	movwf	(___xxtofl@val+2)^0,c
  3106   001B40  6E04               	movwf	(___xxtofl@val+3)^0,c
  3107   001B42  0E01               	movlw	1
  3108   001B44  EC4E  F01B         	call	___xxtofl
  3109   001B48  C001  F040         	movff	?___xxtofl,___flge@ff1
  3110   001B4C  C002  F041         	movff	?___xxtofl+1,___flge@ff1+1
  3111   001B50  C003  F042         	movff	?___xxtofl+2,___flge@ff1+2
  3112   001B54  C004  F043         	movff	?___xxtofl+3,___flge@ff1+3
  3113   001B58  0E00               	movlw	0
  3114   001B5A  6E44               	movwf	___flge@ff2^0,c
  3115   001B5C  0EC0               	movlw	192
  3116   001B5E  6E45               	movwf	(___flge@ff2+1)^0,c
  3117   001B60  0E7F               	movlw	127
  3118   001B62  6E46               	movwf	(___flge@ff2+2)^0,c
  3119   001B64  0E44               	movlw	68
  3120   001B66  6E47               	movwf	(___flge@ff2+3)^0,c
  3121   001B68  EC3A  F01F         	call	___flge	;wreg free
  3122   001B6C  B0D8               	btfsc	status,0,c
  3123   001B6E  EFBB  F00D         	goto	u6151
  3124   001B72  EFBD  F00D         	goto	u6150
  3125   001B76                     u6151:
  3126   001B76  EF12  F00E         	goto	l4991
  3127   001B7A                     u6150:
  3128   001B7A  0E00               	movlw	0
  3129   001B7C  6E40               	movwf	___flge@ff1^0,c
  3130   001B7E  0E00               	movlw	0
  3131   001B80  6E41               	movwf	(___flge@ff1+1)^0,c
  3132   001B82  0E00               	movlw	0
  3133   001B84  6E42               	movwf	(___flge@ff1+2)^0,c
  3134   001B86  0E00               	movlw	0
  3135   001B88  6E43               	movwf	(___flge@ff1+3)^0,c
  3136   001B8A  C0EC  F001         	movff	main@leituraSensorAvg,___xxtofl@val
  3137   001B8E  C0ED  F002         	movff	main@leituraSensorAvg+1,___xxtofl@val+1
  3138   001B92  0E00               	movlw	0
  3139   001B94  BE02               	btfsc	(___xxtofl@val+1)^0,7,c
  3140   001B96  0EFF               	movlw	-1
  3141   001B98  6E03               	movwf	(___xxtofl@val+2)^0,c
  3142   001B9A  6E04               	movwf	(___xxtofl@val+3)^0,c
  3143   001B9C  0E01               	movlw	1
  3144   001B9E  EC4E  F01B         	call	___xxtofl
  3145   001BA2  C001  F03C         	movff	?___xxtofl,___flsub@a
  3146   001BA6  C002  F03D         	movff	?___xxtofl+1,___flsub@a+1
  3147   001BAA  C003  F03E         	movff	?___xxtofl+2,___flsub@a+2
  3148   001BAE  C004  F03F         	movff	?___xxtofl+3,___flsub@a+3
  3149   001BB2  0E00               	movlw	0
  3150   001BB4  6E13               	movwf	___flmul@a^0,c
  3151   001BB6  0E00               	movlw	0
  3152   001BB8  6E14               	movwf	(___flmul@a+1)^0,c
  3153   001BBA  0E00               	movlw	0
  3154   001BBC  6E15               	movwf	(___flmul@a+2)^0,c
  3155   001BBE  0E40               	movlw	64
  3156   001BC0  6E16               	movwf	(___flmul@a+3)^0,c
  3157   001BC2  C0EA  F001         	movff	main@leituraRefAvg,___xxtofl@val
  3158   001BC6  C0EB  F002         	movff	main@leituraRefAvg+1,___xxtofl@val+1
  3159   001BCA  0E00               	movlw	0
  3160   001BCC  BE02               	btfsc	(___xxtofl@val+1)^0,7,c
  3161   001BCE  0EFF               	movlw	-1
  3162   001BD0  6E03               	movwf	(___xxtofl@val+2)^0,c
  3163   001BD2  6E04               	movwf	(___xxtofl@val+3)^0,c
  3164   001BD4  0E01               	movlw	1
  3165   001BD6  EC4E  F01B         	call	___xxtofl
  3166   001BDA  C001  F00F         	movff	?___xxtofl,___flmul@b
  3167   001BDE  C002  F010         	movff	?___xxtofl+1,___flmul@b+1
  3168   001BE2  C003  F011         	movff	?___xxtofl+2,___flmul@b+2
  3169   001BE6  C004  F012         	movff	?___xxtofl+3,___flmul@b+3
  3170   001BEA  EC86  F015         	call	___flmul	;wreg free
  3171   001BEE  C00F  F038         	movff	?___flmul,___flsub@b
  3172   001BF2  C010  F039         	movff	?___flmul+1,___flsub@b+1
  3173   001BF6  C011  F03A         	movff	?___flmul+2,___flsub@b+2
  3174   001BFA  C012  F03B         	movff	?___flmul+3,___flsub@b+3
  3175   001BFE  EC0C  F023         	call	___flsub	;wreg free
  3176   001C02  C038  F044         	movff	?___flsub,___flge@ff2
  3177   001C06  C039  F045         	movff	?___flsub+1,___flge@ff2+1
  3178   001C0A  C03A  F046         	movff	?___flsub+2,___flge@ff2+2
  3179   001C0E  C03B  F047         	movff	?___flsub+3,___flge@ff2+3
  3180   001C12  EC3A  F01F         	call	___flge	;wreg free
  3181   001C16  A0D8               	btfss	status,0,c
  3182   001C18  EF10  F00E         	goto	u6161
  3183   001C1C  EF12  F00E         	goto	u6160
  3184   001C20                     u6161:
  3185   001C20  EF39  F00E         	goto	l4999
  3186   001C24                     u6160:
  3187   001C24                     l4991:
  3188                           
  3189                           ;main.c: 152:             (2.0 * leituraRefAvg - leituraSensorAvg) <= 0) {;main.c: 153: 
      +                                      LCD_SetCursor(0, 0);
  3190   001C24  0E00               	movlw	0
  3191   001C26  6E09               	movwf	LCD_SetCursor@row^0,c
  3192   001C28  0E00               	movlw	0
  3193   001C2A  EC23  F024         	call	_LCD_SetCursor
  3194   001C2E                     
  3195                           ;main.c: 154:             LCD_PrintString("Falha no sensor!");
  3196   001C2E  0E3D               	movlw	low STR_5
  3197   001C30  6E09               	movwf	LCD_PrintString@str^0,c
  3198   001C32  5009               	movf	LCD_PrintString@str^0,w,c
  3199   001C34  A4D8               	btfss	status,2,c
  3200   001C36  0E10               	movlw	high __smallconst
  3201   001C38  6E0A               	movwf	(LCD_PrintString@str+1)^0,c
  3202   001C3A  ECDB  F022         	call	_LCD_PrintString	;wreg free
  3203   001C3E                     
  3204                           ;main.c: 155:             LCD_SetCursor(0, 1);
  3205   001C3E  0E01               	movlw	1
  3206   001C40  6E09               	movwf	LCD_SetCursor@row^0,c
  3207   001C42  0E00               	movlw	0
  3208   001C44  EC23  F024         	call	_LCD_SetCursor
  3209                           
  3210                           ;main.c: 156:             LCD_PrintString("Verifique conexao");
  3211   001C48  0E2B               	movlw	low STR_6
  3212   001C4A  6E09               	movwf	LCD_PrintString@str^0,c
  3213   001C4C  5009               	movf	LCD_PrintString@str^0,w,c
  3214   001C4E  A4D8               	btfss	status,2,c
  3215   001C50  0E10               	movlw	high __smallconst
  3216   001C52  6E0A               	movwf	(LCD_PrintString@str+1)^0,c
  3217   001C54  ECDB  F022         	call	_LCD_PrintString	;wreg free
  3218   001C58                     
  3219                           ;main.c: 157:             _delay((unsigned long)((1000)*(8000000/4000.0)));
  3220   001C58  0E0B               	movlw	11
  3221   001C5A  6E5E               	movwf	(??_main+1)^0,c
  3222   001C5C  0E26               	movlw	38
  3223   001C5E  6E5D               	movwf	??_main^0,c
  3224   001C60  0E5E               	movlw	94
  3225   001C62                     u6197:
  3226   001C62  2EE8               	decfsz	wreg,f,c
  3227   001C64  D7FE               	bra	u6197
  3228   001C66  2E5D               	decfsz	??_main^0,f,c
  3229   001C68  D7FC               	bra	u6197
  3230   001C6A  2E5E               	decfsz	(??_main+1)^0,f,c
  3231   001C6C  D7FA               	bra	u6197
  3232                           
  3233                           ;main.c: 158:             continue;
  3234   001C6E  EFE6  F00C         	goto	l4961
  3235   001C72                     l4999:
  3236                           
  3237                           ;main.c: 161:         resistenciaNTC = (10000.0 * leituraSensorAvg) / (2.0 * leituraRefA
      +                          vg - leituraSensorAvg);
  3238   001C72  0E00               	movlw	0
  3239   001C74  6E13               	movwf	___flmul@a^0,c
  3240   001C76  0E40               	movlw	64
  3241   001C78  6E14               	movwf	(___flmul@a+1)^0,c
  3242   001C7A  0E1C               	movlw	28
  3243   001C7C  6E15               	movwf	(___flmul@a+2)^0,c
  3244   001C7E  0E46               	movlw	70
  3245   001C80  6E16               	movwf	(___flmul@a+3)^0,c
  3246   001C82  C0EC  F001         	movff	main@leituraSensorAvg,___xxtofl@val
  3247   001C86  C0ED  F002         	movff	main@leituraSensorAvg+1,___xxtofl@val+1
  3248   001C8A  0E00               	movlw	0
  3249   001C8C  BE02               	btfsc	(___xxtofl@val+1)^0,7,c
  3250   001C8E  0EFF               	movlw	-1
  3251   001C90  6E03               	movwf	(___xxtofl@val+2)^0,c
  3252   001C92  6E04               	movwf	(___xxtofl@val+3)^0,c
  3253   001C94  0E01               	movlw	1
  3254   001C96  EC4E  F01B         	call	___xxtofl
  3255   001C9A  C001  F00F         	movff	?___xxtofl,___flmul@b
  3256   001C9E  C002  F010         	movff	?___xxtofl+1,___flmul@b+1
  3257   001CA2  C003  F011         	movff	?___xxtofl+2,___flmul@b+2
  3258   001CA6  C004  F012         	movff	?___xxtofl+3,___flmul@b+3
  3259   001CAA  EC86  F015         	call	___flmul	;wreg free
  3260   001CAE  C00F  F040         	movff	?___flmul,___fldiv@b
  3261   001CB2  C010  F041         	movff	?___flmul+1,___fldiv@b+1
  3262   001CB6  C011  F042         	movff	?___flmul+2,___fldiv@b+2
  3263   001CBA  C012  F043         	movff	?___flmul+3,___fldiv@b+3
  3264   001CBE  C0EC  F001         	movff	main@leituraSensorAvg,___xxtofl@val
  3265   001CC2  C0ED  F002         	movff	main@leituraSensorAvg+1,___xxtofl@val+1
  3266   001CC6  0E00               	movlw	0
  3267   001CC8  BE02               	btfsc	(___xxtofl@val+1)^0,7,c
  3268   001CCA  0EFF               	movlw	-1
  3269   001CCC  6E03               	movwf	(___xxtofl@val+2)^0,c
  3270   001CCE  6E04               	movwf	(___xxtofl@val+3)^0,c
  3271   001CD0  0E01               	movlw	1
  3272   001CD2  EC4E  F01B         	call	___xxtofl
  3273   001CD6  C001  F03C         	movff	?___xxtofl,___flsub@a
  3274   001CDA  C002  F03D         	movff	?___xxtofl+1,___flsub@a+1
  3275   001CDE  C003  F03E         	movff	?___xxtofl+2,___flsub@a+2
  3276   001CE2  C004  F03F         	movff	?___xxtofl+3,___flsub@a+3
  3277   001CE6  0E00               	movlw	0
  3278   001CE8  6E13               	movwf	___flmul@a^0,c
  3279   001CEA  0E00               	movlw	0
  3280   001CEC  6E14               	movwf	(___flmul@a+1)^0,c
  3281   001CEE  0E00               	movlw	0
  3282   001CF0  6E15               	movwf	(___flmul@a+2)^0,c
  3283   001CF2  0E40               	movlw	64
  3284   001CF4  6E16               	movwf	(___flmul@a+3)^0,c
  3285   001CF6  C0EA  F001         	movff	main@leituraRefAvg,___xxtofl@val
  3286   001CFA  C0EB  F002         	movff	main@leituraRefAvg+1,___xxtofl@val+1
  3287   001CFE  0E00               	movlw	0
  3288   001D00  BE02               	btfsc	(___xxtofl@val+1)^0,7,c
  3289   001D02  0EFF               	movlw	-1
  3290   001D04  6E03               	movwf	(___xxtofl@val+2)^0,c
  3291   001D06  6E04               	movwf	(___xxtofl@val+3)^0,c
  3292   001D08  0E01               	movlw	1
  3293   001D0A  EC4E  F01B         	call	___xxtofl
  3294   001D0E  C001  F00F         	movff	?___xxtofl,___flmul@b
  3295   001D12  C002  F010         	movff	?___xxtofl+1,___flmul@b+1
  3296   001D16  C003  F011         	movff	?___xxtofl+2,___flmul@b+2
  3297   001D1A  C004  F012         	movff	?___xxtofl+3,___flmul@b+3
  3298   001D1E  EC86  F015         	call	___flmul	;wreg free
  3299   001D22  C00F  F038         	movff	?___flmul,___flsub@b
  3300   001D26  C010  F039         	movff	?___flmul+1,___flsub@b+1
  3301   001D2A  C011  F03A         	movff	?___flmul+2,___flsub@b+2
  3302   001D2E  C012  F03B         	movff	?___flmul+3,___flsub@b+3
  3303   001D32  EC0C  F023         	call	___flsub	;wreg free
  3304   001D36  C038  F044         	movff	?___flsub,___fldiv@a
  3305   001D3A  C039  F045         	movff	?___flsub+1,___fldiv@a+1
  3306   001D3E  C03A  F046         	movff	?___flsub+2,___fldiv@a+2
  3307   001D42  C03B  F047         	movff	?___flsub+3,___fldiv@a+3
  3308   001D46  EC99  F017         	call	___fldiv	;wreg free
  3309   001D4A  C040  F0C0         	movff	?___fldiv,main@resistenciaNTC
  3310   001D4E  C041  F0C1         	movff	?___fldiv+1,main@resistenciaNTC+1
  3311   001D52  C042  F0C2         	movff	?___fldiv+2,main@resistenciaNTC+2
  3312   001D56  C043  F0C3         	movff	?___fldiv+3,main@resistenciaNTC+3
  3313                           
  3314                           ;main.c: 164:         float logNTC = logf(resistenciaNTC);
  3315   001D5A  C0C0  F059         	movff	main@resistenciaNTC,logf@x
  3316   001D5E  C0C1  F05A         	movff	main@resistenciaNTC+1,logf@x+1
  3317   001D62  C0C2  F05B         	movff	main@resistenciaNTC+2,logf@x+2
  3318   001D66  C0C3  F05C         	movff	main@resistenciaNTC+3,logf@x+3
  3319   001D6A  EC1F  F010         	call	_logf	;wreg free
  3320   001D6E  C059  F0EE         	movff	?_logf,main@logNTC
  3321   001D72  C05A  F0EF         	movff	?_logf+1,main@logNTC+1
  3322   001D76  C05B  F0F0         	movff	?_logf+2,main@logNTC+2
  3323   001D7A  C05C  F0F1         	movff	?_logf+3,main@logNTC+3
  3324                           
  3325                           ;main.c: 165:         tempKelvin = (1.0 / (0.001129148 + (0.000234125 * logNTC) + (0.000
      +                          0000876741 * logNTC * logNTC * logNTC)));
  3326   001D7E  0E59               	movlw	89
  3327   001D80  6E13               	movwf	___flmul@a^0,c
  3328   001D82  0E47               	movlw	71
  3329   001D84  6E14               	movwf	(___flmul@a+1)^0,c
  3330   001D86  0EBC               	movlw	188
  3331   001D88  6E15               	movwf	(___flmul@a+2)^0,c
  3332   001D8A  0E33               	movlw	51
  3333   001D8C  6E16               	movwf	(___flmul@a+3)^0,c
  3334   001D8E  C0EE  F00F         	movff	main@logNTC,___flmul@b
  3335   001D92  C0EF  F010         	movff	main@logNTC+1,___flmul@b+1
  3336   001D96  C0F0  F011         	movff	main@logNTC+2,___flmul@b+2
  3337   001D9A  C0F1  F012         	movff	main@logNTC+3,___flmul@b+3
  3338   001D9E  EC86  F015         	call	___flmul	;wreg free
  3339   001DA2  C00F  F0D4         	movff	?___flmul,_main$1575
  3340   001DA6  C010  F0D5         	movff	?___flmul+1,_main$1575+1
  3341   001DAA  C011  F0D6         	movff	?___flmul+2,_main$1575+2
  3342   001DAE  C012  F0D7         	movff	?___flmul+3,_main$1575+3
  3343                           
  3344                           ;main.c: 165:         tempKelvin = (1.0 / (0.001129148 + (0.000234125 * logNTC) + (0.000
      +                          0000876741 * logNTC * logNTC * logNTC)));
  3345   001DB2  C0EE  F013         	movff	main@logNTC,___flmul@a
  3346   001DB6  C0EF  F014         	movff	main@logNTC+1,___flmul@a+1
  3347   001DBA  C0F0  F015         	movff	main@logNTC+2,___flmul@a+2
  3348   001DBE  C0F1  F016         	movff	main@logNTC+3,___flmul@a+3
  3349   001DC2  C0D4  F00F         	movff	_main$1575,___flmul@b
  3350   001DC6  C0D5  F010         	movff	_main$1575+1,___flmul@b+1
  3351   001DCA  C0D6  F011         	movff	_main$1575+2,___flmul@b+2
  3352   001DCE  C0D7  F012         	movff	_main$1575+3,___flmul@b+3
  3353   001DD2  EC86  F015         	call	___flmul	;wreg free
  3354   001DD6  C00F  F0D8         	movff	?___flmul,_main$1576
  3355   001DDA  C010  F0D9         	movff	?___flmul+1,_main$1576+1
  3356   001DDE  C011  F0DA         	movff	?___flmul+2,_main$1576+2
  3357   001DE2  C012  F0DB         	movff	?___flmul+3,_main$1576+3
  3358                           
  3359                           ;main.c: 165:         tempKelvin = (1.0 / (0.001129148 + (0.000234125 * logNTC) + (0.000
      +                          0000876741 * logNTC * logNTC * logNTC)));
  3360   001DE6  0EEB               	movlw	235
  3361   001DE8  6E2C               	movwf	___fladd@a^0,c
  3362   001DEA  0EFF               	movlw	255
  3363   001DEC  6E2D               	movwf	(___fladd@a+1)^0,c
  3364   001DEE  0E93               	movlw	147
  3365   001DF0  6E2E               	movwf	(___fladd@a+2)^0,c
  3366   001DF2  0E3A               	movlw	58
  3367   001DF4  6E2F               	movwf	(___fladd@a+3)^0,c
  3368   001DF6  0E73               	movlw	115
  3369   001DF8  6E13               	movwf	___flmul@a^0,c
  3370   001DFA  0E7F               	movlw	127
  3371   001DFC  6E14               	movwf	(___flmul@a+1)^0,c
  3372   001DFE  0E75               	movlw	117
  3373   001E00  6E15               	movwf	(___flmul@a+2)^0,c
  3374   001E02  0E39               	movlw	57
  3375   001E04  6E16               	movwf	(___flmul@a+3)^0,c
  3376   001E06  C0EE  F00F         	movff	main@logNTC,___flmul@b
  3377   001E0A  C0EF  F010         	movff	main@logNTC+1,___flmul@b+1
  3378   001E0E  C0F0  F011         	movff	main@logNTC+2,___flmul@b+2
  3379   001E12  C0F1  F012         	movff	main@logNTC+3,___flmul@b+3
  3380   001E16  EC86  F015         	call	___flmul	;wreg free
  3381   001E1A  C00F  F028         	movff	?___flmul,___fladd@b
  3382   001E1E  C010  F029         	movff	?___flmul+1,___fladd@b+1
  3383   001E22  C011  F02A         	movff	?___flmul+2,___fladd@b+2
  3384   001E26  C012  F02B         	movff	?___flmul+3,___fladd@b+3
  3385   001E2A  EC2B  F013         	call	___fladd	;wreg free
  3386   001E2E  C028  F0DC         	movff	?___fladd,_main$1577
  3387   001E32  C029  F0DD         	movff	?___fladd+1,_main$1577+1
  3388   001E36  C02A  F0DE         	movff	?___fladd+2,_main$1577+2
  3389   001E3A  C02B  F0DF         	movff	?___fladd+3,_main$1577+3
  3390                           
  3391                           ;main.c: 165:         tempKelvin = (1.0 / (0.001129148 + (0.000234125 * logNTC) + (0.000
      +                          0000876741 * logNTC * logNTC * logNTC)));
  3392   001E3E  0E00               	movlw	0
  3393   001E40  6E40               	movwf	___fldiv@b^0,c
  3394   001E42  0E00               	movlw	0
  3395   001E44  6E41               	movwf	(___fldiv@b+1)^0,c
  3396   001E46  0E80               	movlw	128
  3397   001E48  6E42               	movwf	(___fldiv@b+2)^0,c
  3398   001E4A  0E3F               	movlw	63
  3399   001E4C  6E43               	movwf	(___fldiv@b+3)^0,c
  3400   001E4E  C0EE  F013         	movff	main@logNTC,___flmul@a
  3401   001E52  C0EF  F014         	movff	main@logNTC+1,___flmul@a+1
  3402   001E56  C0F0  F015         	movff	main@logNTC+2,___flmul@a+2
  3403   001E5A  C0F1  F016         	movff	main@logNTC+3,___flmul@a+3
  3404   001E5E  C0D8  F00F         	movff	_main$1576,___flmul@b
  3405   001E62  C0D9  F010         	movff	_main$1576+1,___flmul@b+1
  3406   001E66  C0DA  F011         	movff	_main$1576+2,___flmul@b+2
  3407   001E6A  C0DB  F012         	movff	_main$1576+3,___flmul@b+3
  3408   001E6E  EC86  F015         	call	___flmul	;wreg free
  3409   001E72  C00F  F02C         	movff	?___flmul,___fladd@a
  3410   001E76  C010  F02D         	movff	?___flmul+1,___fladd@a+1
  3411   001E7A  C011  F02E         	movff	?___flmul+2,___fladd@a+2
  3412   001E7E  C012  F02F         	movff	?___flmul+3,___fladd@a+3
  3413   001E82  C0DC  F028         	movff	_main$1577,___fladd@b
  3414   001E86  C0DD  F029         	movff	_main$1577+1,___fladd@b+1
  3415   001E8A  C0DE  F02A         	movff	_main$1577+2,___fladd@b+2
  3416   001E8E  C0DF  F02B         	movff	_main$1577+3,___fladd@b+3
  3417   001E92  EC2B  F013         	call	___fladd	;wreg free
  3418   001E96  C028  F044         	movff	?___fladd,___fldiv@a
  3419   001E9A  C029  F045         	movff	?___fladd+1,___fldiv@a+1
  3420   001E9E  C02A  F046         	movff	?___fladd+2,___fldiv@a+2
  3421   001EA2  C02B  F047         	movff	?___fladd+3,___fldiv@a+3
  3422   001EA6  EC99  F017         	call	___fldiv	;wreg free
  3423   001EAA  C040  F0C4         	movff	?___fldiv,main@tempKelvin
  3424   001EAE  C041  F0C5         	movff	?___fldiv+1,main@tempKelvin+1
  3425   001EB2  C042  F0C6         	movff	?___fldiv+2,main@tempKelvin+2
  3426   001EB6  C043  F0C7         	movff	?___fldiv+3,main@tempKelvin+3
  3427   001EBA                     
  3428                           ;main.c: 166:         tempCelsius = tempKelvin - 273.15;
  3429   001EBA  C0C4  F028         	movff	main@tempKelvin,___fladd@b
  3430   001EBE  C0C5  F029         	movff	main@tempKelvin+1,___fladd@b+1
  3431   001EC2  C0C6  F02A         	movff	main@tempKelvin+2,___fladd@b+2
  3432   001EC6  C0C7  F02B         	movff	main@tempKelvin+3,___fladd@b+3
  3433   001ECA  0E33               	movlw	51
  3434   001ECC  6E2C               	movwf	___fladd@a^0,c
  3435   001ECE  0E93               	movlw	147
  3436   001ED0  6E2D               	movwf	(___fladd@a+1)^0,c
  3437   001ED2  0E88               	movlw	136
  3438   001ED4  6E2E               	movwf	(___fladd@a+2)^0,c
  3439   001ED6  0EC3               	movlw	195
  3440   001ED8  6E2F               	movwf	(___fladd@a+3)^0,c
  3441   001EDA  EC2B  F013         	call	___fladd	;wreg free
  3442   001EDE  C028  F0C8         	movff	?___fladd,main@tempCelsius
  3443   001EE2  C029  F0C9         	movff	?___fladd+1,main@tempCelsius+1
  3444   001EE6  C02A  F0CA         	movff	?___fladd+2,main@tempCelsius+2
  3445   001EEA  C02B  F0CB         	movff	?___fladd+3,main@tempCelsius+3
  3446   001EEE                     
  3447                           ;main.c: 169:         ftoa(tempCelsius, tempBuffer, 2);
  3448   001EEE  C0C8  F04F         	movff	main@tempCelsius,ftoa@f
  3449   001EF2  C0C9  F050         	movff	main@tempCelsius+1,ftoa@f+1
  3450   001EF6  C0CA  F051         	movff	main@tempCelsius+2,ftoa@f+2
  3451   001EFA  C0CB  F052         	movff	main@tempCelsius+3,ftoa@f+3
  3452   001EFE  0EA0               	movlw	low main@tempBuffer
  3453   001F00  6E53               	movwf	ftoa@buffer^0,c
  3454   001F02  6A55               	clrf	(ftoa@precision+1)^0,c
  3455   001F04  0E02               	movlw	2
  3456   001F06  6E54               	movwf	ftoa@precision^0,c
  3457   001F08  EC28  F01C         	call	_ftoa	;wreg free
  3458   001F0C                     
  3459                           ;main.c: 171:         LCD_SetCursor(0, 0);
  3460   001F0C  0E00               	movlw	0
  3461   001F0E  6E09               	movwf	LCD_SetCursor@row^0,c
  3462   001F10  0E00               	movlw	0
  3463   001F12  EC23  F024         	call	_LCD_SetCursor
  3464   001F16                     
  3465                           ;main.c: 172:         LCD_PrintString("Temp: ");
  3466   001F16  0E67               	movlw	low STR_7
  3467   001F18  6E09               	movwf	LCD_PrintString@str^0,c
  3468   001F1A  5009               	movf	LCD_PrintString@str^0,w,c
  3469   001F1C  A4D8               	btfss	status,2,c
  3470   001F1E  0E10               	movlw	high __smallconst
  3471   001F20  6E0A               	movwf	(LCD_PrintString@str+1)^0,c
  3472   001F22  ECDB  F022         	call	_LCD_PrintString	;wreg free
  3473   001F26                     
  3474                           ;main.c: 173:         LCD_PrintString(tempBuffer);
  3475   001F26  0EA0               	movlw	low main@tempBuffer
  3476   001F28  6E09               	movwf	LCD_PrintString@str^0,c
  3477   001F2A  6A0A               	clrf	(LCD_PrintString@str+1)^0,c
  3478   001F2C  ECDB  F022         	call	_LCD_PrintString	;wreg free
  3479   001F30                     
  3480                           ;main.c: 174:         LCD_PrintString(" C   ");
  3481   001F30  0E75               	movlw	low STR_8
  3482   001F32  6E09               	movwf	LCD_PrintString@str^0,c
  3483   001F34  5009               	movf	LCD_PrintString@str^0,w,c
  3484   001F36  A4D8               	btfss	status,2,c
  3485   001F38  0E10               	movlw	high __smallconst
  3486   001F3A  6E0A               	movwf	(LCD_PrintString@str+1)^0,c
  3487   001F3C  ECDB  F022         	call	_LCD_PrintString	;wreg free
  3488   001F40                     
  3489                           ;main.c: 176:         long valorPonte = leituraSensorAvg - leituraRefAvg;
  3490   001F40  0100               	movlb	0	; () banked
  3491   001F42  51EA               	movf	main@leituraRefAvg& (0+255),w,b
  3492   001F44  5DEC               	subwf	main@leituraSensorAvg& (0+255),w,b
  3493   001F46  6E5D               	movwf	??_main^0,c
  3494   001F48  51EB               	movf	(main@leituraRefAvg+1)& (0+255),w,b
  3495   001F4A  59ED               	subwfb	(main@leituraSensorAvg+1)& (0+255),w,b
  3496   001F4C  6E5E               	movwf	(??_main+1)^0,c
  3497   001F4E  C05D  F0CC         	movff	??_main,main@valorPonte
  3498   001F52  C05E  F0CD         	movff	??_main+1,main@valorPonte+1
  3499   001F56  0E00               	movlw	0
  3500   001F58  BFCD               	btfsc	(main@valorPonte+1)& (0+255),7,b
  3501   001F5A  0EFF               	movlw	-1
  3502   001F5C  6FCE               	movwf	(main@valorPonte+2)& (0+255),b
  3503   001F5E  6FCF               	movwf	(main@valorPonte+3)& (0+255),b
  3504   001F60                     
  3505                           ; BSR set to: 0
  3506                           ;main.c: 177:         float tensaoPonte = (valorPonte / 1023.0) * 5.0;
  3507   001F60  0E00               	movlw	0
  3508   001F62  6E44               	movwf	___fldiv@a^0,c
  3509   001F64  0EC0               	movlw	192
  3510   001F66  6E45               	movwf	(___fldiv@a+1)^0,c
  3511   001F68  0E7F               	movlw	127
  3512   001F6A  6E46               	movwf	(___fldiv@a+2)^0,c
  3513   001F6C  0E44               	movlw	68
  3514   001F6E  6E47               	movwf	(___fldiv@a+3)^0,c
  3515   001F70  C0CC  F001         	movff	main@valorPonte,___xxtofl@val
  3516   001F74  C0CD  F002         	movff	main@valorPonte+1,___xxtofl@val+1
  3517   001F78  C0CE  F003         	movff	main@valorPonte+2,___xxtofl@val+2
  3518   001F7C  C0CF  F004         	movff	main@valorPonte+3,___xxtofl@val+3
  3519   001F80  0E01               	movlw	1
  3520   001F82  EC4E  F01B         	call	___xxtofl
  3521   001F86  C001  F040         	movff	?___xxtofl,___fldiv@b
  3522   001F8A  C002  F041         	movff	?___xxtofl+1,___fldiv@b+1
  3523   001F8E  C003  F042         	movff	?___xxtofl+2,___fldiv@b+2
  3524   001F92  C004  F043         	movff	?___xxtofl+3,___fldiv@b+3
  3525   001F96  EC99  F017         	call	___fldiv	;wreg free
  3526   001F9A  C040  F00F         	movff	?___fldiv,___flmul@b
  3527   001F9E  C041  F010         	movff	?___fldiv+1,___flmul@b+1
  3528   001FA2  C042  F011         	movff	?___fldiv+2,___flmul@b+2
  3529   001FA6  C043  F012         	movff	?___fldiv+3,___flmul@b+3
  3530   001FAA  0E00               	movlw	0
  3531   001FAC  6E13               	movwf	___flmul@a^0,c
  3532   001FAE  0E00               	movlw	0
  3533   001FB0  6E14               	movwf	(___flmul@a+1)^0,c
  3534   001FB2  0EA0               	movlw	160
  3535   001FB4  6E15               	movwf	(___flmul@a+2)^0,c
  3536   001FB6  0E40               	movlw	64
  3537   001FB8  6E16               	movwf	(___flmul@a+3)^0,c
  3538   001FBA  EC86  F015         	call	___flmul	;wreg free
  3539   001FBE  C00F  F0D0         	movff	?___flmul,main@tensaoPonte
  3540   001FC2  C010  F0D1         	movff	?___flmul+1,main@tensaoPonte+1
  3541   001FC6  C011  F0D2         	movff	?___flmul+2,main@tensaoPonte+2
  3542   001FCA  C012  F0D3         	movff	?___flmul+3,main@tensaoPonte+3
  3543   001FCE                     
  3544                           ;main.c: 179:         ftoa(tensaoPonte, tensaoBuffer, 2);
  3545   001FCE  C0D0  F04F         	movff	main@tensaoPonte,ftoa@f
  3546   001FD2  C0D1  F050         	movff	main@tensaoPonte+1,ftoa@f+1
  3547   001FD6  C0D2  F051         	movff	main@tensaoPonte+2,ftoa@f+2
  3548   001FDA  C0D3  F052         	movff	main@tensaoPonte+3,ftoa@f+3
  3549   001FDE  0EB0               	movlw	low main@tensaoBuffer
  3550   001FE0  6E53               	movwf	ftoa@buffer^0,c
  3551   001FE2  6A55               	clrf	(ftoa@precision+1)^0,c
  3552   001FE4  0E02               	movlw	2
  3553   001FE6  6E54               	movwf	ftoa@precision^0,c
  3554   001FE8  EC28  F01C         	call	_ftoa	;wreg free
  3555   001FEC                     
  3556                           ;main.c: 181:         LCD_SetCursor(0, 1);
  3557   001FEC  0E01               	movlw	1
  3558   001FEE  6E09               	movwf	LCD_SetCursor@row^0,c
  3559   001FF0  0E00               	movlw	0
  3560   001FF2  EC23  F024         	call	_LCD_SetCursor
  3561   001FF6                     
  3562                           ;main.c: 182:         LCD_PrintString("A-B(V):");
  3563   001FF6  0E5F               	movlw	low STR_9
  3564   001FF8  6E09               	movwf	LCD_PrintString@str^0,c
  3565   001FFA  5009               	movf	LCD_PrintString@str^0,w,c
  3566   001FFC  A4D8               	btfss	status,2,c
  3567   001FFE  0E10               	movlw	high __smallconst
  3568   002000  6E0A               	movwf	(LCD_PrintString@str+1)^0,c
  3569   002002  ECDB  F022         	call	_LCD_PrintString	;wreg free
  3570   002006                     
  3571                           ;main.c: 183:         LCD_PrintString(tensaoBuffer);
  3572   002006  0EB0               	movlw	low main@tensaoBuffer
  3573   002008  6E09               	movwf	LCD_PrintString@str^0,c
  3574   00200A  6A0A               	clrf	(LCD_PrintString@str+1)^0,c
  3575   00200C  ECDB  F022         	call	_LCD_PrintString	;wreg free
  3576   002010                     
  3577                           ;main.c: 184:         LCD_PrintString(" V   ");
  3578   002010  0E7B               	movlw	low STR_10
  3579   002012  6E09               	movwf	LCD_PrintString@str^0,c
  3580   002014  5009               	movf	LCD_PrintString@str^0,w,c
  3581   002016  A4D8               	btfss	status,2,c
  3582   002018  0E10               	movlw	high __smallconst
  3583   00201A  6E0A               	movwf	(LCD_PrintString@str+1)^0,c
  3584   00201C  ECDB  F022         	call	_LCD_PrintString	;wreg free
  3585   002020                     
  3586                           ;main.c: 186:         _delay((unsigned long)((5000)*(8000000/4000.0)));
  3587   002020  0E33               	movlw	51
  3588   002022  6E5E               	movwf	(??_main+1)^0,c
  3589   002024  0EBB               	movlw	187
  3590   002026  6E5D               	movwf	??_main^0,c
  3591   002028  0EE0               	movlw	224
  3592   00202A                     u6207:
  3593   00202A  2EE8               	decfsz	wreg,f,c
  3594   00202C  D7FE               	bra	u6207
  3595   00202E  2E5D               	decfsz	??_main^0,f,c
  3596   002030  D7FC               	bra	u6207
  3597   002032  2E5E               	decfsz	(??_main+1)^0,f,c
  3598   002034  D7FA               	bra	u6207
  3599   002036  EFE6  F00C         	goto	l4961
  3600   00203A  EFFE  F0BF         	goto	start
  3601   00203E                     __end_of_main:
  3602                           	callstack 0
  3603                           
  3604 ;; *************** function _logf *****************
  3605 ;; Defined at:
  3606 ;;		line 29 in file "C:\Program Files\Microchip\xc8\v3.10\pic\sources\c99\common\logf.c"
  3607 ;; Parameters:    Size  Location     Type
  3608 ;;  x               4   88[COMRAM] float 
  3609 ;; Auto vars:     Size  Location     Type
  3610 ;;  ux              4   60[BANK0 ] struct .
  3611 ;;  w               4   52[BANK0 ] float 
  3612 ;;  z               4   48[BANK0 ] float 
  3613 ;;  s               4   44[BANK0 ] float 
  3614 ;;  dk              4   40[BANK0 ] float 
  3615 ;;  hfsq            4   36[BANK0 ] float 
  3616 ;;  t2              4   14[BANK0 ] float 
  3617 ;;  t1              4   10[BANK0 ] float 
  3618 ;;  R               4    6[BANK0 ] float 
  3619 ;;  k               2   34[BANK0 ] int 
  3620 ;; Return value:  Size  Location     Type
  3621 ;;                  4   88[COMRAM] float 
  3622 ;; Registers used:
  3623 ;;		wreg, status,2, status,0, prodl, prodh, cstack
  3624 ;; Tracked objects:
  3625 ;;		On entry : 0/0
  3626 ;;		On exit  : 0/0
  3627 ;;		Unchanged: 0/0
  3628 ;; Data sizes:     COMRAM   BANK0   BANK1   BANK2   BANK3   BANK4   BANK5   BANK6   BANK7   BANK8   BANK9  BANK10  BANK1
      +1  BANK12
  3629 ;;      Params:         4       0       0       0       0       0       0       0       0       0       0       0       
      +0       0
  3630 ;;      Locals:         0      58       0       0       0       0       0       0       0       0       0       0       
      +0       0
  3631 ;;      Temps:          0       6       0       0       0       0       0       0       0       0       0       0       
      +0       0
  3632 ;;      Totals:         4      64       0       0       0       0       0       0       0       0       0       0       
      +0       0
  3633 ;;Total ram usage:       68 bytes
  3634 ;; Hardware stack levels used: 1
  3635 ;; Hardware stack levels required when called: 1
  3636 ;; This function calls:
  3637 ;;		___fladd
  3638 ;;		___fldiv
  3639 ;;		___flmul
  3640 ;;		___flsub
  3641 ;;		___xxtofl
  3642 ;; This function is called by:
  3643 ;;		_main
  3644 ;; This function uses a non-reentrant model
  3645 ;;
  3646                           
  3647                           	psect	text1
  3648   00203E                     __ptext1:
  3649                           	callstack 0
  3650   00203E                     _logf:
  3651                           	callstack 29
  3652   00203E  C100  F09C         	movff	logf@F472,logf@ux
  3653   002042  C101  F09D         	movff	logf@F472+1,logf@ux+1
  3654   002046  C102  F09E         	movff	logf@F472+2,logf@ux+2
  3655   00204A  C103  F09F         	movff	logf@F472+3,logf@ux+3
  3656   00204E  C059  F09C         	movff	logf@x,logf@ux
  3657   002052  C05A  F09D         	movff	logf@x+1,logf@ux+1
  3658   002056  C05B  F09E         	movff	logf@x+2,logf@ux+2
  3659   00205A  C05C  F09F         	movff	logf@x+3,logf@ux+3
  3660   00205E  0100               	movlb	0	; () banked
  3661   002060  6B83               	clrf	(logf@k+1)& (0+255),b
  3662   002062  0E00               	movlw	0
  3663   002064  6F82               	movwf	logf@k& (0+255),b
  3664   002066                     
  3665                           ; BSR set to: 0
  3666   002066  519F               	movf	(logf@ux+3)& (0+255),w,b
  3667   002068  E109               	bnz	u4930
  3668   00206A  0E80               	movlw	128
  3669   00206C  5D9E               	subwf	(logf@ux+2)& (0+255),w,b
  3670   00206E  A0D8               	btfss	status,0,c
  3671   002070  EF3C  F010         	goto	u4931
  3672   002074  EF3E  F010         	goto	u4930
  3673   002078                     u4931:
  3674   002078  EF45  F010         	goto	l4215
  3675   00207C                     u4930:
  3676   00207C                     
  3677                           ; BSR set to: 0
  3678   00207C  AF9F               	btfss	(logf@ux+3)& (0+255),7,b
  3679   00207E  EF43  F010         	goto	u4941
  3680   002082  EF45  F010         	goto	u4940
  3681   002086                     u4941:
  3682   002086  EF9F  F010         	goto	l4233
  3683   00208A                     u4940:
  3684   00208A                     l4215:
  3685                           
  3686                           ; BSR set to: 0
  3687   00208A  90D8               	bcf	status,0,c
  3688   00208C  359C               	rlcf	logf@ux& (0+255),w,b
  3689   00208E  6F60               	movwf	??_logf& (0+255),b
  3690   002090  359D               	rlcf	(logf@ux+1)& (0+255),w,b
  3691   002092  6F61               	movwf	(??_logf+1)& (0+255),b
  3692   002094  359E               	rlcf	(logf@ux+2)& (0+255),w,b
  3693   002096  6F62               	movwf	(??_logf+2)& (0+255),b
  3694   002098  359F               	rlcf	(logf@ux+3)& (0+255),w,b
  3695   00209A  6F63               	movwf	(??_logf+3)& (0+255),b
  3696   00209C  5160               	movf	??_logf& (0+255),w,b
  3697   00209E  1161               	iorwf	(??_logf+1)& (0+255),w,b
  3698   0020A0  1162               	iorwf	(??_logf+2)& (0+255),w,b
  3699   0020A2  1163               	iorwf	(??_logf+3)& (0+255),w,b
  3700   0020A4  A4D8               	btfss	status,2,c
  3701   0020A6  EF57  F010         	goto	u4951
  3702   0020AA  EF59  F010         	goto	u4950
  3703   0020AE                     u4951:
  3704   0020AE  EF6B  F010         	goto	l986
  3705   0020B2                     u4950:
  3706   0020B2                     
  3707                           ; BSR set to: 0
  3708   0020B2  0E00               	movlw	0
  3709   0020B4  6F9C               	movwf	logf@ux& (0+255),b
  3710   0020B6  0E00               	movlw	0
  3711   0020B8  6F9D               	movwf	(logf@ux+1)& (0+255),b
  3712   0020BA  0E80               	movlw	128
  3713   0020BC  6F9E               	movwf	(logf@ux+2)& (0+255),b
  3714   0020BE  0EFF               	movlw	255
  3715   0020C0  6F9F               	movwf	(logf@ux+3)& (0+255),b
  3716   0020C2                     l4219:
  3717                           
  3718                           ; BSR set to: 0
  3719   0020C2  C09C  F059         	movff	logf@ux,?_logf
  3720   0020C6  C09D  F05A         	movff	logf@ux+1,?_logf+1
  3721   0020CA  C09E  F05B         	movff	logf@ux+2,?_logf+2
  3722   0020CE  C09F  F05C         	movff	logf@ux+3,?_logf+3
  3723   0020D2  EF2A  F013         	goto	l987
  3724   0020D6                     l986:
  3725                           
  3726                           ; BSR set to: 0
  3727   0020D6  AF9F               	btfss	(logf@ux+3)& (0+255),7,b
  3728   0020D8  EF70  F010         	goto	u4961
  3729   0020DC  EF72  F010         	goto	u4960
  3730   0020E0                     u4961:
  3731   0020E0  EF7F  F010         	goto	l4229
  3732   0020E4                     u4960:
  3733   0020E4                     
  3734                           ; BSR set to: 0
  3735   0020E4  6BFD               	clrf	(_errno+1)& (0+255),b
  3736   0020E6  0E21               	movlw	33
  3737   0020E8  6FFC               	movwf	_errno& (0+255),b
  3738   0020EA  0EFF               	movlw	255
  3739   0020EC  6F9C               	movwf	logf@ux& (0+255),b
  3740   0020EE  0EFF               	movlw	255
  3741   0020F0  6F9D               	movwf	(logf@ux+1)& (0+255),b
  3742   0020F2  0EFF               	movlw	255
  3743   0020F4  6F9E               	movwf	(logf@ux+2)& (0+255),b
  3744   0020F6  0E7F               	movlw	127
  3745   0020F8  6F9F               	movwf	(logf@ux+3)& (0+255),b
  3746   0020FA  EF61  F010         	goto	l4219
  3747   0020FE                     l4229:
  3748                           
  3749                           ; BSR set to: 0
  3750   0020FE  0EE7               	movlw	231
  3751   002100  2782               	addwf	logf@k& (0+255),f,b
  3752   002102  0EFF               	movlw	255
  3753   002104  2383               	addwfc	(logf@k+1)& (0+255),f,b
  3754   002106                     
  3755                           ; BSR set to: 0
  3756   002106  C09C  F00F         	movff	logf@ux,___flmul@b
  3757   00210A  C09D  F010         	movff	logf@ux+1,___flmul@b+1
  3758   00210E  C09E  F011         	movff	logf@ux+2,___flmul@b+2
  3759   002112  C09F  F012         	movff	logf@ux+3,___flmul@b+3
  3760   002116  0E00               	movlw	0
  3761   002118  6E13               	movwf	___flmul@a^0,c
  3762   00211A  0E00               	movlw	0
  3763   00211C  6E14               	movwf	(___flmul@a+1)^0,c
  3764   00211E  0E00               	movlw	0
  3765   002120  6E15               	movwf	(___flmul@a+2)^0,c
  3766   002122  0E4C               	movlw	76
  3767   002124  6E16               	movwf	(___flmul@a+3)^0,c
  3768   002126  EC86  F015         	call	___flmul	;wreg free
  3769   00212A  C00F  F09C         	movff	?___flmul,logf@ux
  3770   00212E  C010  F09D         	movff	?___flmul+1,logf@ux+1
  3771   002132  C011  F09E         	movff	?___flmul+2,logf@ux+2
  3772   002136  C012  F09F         	movff	?___flmul+3,logf@ux+3
  3773   00213A  EFCC  F010         	goto	l4245
  3774   00213E                     l4233:
  3775                           
  3776                           ; BSR set to: 0
  3777   00213E  0E80               	movlw	128
  3778   002140  5D9E               	subwf	(logf@ux+2)& (0+255),w,b
  3779   002142  0E7F               	movlw	127
  3780   002144  599F               	subwfb	(logf@ux+3)& (0+255),w,b
  3781   002146  A0D8               	btfss	status,0,c
  3782   002148  EFA8  F010         	goto	u4971
  3783   00214C  EFAA  F010         	goto	u4970
  3784   002150                     u4971:
  3785   002150  EFB4  F010         	goto	l4239
  3786   002154                     u4970:
  3787   002154                     
  3788                           ; BSR set to: 0
  3789   002154  C059  F059         	movff	logf@x,?_logf
  3790   002158  C05A  F05A         	movff	logf@x+1,?_logf+1
  3791   00215C  C05B  F05B         	movff	logf@x+2,?_logf+2
  3792   002160  C05C  F05C         	movff	logf@x+3,?_logf+3
  3793   002164  EF2A  F013         	goto	l987
  3794   002168                     l4239:
  3795                           
  3796                           ; BSR set to: 0
  3797   002168  0E80               	movlw	128
  3798   00216A  199E               	xorwf	(logf@ux+2)& (0+255),w,b
  3799   00216C  E109               	bnz	u4981
  3800   00216E  0E3F               	movlw	63
  3801   002170  199F               	xorwf	(logf@ux+3)& (0+255),w,b
  3802   002172  119C               	iorwf	logf@ux& (0+255),w,b
  3803   002174  119D               	iorwf	(logf@ux+1)& (0+255),w,b
  3804   002176  A4D8               	btfss	status,2,c
  3805   002178  EFC0  F010         	goto	u4981
  3806   00217C  EFC2  F010         	goto	u4980
  3807   002180                     u4981:
  3808   002180  EFCC  F010         	goto	l4245
  3809   002184                     u4980:
  3810   002184                     
  3811                           ; BSR set to: 0
  3812   002184  0E00               	movlw	0
  3813   002186  6E59               	movwf	?_logf^0,c
  3814   002188  0E00               	movlw	0
  3815   00218A  6E5A               	movwf	(?_logf+1)^0,c
  3816   00218C  0E00               	movlw	0
  3817   00218E  6E5B               	movwf	(?_logf+2)^0,c
  3818   002190  0E00               	movlw	0
  3819   002192  6E5C               	movwf	(?_logf+3)^0,c
  3820   002194  EF2A  F013         	goto	l987
  3821   002198                     l4245:
  3822   002198  0E0D               	movlw	13
  3823   00219A  0100               	movlb	0	; () banked
  3824   00219C  279C               	addwf	logf@ux& (0+255),f,b
  3825   00219E  0EFB               	movlw	251
  3826   0021A0  239D               	addwfc	(logf@ux+1)& (0+255),f,b
  3827   0021A2  0E4A               	movlw	74
  3828   0021A4  239E               	addwfc	(logf@ux+2)& (0+255),f,b
  3829   0021A6  0E00               	movlw	0
  3830   0021A8  239F               	addwfc	(logf@ux+3)& (0+255),f,b
  3831   0021AA  C09C  F060         	movff	logf@ux,??_logf
  3832   0021AE  C09D  F061         	movff	logf@ux+1,??_logf+1
  3833   0021B2  C09E  F062         	movff	logf@ux+2,??_logf+2
  3834   0021B6  C09F  F063         	movff	logf@ux+3,??_logf+3
  3835   0021BA  0E18               	movlw	24
  3836   0021BC  EFE5  F010         	goto	u4990
  3837   0021C0                     u4995:
  3838   0021C0  90D8               	bcf	status,0,c
  3839   0021C2  3363               	rrcf	(??_logf+3)& (0+255),f,b
  3840   0021C4  3362               	rrcf	(??_logf+2)& (0+255),f,b
  3841   0021C6  3361               	rrcf	(??_logf+1)& (0+255),f,b
  3842   0021C8  3360               	rrcf	??_logf& (0+255),f,b
  3843   0021CA                     u4990:
  3844   0021CA  2EE8               	decfsz	wreg,f,c
  3845   0021CC  EFE0  F010         	goto	u4995
  3846   0021D0  0E81               	movlw	129
  3847   0021D2  2560               	addwf	??_logf& (0+255),w,b
  3848   0021D4  6F64               	movwf	(??_logf+4)& (0+255),b
  3849   0021D6  0EFF               	movlw	255
  3850   0021D8  2161               	addwfc	(??_logf+1)& (0+255),w,b
  3851   0021DA  6F65               	movwf	(??_logf+5)& (0+255),b
  3852   0021DC  5164               	movf	(??_logf+4)& (0+255),w,b
  3853   0021DE  2782               	addwf	logf@k& (0+255),f,b
  3854   0021E0  5165               	movf	(??_logf+5)& (0+255),w,b
  3855   0021E2  2383               	addwfc	(logf@k+1)& (0+255),f,b
  3856   0021E4  0EFF               	movlw	255
  3857   0021E6  159C               	andwf	logf@ux& (0+255),w,b
  3858   0021E8  6F60               	movwf	??_logf& (0+255),b
  3859   0021EA  0EFF               	movlw	255
  3860   0021EC  159D               	andwf	(logf@ux+1)& (0+255),w,b
  3861   0021EE  6F61               	movwf	(??_logf+1)& (0+255),b
  3862   0021F0  0E7F               	movlw	127
  3863   0021F2  159E               	andwf	(logf@ux+2)& (0+255),w,b
  3864   0021F4  6F62               	movwf	(??_logf+2)& (0+255),b
  3865   0021F6  0E00               	movlw	0
  3866   0021F8  159F               	andwf	(logf@ux+3)& (0+255),w,b
  3867   0021FA  6F63               	movwf	(??_logf+3)& (0+255),b
  3868   0021FC  0EF3               	movlw	243
  3869   0021FE  2560               	addwf	??_logf& (0+255),w,b
  3870   002200  6F9C               	movwf	logf@ux& (0+255),b
  3871   002202  0E04               	movlw	4
  3872   002204  2161               	addwfc	(??_logf+1)& (0+255),w,b
  3873   002206  6F9D               	movwf	(logf@ux+1)& (0+255),b
  3874   002208  0E35               	movlw	53
  3875   00220A  2162               	addwfc	(??_logf+2)& (0+255),w,b
  3876   00220C  6F9E               	movwf	(logf@ux+2)& (0+255),b
  3877   00220E  0E3F               	movlw	63
  3878   002210  2163               	addwfc	(??_logf+3)& (0+255),w,b
  3879   002212  6F9F               	movwf	(logf@ux+3)& (0+255),b
  3880   002214                     
  3881                           ; BSR set to: 0
  3882   002214  C09C  F038         	movff	logf@ux,___flsub@b
  3883   002218  C09D  F039         	movff	logf@ux+1,___flsub@b+1
  3884   00221C  C09E  F03A         	movff	logf@ux+2,___flsub@b+2
  3885   002220  C09F  F03B         	movff	logf@ux+3,___flsub@b+3
  3886   002224  0E00               	movlw	0
  3887   002226  6E3C               	movwf	___flsub@a^0,c
  3888   002228  0E00               	movlw	0
  3889   00222A  6E3D               	movwf	(___flsub@a+1)^0,c
  3890   00222C  0E80               	movlw	128
  3891   00222E  6E3E               	movwf	(___flsub@a+2)^0,c
  3892   002230  0E3F               	movlw	63
  3893   002232  6E3F               	movwf	(___flsub@a+3)^0,c
  3894   002234  EC0C  F023         	call	___flsub	;wreg free
  3895   002238  C038  F09C         	movff	?___flsub,logf@ux
  3896   00223C  C039  F09D         	movff	?___flsub+1,logf@ux+1
  3897   002240  C03A  F09E         	movff	?___flsub+2,logf@ux+2
  3898   002244  C03B  F09F         	movff	?___flsub+3,logf@ux+3
  3899   002248  C09C  F040         	movff	logf@ux,___fldiv@b
  3900   00224C  C09D  F041         	movff	logf@ux+1,___fldiv@b+1
  3901   002250  C09E  F042         	movff	logf@ux+2,___fldiv@b+2
  3902   002254  C09F  F043         	movff	logf@ux+3,___fldiv@b+3
  3903   002258  0E00               	movlw	0
  3904   00225A  6E2C               	movwf	___fladd@a^0,c
  3905   00225C  0E00               	movlw	0
  3906   00225E  6E2D               	movwf	(___fladd@a+1)^0,c
  3907   002260  0E00               	movlw	0
  3908   002262  6E2E               	movwf	(___fladd@a+2)^0,c
  3909   002264  0E40               	movlw	64
  3910   002266  6E2F               	movwf	(___fladd@a+3)^0,c
  3911   002268  C09C  F028         	movff	logf@ux,___fladd@b
  3912   00226C  C09D  F029         	movff	logf@ux+1,___fladd@b+1
  3913   002270  C09E  F02A         	movff	logf@ux+2,___fladd@b+2
  3914   002274  C09F  F02B         	movff	logf@ux+3,___fladd@b+3
  3915   002278  EC2B  F013         	call	___fladd	;wreg free
  3916   00227C  C028  F044         	movff	?___fladd,___fldiv@a
  3917   002280  C029  F045         	movff	?___fladd+1,___fldiv@a+1
  3918   002284  C02A  F046         	movff	?___fladd+2,___fldiv@a+2
  3919   002288  C02B  F047         	movff	?___fladd+3,___fldiv@a+3
  3920   00228C  EC99  F017         	call	___fldiv	;wreg free
  3921   002290  C040  F08C         	movff	?___fldiv,logf@s
  3922   002294  C041  F08D         	movff	?___fldiv+1,logf@s+1
  3923   002298  C042  F08E         	movff	?___fldiv+2,logf@s+2
  3924   00229C  C043  F08F         	movff	?___fldiv+3,logf@s+3
  3925   0022A0  C08C  F00F         	movff	logf@s,___flmul@b
  3926   0022A4  C08D  F010         	movff	logf@s+1,___flmul@b+1
  3927   0022A8  C08E  F011         	movff	logf@s+2,___flmul@b+2
  3928   0022AC  C08F  F012         	movff	logf@s+3,___flmul@b+3
  3929   0022B0  C08C  F013         	movff	logf@s,___flmul@a
  3930   0022B4  C08D  F014         	movff	logf@s+1,___flmul@a+1
  3931   0022B8  C08E  F015         	movff	logf@s+2,___flmul@a+2
  3932   0022BC  C08F  F016         	movff	logf@s+3,___flmul@a+3
  3933   0022C0  EC86  F015         	call	___flmul	;wreg free
  3934   0022C4  C00F  F090         	movff	?___flmul,logf@z
  3935   0022C8  C010  F091         	movff	?___flmul+1,logf@z+1
  3936   0022CC  C011  F092         	movff	?___flmul+2,logf@z+2
  3937   0022D0  C012  F093         	movff	?___flmul+3,logf@z+3
  3938   0022D4  C090  F00F         	movff	logf@z,___flmul@b
  3939   0022D8  C091  F010         	movff	logf@z+1,___flmul@b+1
  3940   0022DC  C092  F011         	movff	logf@z+2,___flmul@b+2
  3941   0022E0  C093  F012         	movff	logf@z+3,___flmul@b+3
  3942   0022E4  C090  F013         	movff	logf@z,___flmul@a
  3943   0022E8  C091  F014         	movff	logf@z+1,___flmul@a+1
  3944   0022EC  C092  F015         	movff	logf@z+2,___flmul@a+2
  3945   0022F0  C093  F016         	movff	logf@z+3,___flmul@a+3
  3946   0022F4  EC86  F015         	call	___flmul	;wreg free
  3947   0022F8  C00F  F094         	movff	?___flmul,logf@w
  3948   0022FC  C010  F095         	movff	?___flmul+1,logf@w+1
  3949   002300  C011  F096         	movff	?___flmul+2,logf@w+2
  3950   002304  C012  F097         	movff	?___flmul+3,logf@w+3
  3951   002308  0E13               	movlw	19
  3952   00230A  6E2C               	movwf	___fladd@a^0,c
  3953   00230C  0ECE               	movlw	206
  3954   00230E  6E2D               	movwf	(___fladd@a+1)^0,c
  3955   002310  0ECC               	movlw	204
  3956   002312  6E2E               	movwf	(___fladd@a+2)^0,c
  3957   002314  0E3E               	movlw	62
  3958   002316  6E2F               	movwf	(___fladd@a+3)^0,c
  3959   002318  0E26               	movlw	38
  3960   00231A  6E13               	movwf	___flmul@a^0,c
  3961   00231C  0E9E               	movlw	158
  3962   00231E  6E14               	movwf	(___flmul@a+1)^0,c
  3963   002320  0E78               	movlw	120
  3964   002322  6E15               	movwf	(___flmul@a+2)^0,c
  3965   002324  0E3E               	movlw	62
  3966   002326  6E16               	movwf	(___flmul@a+3)^0,c
  3967   002328  C094  F00F         	movff	logf@w,___flmul@b
  3968   00232C  C095  F010         	movff	logf@w+1,___flmul@b+1
  3969   002330  C096  F011         	movff	logf@w+2,___flmul@b+2
  3970   002334  C097  F012         	movff	logf@w+3,___flmul@b+3
  3971   002338  EC86  F015         	call	___flmul	;wreg free
  3972   00233C  C00F  F028         	movff	?___flmul,___fladd@b
  3973   002340  C010  F029         	movff	?___flmul+1,___fladd@b+1
  3974   002344  C011  F02A         	movff	?___flmul+2,___fladd@b+2
  3975   002348  C012  F02B         	movff	?___flmul+3,___fladd@b+3
  3976   00234C  EC2B  F013         	call	___fladd	;wreg free
  3977   002350  C028  F098         	movff	?___fladd,_logf$1578
  3978   002354  C029  F099         	movff	?___fladd+1,_logf$1578+1
  3979   002358  C02A  F09A         	movff	?___fladd+2,_logf$1578+2
  3980   00235C  C02B  F09B         	movff	?___fladd+3,_logf$1578+3
  3981   002360  C098  F00F         	movff	_logf$1578,___flmul@b
  3982   002364  C099  F010         	movff	_logf$1578+1,___flmul@b+1
  3983   002368  C09A  F011         	movff	_logf$1578+2,___flmul@b+2
  3984   00236C  C09B  F012         	movff	_logf$1578+3,___flmul@b+3
  3985   002370  C094  F013         	movff	logf@w,___flmul@a
  3986   002374  C095  F014         	movff	logf@w+1,___flmul@a+1
  3987   002378  C096  F015         	movff	logf@w+2,___flmul@a+2
  3988   00237C  C097  F016         	movff	logf@w+3,___flmul@a+3
  3989   002380  EC86  F015         	call	___flmul	;wreg free
  3990   002384  C00F  F06A         	movff	?___flmul,logf@t1
  3991   002388  C010  F06B         	movff	?___flmul+1,logf@t1+1
  3992   00238C  C011  F06C         	movff	?___flmul+2,logf@t1+2
  3993   002390  C012  F06D         	movff	?___flmul+3,logf@t1+3
  3994   002394  0EAA               	movlw	170
  3995   002396  6E2C               	movwf	___fladd@a^0,c
  3996   002398  0EAA               	movlw	170
  3997   00239A  6E2D               	movwf	(___fladd@a+1)^0,c
  3998   00239C  0E2A               	movlw	42
  3999   00239E  6E2E               	movwf	(___fladd@a+2)^0,c
  4000   0023A0  0E3F               	movlw	63
  4001   0023A2  6E2F               	movwf	(___fladd@a+3)^0,c
  4002   0023A4  0EEE               	movlw	238
  4003   0023A6  6E13               	movwf	___flmul@a^0,c
  4004   0023A8  0EE9               	movlw	233
  4005   0023AA  6E14               	movwf	(___flmul@a+1)^0,c
  4006   0023AC  0E91               	movlw	145
  4007   0023AE  6E15               	movwf	(___flmul@a+2)^0,c
  4008   0023B0  0E3E               	movlw	62
  4009   0023B2  6E16               	movwf	(___flmul@a+3)^0,c
  4010   0023B4  C094  F00F         	movff	logf@w,___flmul@b
  4011   0023B8  C095  F010         	movff	logf@w+1,___flmul@b+1
  4012   0023BC  C096  F011         	movff	logf@w+2,___flmul@b+2
  4013   0023C0  C097  F012         	movff	logf@w+3,___flmul@b+3
  4014   0023C4  EC86  F015         	call	___flmul	;wreg free
  4015   0023C8  C00F  F028         	movff	?___flmul,___fladd@b
  4016   0023CC  C010  F029         	movff	?___flmul+1,___fladd@b+1
  4017   0023D0  C011  F02A         	movff	?___flmul+2,___fladd@b+2
  4018   0023D4  C012  F02B         	movff	?___flmul+3,___fladd@b+3
  4019   0023D8  EC2B  F013         	call	___fladd	;wreg free
  4020   0023DC  C028  F098         	movff	?___fladd,_logf$1578
  4021   0023E0  C029  F099         	movff	?___fladd+1,_logf$1578+1
  4022   0023E4  C02A  F09A         	movff	?___fladd+2,_logf$1578+2
  4023   0023E8  C02B  F09B         	movff	?___fladd+3,_logf$1578+3
  4024   0023EC  C098  F00F         	movff	_logf$1578,___flmul@b
  4025   0023F0  C099  F010         	movff	_logf$1578+1,___flmul@b+1
  4026   0023F4  C09A  F011         	movff	_logf$1578+2,___flmul@b+2
  4027   0023F8  C09B  F012         	movff	_logf$1578+3,___flmul@b+3
  4028   0023FC  C090  F013         	movff	logf@z,___flmul@a
  4029   002400  C091  F014         	movff	logf@z+1,___flmul@a+1
  4030   002404  C092  F015         	movff	logf@z+2,___flmul@a+2
  4031   002408  C093  F016         	movff	logf@z+3,___flmul@a+3
  4032   00240C  EC86  F015         	call	___flmul	;wreg free
  4033   002410  C00F  F06E         	movff	?___flmul,logf@t2
  4034   002414  C010  F06F         	movff	?___flmul+1,logf@t2+1
  4035   002418  C011  F070         	movff	?___flmul+2,logf@t2+2
  4036   00241C  C012  F071         	movff	?___flmul+3,logf@t2+3
  4037   002420  C06E  F028         	movff	logf@t2,___fladd@b
  4038   002424  C06F  F029         	movff	logf@t2+1,___fladd@b+1
  4039   002428  C070  F02A         	movff	logf@t2+2,___fladd@b+2
  4040   00242C  C071  F02B         	movff	logf@t2+3,___fladd@b+3
  4041   002430  C06A  F02C         	movff	logf@t1,___fladd@a
  4042   002434  C06B  F02D         	movff	logf@t1+1,___fladd@a+1
  4043   002438  C06C  F02E         	movff	logf@t1+2,___fladd@a+2
  4044   00243C  C06D  F02F         	movff	logf@t1+3,___fladd@a+3
  4045   002440  EC2B  F013         	call	___fladd	;wreg free
  4046   002444  C028  F066         	movff	?___fladd,logf@R
  4047   002448  C029  F067         	movff	?___fladd+1,logf@R+1
  4048   00244C  C02A  F068         	movff	?___fladd+2,logf@R+2
  4049   002450  C02B  F069         	movff	?___fladd+3,logf@R+3
  4050   002454  0E00               	movlw	0
  4051   002456  6E13               	movwf	___flmul@a^0,c
  4052   002458  0E00               	movlw	0
  4053   00245A  6E14               	movwf	(___flmul@a+1)^0,c
  4054   00245C  0E00               	movlw	0
  4055   00245E  6E15               	movwf	(___flmul@a+2)^0,c
  4056   002460  0E3F               	movlw	63
  4057   002462  6E16               	movwf	(___flmul@a+3)^0,c
  4058   002464  C09C  F00F         	movff	logf@ux,___flmul@b
  4059   002468  C09D  F010         	movff	logf@ux+1,___flmul@b+1
  4060   00246C  C09E  F011         	movff	logf@ux+2,___flmul@b+2
  4061   002470  C09F  F012         	movff	logf@ux+3,___flmul@b+3
  4062   002474  EC86  F015         	call	___flmul	;wreg free
  4063   002478  C00F  F098         	movff	?___flmul,_logf$1578
  4064   00247C  C010  F099         	movff	?___flmul+1,_logf$1578+1
  4065   002480  C011  F09A         	movff	?___flmul+2,_logf$1578+2
  4066   002484  C012  F09B         	movff	?___flmul+3,_logf$1578+3
  4067   002488  C098  F00F         	movff	_logf$1578,___flmul@b
  4068   00248C  C099  F010         	movff	_logf$1578+1,___flmul@b+1
  4069   002490  C09A  F011         	movff	_logf$1578+2,___flmul@b+2
  4070   002494  C09B  F012         	movff	_logf$1578+3,___flmul@b+3
  4071   002498  C09C  F013         	movff	logf@ux,___flmul@a
  4072   00249C  C09D  F014         	movff	logf@ux+1,___flmul@a+1
  4073   0024A0  C09E  F015         	movff	logf@ux+2,___flmul@a+2
  4074   0024A4  C09F  F016         	movff	logf@ux+3,___flmul@a+3
  4075   0024A8  EC86  F015         	call	___flmul	;wreg free
  4076   0024AC  C00F  F084         	movff	?___flmul,logf@hfsq
  4077   0024B0  C010  F085         	movff	?___flmul+1,logf@hfsq+1
  4078   0024B4  C011  F086         	movff	?___flmul+2,logf@hfsq+2
  4079   0024B8  C012  F087         	movff	?___flmul+3,logf@hfsq+3
  4080   0024BC  C082  F001         	movff	logf@k,___xxtofl@val
  4081   0024C0  C083  F002         	movff	logf@k+1,___xxtofl@val+1
  4082   0024C4  0E00               	movlw	0
  4083   0024C6  BE02               	btfsc	(___xxtofl@val+1)^0,7,c
  4084   0024C8  0EFF               	movlw	-1
  4085   0024CA  6E03               	movwf	(___xxtofl@val+2)^0,c
  4086   0024CC  6E04               	movwf	(___xxtofl@val+3)^0,c
  4087   0024CE  0E01               	movlw	1
  4088   0024D0  EC4E  F01B         	call	___xxtofl
  4089   0024D4  C001  F088         	movff	?___xxtofl,logf@dk
  4090   0024D8  C002  F089         	movff	?___xxtofl+1,logf@dk+1
  4091   0024DC  C003  F08A         	movff	?___xxtofl+2,logf@dk+2
  4092   0024E0  C004  F08B         	movff	?___xxtofl+3,logf@dk+3
  4093   0024E4  C08C  F013         	movff	logf@s,___flmul@a
  4094   0024E8  C08D  F014         	movff	logf@s+1,___flmul@a+1
  4095   0024EC  C08E  F015         	movff	logf@s+2,___flmul@a+2
  4096   0024F0  C08F  F016         	movff	logf@s+3,___flmul@a+3
  4097   0024F4  C066  F02C         	movff	logf@R,___fladd@a
  4098   0024F8  C067  F02D         	movff	logf@R+1,___fladd@a+1
  4099   0024FC  C068  F02E         	movff	logf@R+2,___fladd@a+2
  4100   002500  C069  F02F         	movff	logf@R+3,___fladd@a+3
  4101   002504  C084  F028         	movff	logf@hfsq,___fladd@b
  4102   002508  C085  F029         	movff	logf@hfsq+1,___fladd@b+1
  4103   00250C  C086  F02A         	movff	logf@hfsq+2,___fladd@b+2
  4104   002510  C087  F02B         	movff	logf@hfsq+3,___fladd@b+3
  4105   002514  EC2B  F013         	call	___fladd	;wreg free
  4106   002518  C028  F00F         	movff	?___fladd,___flmul@b
  4107   00251C  C029  F010         	movff	?___fladd+1,___flmul@b+1
  4108   002520  C02A  F011         	movff	?___fladd+2,___flmul@b+2
  4109   002524  C02B  F012         	movff	?___fladd+3,___flmul@b+3
  4110   002528  EC86  F015         	call	___flmul	;wreg free
  4111   00252C  C00F  F072         	movff	?___flmul,_logf$1579
  4112   002530  C010  F073         	movff	?___flmul+1,_logf$1579+1
  4113   002534  C011  F074         	movff	?___flmul+2,_logf$1579+2
  4114   002538  C012  F075         	movff	?___flmul+3,_logf$1579+3
  4115   00253C  0ED1               	movlw	209
  4116   00253E  6E13               	movwf	___flmul@a^0,c
  4117   002540  0EF7               	movlw	247
  4118   002542  6E14               	movwf	(___flmul@a+1)^0,c
  4119   002544  0E17               	movlw	23
  4120   002546  6E15               	movwf	(___flmul@a+2)^0,c
  4121   002548  0E37               	movlw	55
  4122   00254A  6E16               	movwf	(___flmul@a+3)^0,c
  4123   00254C  C088  F00F         	movff	logf@dk,___flmul@b
  4124   002550  C089  F010         	movff	logf@dk+1,___flmul@b+1
  4125   002554  C08A  F011         	movff	logf@dk+2,___flmul@b+2
  4126   002558  C08B  F012         	movff	logf@dk+3,___flmul@b+3
  4127   00255C  EC86  F015         	call	___flmul	;wreg free
  4128   002560  C00F  F02C         	movff	?___flmul,___fladd@a
  4129   002564  C010  F02D         	movff	?___flmul+1,___fladd@a+1
  4130   002568  C011  F02E         	movff	?___flmul+2,___fladd@a+2
  4131   00256C  C012  F02F         	movff	?___flmul+3,___fladd@a+3
  4132   002570  C072  F028         	movff	_logf$1579,___fladd@b
  4133   002574  C073  F029         	movff	_logf$1579+1,___fladd@b+1
  4134   002578  C074  F02A         	movff	_logf$1579+2,___fladd@b+2
  4135   00257C  C075  F02B         	movff	_logf$1579+3,___fladd@b+3
  4136   002580  EC2B  F013         	call	___fladd	;wreg free
  4137   002584  C028  F076         	movff	?___fladd,_logf$1580
  4138   002588  C029  F077         	movff	?___fladd+1,_logf$1580+1
  4139   00258C  C02A  F078         	movff	?___fladd+2,_logf$1580+2
  4140   002590  C02B  F079         	movff	?___fladd+3,_logf$1580+3
  4141   002594  C084  F03C         	movff	logf@hfsq,___flsub@a
  4142   002598  C085  F03D         	movff	logf@hfsq+1,___flsub@a+1
  4143   00259C  C086  F03E         	movff	logf@hfsq+2,___flsub@a+2
  4144   0025A0  C087  F03F         	movff	logf@hfsq+3,___flsub@a+3
  4145   0025A4  C076  F038         	movff	_logf$1580,___flsub@b
  4146   0025A8  C077  F039         	movff	_logf$1580+1,___flsub@b+1
  4147   0025AC  C078  F03A         	movff	_logf$1580+2,___flsub@b+2
  4148   0025B0  C079  F03B         	movff	_logf$1580+3,___flsub@b+3
  4149   0025B4  EC0C  F023         	call	___flsub	;wreg free
  4150   0025B8  C038  F07A         	movff	?___flsub,_logf$1581
  4151   0025BC  C039  F07B         	movff	?___flsub+1,_logf$1581+1
  4152   0025C0  C03A  F07C         	movff	?___flsub+2,_logf$1581+2
  4153   0025C4  C03B  F07D         	movff	?___flsub+3,_logf$1581+3
  4154   0025C8  C09C  F02C         	movff	logf@ux,___fladd@a
  4155   0025CC  C09D  F02D         	movff	logf@ux+1,___fladd@a+1
  4156   0025D0  C09E  F02E         	movff	logf@ux+2,___fladd@a+2
  4157   0025D4  C09F  F02F         	movff	logf@ux+3,___fladd@a+3
  4158   0025D8  C07A  F028         	movff	_logf$1581,___fladd@b
  4159   0025DC  C07B  F029         	movff	_logf$1581+1,___fladd@b+1
  4160   0025E0  C07C  F02A         	movff	_logf$1581+2,___fladd@b+2
  4161   0025E4  C07D  F02B         	movff	_logf$1581+3,___fladd@b+3
  4162   0025E8  EC2B  F013         	call	___fladd	;wreg free
  4163   0025EC  C028  F07E         	movff	?___fladd,_logf$1582
  4164   0025F0  C029  F07F         	movff	?___fladd+1,_logf$1582+1
  4165   0025F4  C02A  F080         	movff	?___fladd+2,_logf$1582+2
  4166   0025F8  C02B  F081         	movff	?___fladd+3,_logf$1582+3
  4167   0025FC  C07E  F028         	movff	_logf$1582,___fladd@b
  4168   002600  C07F  F029         	movff	_logf$1582+1,___fladd@b+1
  4169   002604  C080  F02A         	movff	_logf$1582+2,___fladd@b+2
  4170   002608  C081  F02B         	movff	_logf$1582+3,___fladd@b+3
  4171   00260C  0E80               	movlw	128
  4172   00260E  6E13               	movwf	___flmul@a^0,c
  4173   002610  0E71               	movlw	113
  4174   002612  6E14               	movwf	(___flmul@a+1)^0,c
  4175   002614  0E31               	movlw	49
  4176   002616  6E15               	movwf	(___flmul@a+2)^0,c
  4177   002618  0E3F               	movlw	63
  4178   00261A  6E16               	movwf	(___flmul@a+3)^0,c
  4179   00261C  C088  F00F         	movff	logf@dk,___flmul@b
  4180   002620  C089  F010         	movff	logf@dk+1,___flmul@b+1
  4181   002624  C08A  F011         	movff	logf@dk+2,___flmul@b+2
  4182   002628  C08B  F012         	movff	logf@dk+3,___flmul@b+3
  4183   00262C  EC86  F015         	call	___flmul	;wreg free
  4184   002630  C00F  F02C         	movff	?___flmul,___fladd@a
  4185   002634  C010  F02D         	movff	?___flmul+1,___fladd@a+1
  4186   002638  C011  F02E         	movff	?___flmul+2,___fladd@a+2
  4187   00263C  C012  F02F         	movff	?___flmul+3,___fladd@a+3
  4188   002640  EC2B  F013         	call	___fladd	;wreg free
  4189   002644  C028  F059         	movff	?___fladd,?_logf
  4190   002648  C029  F05A         	movff	?___fladd+1,?_logf+1
  4191   00264C  C02A  F05B         	movff	?___fladd+2,?_logf+2
  4192   002650  C02B  F05C         	movff	?___fladd+3,?_logf+3
  4193   002654                     l987:
  4194   002654  0012               	return		;funcret
  4195   002656                     __end_of_logf:
  4196                           	callstack 0
  4197                           
  4198 ;; *************** function ___fldiv *****************
  4199 ;; Defined at:
  4200 ;;		line 11 in file "C:\Program Files\Microchip\xc8\v3.10\pic\sources\c99\common\sprcdiv.c"
  4201 ;; Parameters:    Size  Location     Type
  4202 ;;  b               4   63[COMRAM] float 
  4203 ;;  a               4   67[COMRAM] float 
  4204 ;; Auto vars:     Size  Location     Type
  4205 ;;  grs             4   82[COMRAM] unsigned long 
  4206 ;;  rem             4   75[COMRAM] unsigned long 
  4207 ;;  new_exp         2   80[COMRAM] short 
  4208 ;;  aexp            1   87[COMRAM] unsigned char 
  4209 ;;  bexp            1   86[COMRAM] unsigned char 
  4210 ;;  sign            1   79[COMRAM] unsigned char 
  4211 ;; Return value:  Size  Location     Type
  4212 ;;                  4   63[COMRAM] unsigned char 
  4213 ;; Registers used:
  4214 ;;		wreg, status,2, status,0
  4215 ;; Tracked objects:
  4216 ;;		On entry : 0/0
  4217 ;;		On exit  : 0/0
  4218 ;;		Unchanged: 0/0
  4219 ;; Data sizes:     COMRAM   BANK0   BANK1   BANK2   BANK3   BANK4   BANK5   BANK6   BANK7   BANK8   BANK9  BANK10  BANK1
      +1  BANK12
  4220 ;;      Params:         8       0       0       0       0       0       0       0       0       0       0       0       
      +0       0
  4221 ;;      Locals:        13       0       0       0       0       0       0       0       0       0       0       0       
      +0       0
  4222 ;;      Temps:          4       0       0       0       0       0       0       0       0       0       0       0       
      +0       0
  4223 ;;      Totals:        25       0       0       0       0       0       0       0       0       0       0       0       
      +0       0
  4224 ;;Total ram usage:       25 bytes
  4225 ;; Hardware stack levels used: 1
  4226 ;; This function calls:
  4227 ;;		Nothing
  4228 ;; This function is called by:
  4229 ;;		_main
  4230 ;;		_logf
  4231 ;; This function uses a non-reentrant model
  4232 ;;
  4233                           
  4234                           	psect	text2
  4235   002F32                     __ptext2:
  4236                           	callstack 0
  4237   002F32                     ___fldiv:
  4238                           	callstack 29
  4239   002F32  5043               	movf	(___fldiv@b+3)^0,w,c
  4240   002F34  0B80               	andlw	128
  4241   002F36  6E50               	movwf	___fldiv@sign^0,c
  4242   002F38  5043               	movf	(___fldiv@b+3)^0,w,c
  4243   002F3A  2443               	addwf	(___fldiv@b+3)^0,w,c
  4244   002F3C  6E57               	movwf	___fldiv@bexp^0,c
  4245   002F3E  AE42               	btfss	(___fldiv@b+2)^0,7,c
  4246   002F40  EFA4  F017         	goto	u4271
  4247   002F44  EFA6  F017         	goto	u4270
  4248   002F48                     u4271:
  4249   002F48  EFA7  F017         	goto	l3767
  4250   002F4C                     u4270:
  4251   002F4C  8057               	bsf	___fldiv@bexp^0,0,c
  4252   002F4E                     l3767:
  4253   002F4E  5057               	movf	___fldiv@bexp^0,w,c
  4254   002F50  B4D8               	btfsc	status,2,c
  4255   002F52  EFAD  F017         	goto	u4281
  4256   002F56  EFAF  F017         	goto	u4280
  4257   002F5A                     u4281:
  4258   002F5A  EFC3  F017         	goto	l3777
  4259   002F5E                     u4280:
  4260   002F5E  2857               	incf	___fldiv@bexp^0,w,c
  4261   002F60  A4D8               	btfss	status,2,c
  4262   002F62  EFB5  F017         	goto	u4291
  4263   002F66  EFB7  F017         	goto	u4290
  4264   002F6A                     u4291:
  4265   002F6A  EFBF  F017         	goto	l3773
  4266   002F6E                     u4290:
  4267   002F6E  0E00               	movlw	0
  4268   002F70  6E40               	movwf	___fldiv@b^0,c
  4269   002F72  0E00               	movlw	0
  4270   002F74  6E41               	movwf	(___fldiv@b+1)^0,c
  4271   002F76  0E00               	movlw	0
  4272   002F78  6E42               	movwf	(___fldiv@b+2)^0,c
  4273   002F7A  0E00               	movlw	0
  4274   002F7C  6E43               	movwf	(___fldiv@b+3)^0,c
  4275   002F7E                     l3773:
  4276   002F7E  8E42               	bsf	(___fldiv@b+2)^0,7,c
  4277   002F80  6A43               	clrf	(___fldiv@b+3)^0,c
  4278   002F82  EFCB  F017         	goto	l3779
  4279   002F86                     l3777:
  4280   002F86  0E00               	movlw	0
  4281   002F88  6E40               	movwf	___fldiv@b^0,c
  4282   002F8A  0E00               	movlw	0
  4283   002F8C  6E41               	movwf	(___fldiv@b+1)^0,c
  4284   002F8E  0E00               	movlw	0
  4285   002F90  6E42               	movwf	(___fldiv@b+2)^0,c
  4286   002F92  0E00               	movlw	0
  4287   002F94  6E43               	movwf	(___fldiv@b+3)^0,c
  4288   002F96                     l3779:
  4289   002F96  5047               	movf	(___fldiv@a+3)^0,w,c
  4290   002F98  0B80               	andlw	128
  4291   002F9A  1A50               	xorwf	___fldiv@sign^0,f,c
  4292   002F9C  5047               	movf	(___fldiv@a+3)^0,w,c
  4293   002F9E  2447               	addwf	(___fldiv@a+3)^0,w,c
  4294   002FA0  6E58               	movwf	___fldiv@aexp^0,c
  4295   002FA2  AE46               	btfss	(___fldiv@a+2)^0,7,c
  4296   002FA4  EFD6  F017         	goto	u4301
  4297   002FA8  EFD8  F017         	goto	u4300
  4298   002FAC                     u4301:
  4299   002FAC  EFD9  F017         	goto	l3787
  4300   002FB0                     u4300:
  4301   002FB0  8058               	bsf	___fldiv@aexp^0,0,c
  4302   002FB2                     l3787:
  4303   002FB2  5058               	movf	___fldiv@aexp^0,w,c
  4304   002FB4  B4D8               	btfsc	status,2,c
  4305   002FB6  EFDF  F017         	goto	u4311
  4306   002FBA  EFE1  F017         	goto	u4310
  4307   002FBE                     u4311:
  4308   002FBE  EFF5  F017         	goto	l3797
  4309   002FC2                     u4310:
  4310   002FC2  2858               	incf	___fldiv@aexp^0,w,c
  4311   002FC4  A4D8               	btfss	status,2,c
  4312   002FC6  EFE7  F017         	goto	u4321
  4313   002FCA  EFE9  F017         	goto	u4320
  4314   002FCE                     u4321:
  4315   002FCE  EFF1  F017         	goto	l3793
  4316   002FD2                     u4320:
  4317   002FD2  0E00               	movlw	0
  4318   002FD4  6E44               	movwf	___fldiv@a^0,c
  4319   002FD6  0E00               	movlw	0
  4320   002FD8  6E45               	movwf	(___fldiv@a+1)^0,c
  4321   002FDA  0E00               	movlw	0
  4322   002FDC  6E46               	movwf	(___fldiv@a+2)^0,c
  4323   002FDE  0E00               	movlw	0
  4324   002FE0  6E47               	movwf	(___fldiv@a+3)^0,c
  4325   002FE2                     l3793:
  4326   002FE2  8E46               	bsf	(___fldiv@a+2)^0,7,c
  4327   002FE4  6A47               	clrf	(___fldiv@a+3)^0,c
  4328   002FE6  EFFD  F017         	goto	l3799
  4329   002FEA                     l3797:
  4330   002FEA  0E00               	movlw	0
  4331   002FEC  6E44               	movwf	___fldiv@a^0,c
  4332   002FEE  0E00               	movlw	0
  4333   002FF0  6E45               	movwf	(___fldiv@a+1)^0,c
  4334   002FF2  0E00               	movlw	0
  4335   002FF4  6E46               	movwf	(___fldiv@a+2)^0,c
  4336   002FF6  0E00               	movlw	0
  4337   002FF8  6E47               	movwf	(___fldiv@a+3)^0,c
  4338   002FFA                     l3799:
  4339   002FFA  5044               	movf	___fldiv@a^0,w,c
  4340   002FFC  1045               	iorwf	(___fldiv@a+1)^0,w,c
  4341   002FFE  1046               	iorwf	(___fldiv@a+2)^0,w,c
  4342   003000  1047               	iorwf	(___fldiv@a+3)^0,w,c
  4343   003002  A4D8               	btfss	status,2,c
  4344   003004  EF06  F018         	goto	u4331
  4345   003008  EF08  F018         	goto	u4330
  4346   00300C                     u4331:
  4347   00300C  EF20  F018         	goto	l3811
  4348   003010                     u4330:
  4349   003010  0E00               	movlw	0
  4350   003012  6E40               	movwf	___fldiv@b^0,c
  4351   003014  0E00               	movlw	0
  4352   003016  6E41               	movwf	(___fldiv@b+1)^0,c
  4353   003018  0E00               	movlw	0
  4354   00301A  6E42               	movwf	(___fldiv@b+2)^0,c
  4355   00301C  0E00               	movlw	0
  4356   00301E  6E43               	movwf	(___fldiv@b+3)^0,c
  4357   003020  0E80               	movlw	128
  4358   003022  1242               	iorwf	(___fldiv@b+2)^0,f,c
  4359   003024  0E7F               	movlw	127
  4360   003026  1243               	iorwf	(___fldiv@b+3)^0,f,c
  4361   003028                     l3805:
  4362   003028  5050               	movf	___fldiv@sign^0,w,c
  4363   00302A  1243               	iorwf	(___fldiv@b+3)^0,f,c
  4364   00302C  C040  F040         	movff	___fldiv@b,?___fldiv
  4365   003030  C041  F041         	movff	___fldiv@b+1,?___fldiv+1
  4366   003034  C042  F042         	movff	___fldiv@b+2,?___fldiv+2
  4367   003038  C043  F043         	movff	___fldiv@b+3,?___fldiv+3
  4368   00303C  EF5F  F019         	goto	l870
  4369   003040                     l3811:
  4370   003040  5057               	movf	___fldiv@bexp^0,w,c
  4371   003042  A4D8               	btfss	status,2,c
  4372   003044  EF26  F018         	goto	u4341
  4373   003048  EF28  F018         	goto	u4340
  4374   00304C                     u4341:
  4375   00304C  EF32  F018         	goto	l3819
  4376   003050                     u4340:
  4377   003050  0E00               	movlw	0
  4378   003052  6E40               	movwf	?___fldiv^0,c
  4379   003054  0E00               	movlw	0
  4380   003056  6E41               	movwf	(?___fldiv+1)^0,c
  4381   003058  0E00               	movlw	0
  4382   00305A  6E42               	movwf	(?___fldiv+2)^0,c
  4383   00305C  0E00               	movlw	0
  4384   00305E  6E43               	movwf	(?___fldiv+3)^0,c
  4385   003060  EF5F  F019         	goto	l870
  4386   003064                     l3819:
  4387   003064  5058               	movf	___fldiv@aexp^0,w,c
  4388   003066  C057  F048         	movff	___fldiv@bexp,??___fldiv
  4389   00306A  6A49               	clrf	(??___fldiv+1)^0,c
  4390   00306C  5E48               	subwf	??___fldiv^0,f,c
  4391   00306E  0E00               	movlw	0
  4392   003070  5A49               	subwfb	(??___fldiv+1)^0,f,c
  4393   003072  0E7F               	movlw	127
  4394   003074  2448               	addwf	??___fldiv^0,w,c
  4395   003076  6E51               	movwf	___fldiv@new_exp^0,c
  4396   003078  0E00               	movlw	0
  4397   00307A  2049               	addwfc	(??___fldiv+1)^0,w,c
  4398   00307C  6E52               	movwf	(___fldiv@new_exp+1)^0,c
  4399   00307E  C040  F04C         	movff	___fldiv@b,___fldiv@rem
  4400   003082  C041  F04D         	movff	___fldiv@b+1,___fldiv@rem+1
  4401   003086  C042  F04E         	movff	___fldiv@b+2,___fldiv@rem+2
  4402   00308A  C043  F04F         	movff	___fldiv@b+3,___fldiv@rem+3
  4403   00308E  0E00               	movlw	0
  4404   003090  6E40               	movwf	___fldiv@b^0,c
  4405   003092  0E00               	movlw	0
  4406   003094  6E41               	movwf	(___fldiv@b+1)^0,c
  4407   003096  0E00               	movlw	0
  4408   003098  6E42               	movwf	(___fldiv@b+2)^0,c
  4409   00309A  0E00               	movlw	0
  4410   00309C  6E43               	movwf	(___fldiv@b+3)^0,c
  4411   00309E  0E00               	movlw	0
  4412   0030A0  6E53               	movwf	___fldiv@grs^0,c
  4413   0030A2  0E00               	movlw	0
  4414   0030A4  6E54               	movwf	(___fldiv@grs+1)^0,c
  4415   0030A6  0E00               	movlw	0
  4416   0030A8  6E55               	movwf	(___fldiv@grs+2)^0,c
  4417   0030AA  0E00               	movlw	0
  4418   0030AC  6E56               	movwf	(___fldiv@grs+3)^0,c
  4419   0030AE  6A58               	clrf	___fldiv@aexp^0,c
  4420   0030B0  EF92  F018         	goto	l872
  4421   0030B4                     l3829:
  4422   0030B4  5058               	movf	___fldiv@aexp^0,w,c
  4423   0030B6  B4D8               	btfsc	status,2,c
  4424   0030B8  EF60  F018         	goto	u4351
  4425   0030BC  EF62  F018         	goto	u4350
  4426   0030C0                     u4351:
  4427   0030C0  EF79  F018         	goto	l3837
  4428   0030C4                     u4350:
  4429   0030C4  90D8               	bcf	status,0,c
  4430   0030C6  364C               	rlcf	___fldiv@rem^0,f,c
  4431   0030C8  364D               	rlcf	(___fldiv@rem+1)^0,f,c
  4432   0030CA  364E               	rlcf	(___fldiv@rem+2)^0,f,c
  4433   0030CC  364F               	rlcf	(___fldiv@rem+3)^0,f,c
  4434   0030CE  90D8               	bcf	status,0,c
  4435   0030D0  3640               	rlcf	___fldiv@b^0,f,c
  4436   0030D2  3641               	rlcf	(___fldiv@b+1)^0,f,c
  4437   0030D4  3642               	rlcf	(___fldiv@b+2)^0,f,c
  4438   0030D6  3643               	rlcf	(___fldiv@b+3)^0,f,c
  4439   0030D8  AE56               	btfss	(___fldiv@grs+3)^0,7,c
  4440   0030DA  EF71  F018         	goto	u4361
  4441   0030DE  EF73  F018         	goto	u4360
  4442   0030E2                     u4361:
  4443   0030E2  EF74  F018         	goto	l875
  4444   0030E6                     u4360:
  4445   0030E6  8040               	bsf	___fldiv@b^0,0,c
  4446   0030E8                     l875:
  4447   0030E8  90D8               	bcf	status,0,c
  4448   0030EA  3653               	rlcf	___fldiv@grs^0,f,c
  4449   0030EC  3654               	rlcf	(___fldiv@grs+1)^0,f,c
  4450   0030EE  3655               	rlcf	(___fldiv@grs+2)^0,f,c
  4451   0030F0  3656               	rlcf	(___fldiv@grs+3)^0,f,c
  4452   0030F2                     l3837:
  4453   0030F2  5044               	movf	___fldiv@a^0,w,c
  4454   0030F4  5C4C               	subwf	___fldiv@rem^0,w,c
  4455   0030F6  5045               	movf	(___fldiv@a+1)^0,w,c
  4456   0030F8  584D               	subwfb	(___fldiv@rem+1)^0,w,c
  4457   0030FA  5046               	movf	(___fldiv@a+2)^0,w,c
  4458   0030FC  584E               	subwfb	(___fldiv@rem+2)^0,w,c
  4459   0030FE  5047               	movf	(___fldiv@a+3)^0,w,c
  4460   003100  584F               	subwfb	(___fldiv@rem+3)^0,w,c
  4461   003102  A0D8               	btfss	status,0,c
  4462   003104  EF86  F018         	goto	u4371
  4463   003108  EF88  F018         	goto	u4370
  4464   00310C                     u4371:
  4465   00310C  EF91  F018         	goto	l3843
  4466   003110                     u4370:
  4467   003110  8C56               	bsf	(___fldiv@grs+3)^0,6,c
  4468   003112  5044               	movf	___fldiv@a^0,w,c
  4469   003114  5E4C               	subwf	___fldiv@rem^0,f,c
  4470   003116  5045               	movf	(___fldiv@a+1)^0,w,c
  4471   003118  5A4D               	subwfb	(___fldiv@rem+1)^0,f,c
  4472   00311A  5046               	movf	(___fldiv@a+2)^0,w,c
  4473   00311C  5A4E               	subwfb	(___fldiv@rem+2)^0,f,c
  4474   00311E  5047               	movf	(___fldiv@a+3)^0,w,c
  4475   003120  5A4F               	subwfb	(___fldiv@rem+3)^0,f,c
  4476   003122                     l3843:
  4477   003122  2A58               	incf	___fldiv@aexp^0,f,c
  4478   003124                     l872:
  4479   003124  0E19               	movlw	25
  4480   003126  6458               	cpfsgt	___fldiv@aexp^0,c
  4481   003128  EF98  F018         	goto	u4381
  4482   00312C  EF9A  F018         	goto	u4380
  4483   003130                     u4381:
  4484   003130  EF5A  F018         	goto	l3829
  4485   003134                     u4380:
  4486   003134  504C               	movf	___fldiv@rem^0,w,c
  4487   003136  104D               	iorwf	(___fldiv@rem+1)^0,w,c
  4488   003138  104E               	iorwf	(___fldiv@rem+2)^0,w,c
  4489   00313A  104F               	iorwf	(___fldiv@rem+3)^0,w,c
  4490   00313C  B4D8               	btfsc	status,2,c
  4491   00313E  EFA3  F018         	goto	u4391
  4492   003142  EFA5  F018         	goto	u4390
  4493   003146                     u4391:
  4494   003146  EFBD  F018         	goto	l3855
  4495   00314A                     u4390:
  4496   00314A  8053               	bsf	___fldiv@grs^0,0,c
  4497   00314C  EFBD  F018         	goto	l3855
  4498   003150                     l3849:
  4499   003150  90D8               	bcf	status,0,c
  4500   003152  3640               	rlcf	___fldiv@b^0,f,c
  4501   003154  3641               	rlcf	(___fldiv@b+1)^0,f,c
  4502   003156  3642               	rlcf	(___fldiv@b+2)^0,f,c
  4503   003158  3643               	rlcf	(___fldiv@b+3)^0,f,c
  4504   00315A  AE56               	btfss	(___fldiv@grs+3)^0,7,c
  4505   00315C  EFB2  F018         	goto	u4401
  4506   003160  EFB4  F018         	goto	u4400
  4507   003164                     u4401:
  4508   003164  EFB5  F018         	goto	l881
  4509   003168                     u4400:
  4510   003168  8040               	bsf	___fldiv@b^0,0,c
  4511   00316A                     l881:
  4512   00316A  90D8               	bcf	status,0,c
  4513   00316C  3653               	rlcf	___fldiv@grs^0,f,c
  4514   00316E  3654               	rlcf	(___fldiv@grs+1)^0,f,c
  4515   003170  3655               	rlcf	(___fldiv@grs+2)^0,f,c
  4516   003172  3656               	rlcf	(___fldiv@grs+3)^0,f,c
  4517   003174  0651               	decf	___fldiv@new_exp^0,f,c
  4518   003176  A0D8               	btfss	status,0,c
  4519   003178  0652               	decf	(___fldiv@new_exp+1)^0,f,c
  4520   00317A                     l3855:
  4521   00317A  AE42               	btfss	(___fldiv@b+2)^0,7,c
  4522   00317C  EFC2  F018         	goto	u4411
  4523   003180  EFC4  F018         	goto	u4410
  4524   003184                     u4411:
  4525   003184  EFA8  F018         	goto	l3849
  4526   003188                     u4410:
  4527   003188  6A58               	clrf	___fldiv@aexp^0,c
  4528   00318A  AE56               	btfss	(___fldiv@grs+3)^0,7,c
  4529   00318C  EFCA  F018         	goto	u4421
  4530   003190  EFCC  F018         	goto	u4420
  4531   003194                     u4421:
  4532   003194  EFF0  F018         	goto	l883
  4533   003198                     u4420:
  4534   003198  0EFF               	movlw	255
  4535   00319A  1453               	andwf	___fldiv@grs^0,w,c
  4536   00319C  6E48               	movwf	??___fldiv^0,c
  4537   00319E  0EFF               	movlw	255
  4538   0031A0  1454               	andwf	(___fldiv@grs+1)^0,w,c
  4539   0031A2  6E49               	movwf	(??___fldiv+1)^0,c
  4540   0031A4  0EFF               	movlw	255
  4541   0031A6  1455               	andwf	(___fldiv@grs+2)^0,w,c
  4542   0031A8  6E4A               	movwf	(??___fldiv+2)^0,c
  4543   0031AA  0E7F               	movlw	127
  4544   0031AC  1456               	andwf	(___fldiv@grs+3)^0,w,c
  4545   0031AE  6E4B               	movwf	(??___fldiv+3)^0,c
  4546   0031B0  5048               	movf	??___fldiv^0,w,c
  4547   0031B2  1049               	iorwf	(??___fldiv+1)^0,w,c
  4548   0031B4  104A               	iorwf	(??___fldiv+2)^0,w,c
  4549   0031B6  104B               	iorwf	(??___fldiv+3)^0,w,c
  4550   0031B8  B4D8               	btfsc	status,2,c
  4551   0031BA  EFE1  F018         	goto	u4431
  4552   0031BE  EFE3  F018         	goto	u4430
  4553   0031C2                     u4431:
  4554   0031C2  EFE7  F018         	goto	l884
  4555   0031C6                     u4430:
  4556   0031C6                     l3859:
  4557   0031C6  0E01               	movlw	1
  4558   0031C8  6E58               	movwf	___fldiv@aexp^0,c
  4559   0031CA  EFF0  F018         	goto	l883
  4560   0031CE                     l884:
  4561   0031CE  A040               	btfss	___fldiv@b^0,0,c
  4562   0031D0  EFEC  F018         	goto	u4441
  4563   0031D4  EFEE  F018         	goto	u4440
  4564   0031D8                     u4441:
  4565   0031D8  EFF0  F018         	goto	l883
  4566   0031DC                     u4440:
  4567   0031DC  EFE3  F018         	goto	l3859
  4568   0031E0                     l883:
  4569   0031E0  5058               	movf	___fldiv@aexp^0,w,c
  4570   0031E2  B4D8               	btfsc	status,2,c
  4571   0031E4  EFF6  F018         	goto	u4451
  4572   0031E8  EFF8  F018         	goto	u4450
  4573   0031EC                     u4451:
  4574   0031EC  EF1C  F019         	goto	l3871
  4575   0031F0                     u4450:
  4576   0031F0  0E01               	movlw	1
  4577   0031F2  2640               	addwf	___fldiv@b^0,f,c
  4578   0031F4  0E00               	movlw	0
  4579   0031F6  2241               	addwfc	(___fldiv@b+1)^0,f,c
  4580   0031F8  2242               	addwfc	(___fldiv@b+2)^0,f,c
  4581   0031FA  2243               	addwfc	(___fldiv@b+3)^0,f,c
  4582   0031FC  A043               	btfss	(___fldiv@b+3)^0,0,c
  4583   0031FE  EF03  F019         	goto	u4461
  4584   003202  EF05  F019         	goto	u4460
  4585   003206                     u4461:
  4586   003206  EF1C  F019         	goto	l3871
  4587   00320A                     u4460:
  4588   00320A  C040  F048         	movff	___fldiv@b,??___fldiv
  4589   00320E  C041  F049         	movff	___fldiv@b+1,??___fldiv+1
  4590   003212  C042  F04A         	movff	___fldiv@b+2,??___fldiv+2
  4591   003216  C043  F04B         	movff	___fldiv@b+3,??___fldiv+3
  4592   00321A  344B               	rlcf	(??___fldiv+3)^0,w,c
  4593   00321C  324B               	rrcf	(??___fldiv+3)^0,f,c
  4594   00321E  324A               	rrcf	(??___fldiv+2)^0,f,c
  4595   003220  3249               	rrcf	(??___fldiv+1)^0,f,c
  4596   003222  3248               	rrcf	??___fldiv^0,f,c
  4597   003224  C048  F040         	movff	??___fldiv,___fldiv@b
  4598   003228  C049  F041         	movff	??___fldiv+1,___fldiv@b+1
  4599   00322C  C04A  F042         	movff	??___fldiv+2,___fldiv@b+2
  4600   003230  C04B  F043         	movff	??___fldiv+3,___fldiv@b+3
  4601   003234  4A51               	infsnz	___fldiv@new_exp^0,f,c
  4602   003236  2A52               	incf	(___fldiv@new_exp+1)^0,f,c
  4603   003238                     l3871:
  4604   003238  BE52               	btfsc	(___fldiv@new_exp+1)^0,7,c
  4605   00323A  EF27  F019         	goto	u4471
  4606   00323E  5052               	movf	(___fldiv@new_exp+1)^0,w,c
  4607   003240  E108               	bnz	u4470
  4608   003242  2851               	incf	___fldiv@new_exp^0,w,c
  4609   003244  A0D8               	btfss	status,0,c
  4610   003246  EF27  F019         	goto	u4471
  4611   00324A  EF29  F019         	goto	u4470
  4612   00324E                     u4471:
  4613   00324E  EF34  F019         	goto	l3875
  4614   003252                     u4470:
  4615   003252  0E00               	movlw	0
  4616   003254  6E52               	movwf	(___fldiv@new_exp+1)^0,c
  4617   003256  6851               	setf	___fldiv@new_exp^0,c
  4618   003258  0E00               	movlw	0
  4619   00325A  6E40               	movwf	___fldiv@b^0,c
  4620   00325C  0E00               	movlw	0
  4621   00325E  6E41               	movwf	(___fldiv@b+1)^0,c
  4622   003260  0E00               	movlw	0
  4623   003262  6E42               	movwf	(___fldiv@b+2)^0,c
  4624   003264  0E00               	movlw	0
  4625   003266  6E43               	movwf	(___fldiv@b+3)^0,c
  4626   003268                     l3875:
  4627   003268  BE52               	btfsc	(___fldiv@new_exp+1)^0,7,c
  4628   00326A  EF41  F019         	goto	u4480
  4629   00326E  5052               	movf	(___fldiv@new_exp+1)^0,w,c
  4630   003270  E106               	bnz	u4481
  4631   003272  0451               	decf	___fldiv@new_exp^0,w,c
  4632   003274  B0D8               	btfsc	status,0,c
  4633   003276  EF3F  F019         	goto	u4481
  4634   00327A  EF41  F019         	goto	u4480
  4635   00327E                     u4481:
  4636   00327E  EF4D  F019         	goto	l3881
  4637   003282                     u4480:
  4638   003282  6A52               	clrf	(___fldiv@new_exp+1)^0,c
  4639   003284  0E00               	movlw	0
  4640   003286  6E51               	movwf	___fldiv@new_exp^0,c
  4641   003288  0E00               	movlw	0
  4642   00328A  6E40               	movwf	___fldiv@b^0,c
  4643   00328C  0E00               	movlw	0
  4644   00328E  6E41               	movwf	(___fldiv@b+1)^0,c
  4645   003290  0E00               	movlw	0
  4646   003292  6E42               	movwf	(___fldiv@b+2)^0,c
  4647   003294  0E00               	movlw	0
  4648   003296  6E43               	movwf	(___fldiv@b+3)^0,c
  4649   003298  6A50               	clrf	___fldiv@sign^0,c
  4650   00329A                     l3881:
  4651   00329A  C051  F057         	movff	___fldiv@new_exp,___fldiv@bexp
  4652   00329E  A057               	btfss	___fldiv@bexp^0,0,c
  4653   0032A0  EF54  F019         	goto	u4491
  4654   0032A4  EF56  F019         	goto	u4490
  4655   0032A8                     u4491:
  4656   0032A8  EF59  F019         	goto	l3887
  4657   0032AC                     u4490:
  4658   0032AC  8E42               	bsf	(___fldiv@b+2)^0,7,c
  4659   0032AE  EF5A  F019         	goto	l3889
  4660   0032B2                     l3887:
  4661   0032B2  9E42               	bcf	(___fldiv@b+2)^0,7,c
  4662   0032B4                     l3889:
  4663   0032B4  90D8               	bcf	status,0,c
  4664   0032B6  3057               	rrcf	___fldiv@bexp^0,w,c
  4665   0032B8  6E43               	movwf	(___fldiv@b+3)^0,c
  4666   0032BA  EF14  F018         	goto	l3805
  4667   0032BE                     l870:
  4668   0032BE  0012               	return		;funcret
  4669   0032C0                     __end_of___fldiv:
  4670                           	callstack 0
  4671                           
  4672 ;; *************** function _ftoa *****************
  4673 ;; Defined at:
  4674 ;;		line 94 in file "main.c"
  4675 ;; Parameters:    Size  Location     Type
  4676 ;;  f               4   78[COMRAM] float 
  4677 ;;  buffer          1   82[COMRAM] PTR unsigned char 
  4678 ;;		 -> main@tensaoBuffer(16), main@tempBuffer(16), 
  4679 ;;  precision       2   83[COMRAM] int 
  4680 ;; Auto vars:     Size  Location     Type
  4681 ;;  i               2   13[BANK0 ] int 
  4682 ;;  format         10    0[BANK0 ] unsigned char [10]
  4683 ;;  fractionalAs    2   10[BANK0 ] int 
  4684 ;;  fractionalPa    4   17[BANK0 ] float 
  4685 ;;  integerPart     2   15[BANK0 ] int 
  4686 ;; Return value:  Size  Location     Type
  4687 ;;                  1    wreg      void 
  4688 ;; Registers used:
  4689 ;;		wreg, fsr1l, fsr1h, fsr2l, fsr2h, status,2, status,0, tblptrl, tblptrh, tblptru, prodl, prodh, cstack
  4690 ;; Tracked objects:
  4691 ;;		On entry : 0/0
  4692 ;;		On exit  : 0/0
  4693 ;;		Unchanged: 0/0
  4694 ;; Data sizes:     COMRAM   BANK0   BANK1   BANK2   BANK3   BANK4   BANK5   BANK6   BANK7   BANK8   BANK9  BANK10  BANK1
      +1  BANK12
  4695 ;;      Params:         7       0       0       0       0       0       0       0       0       0       0       0       
      +0       0
  4696 ;;      Locals:         0      21       0       0       0       0       0       0       0       0       0       0       
      +0       0
  4697 ;;      Temps:          1       0       0       0       0       0       0       0       0       0       0       0       
      +0       0
  4698 ;;      Totals:         8      21       0       0       0       0       0       0       0       0       0       0       
      +0       0
  4699 ;;Total ram usage:       29 bytes
  4700 ;; Hardware stack levels used: 1
  4701 ;; Hardware stack levels required when called: 7
  4702 ;; This function calls:
  4703 ;;		___flmul
  4704 ;;		___flsub
  4705 ;;		___fltol
  4706 ;;		___xxtofl
  4707 ;;		_fabsf
  4708 ;;		_sprintf
  4709 ;;		_strlen
  4710 ;; This function is called by:
  4711 ;;		_main
  4712 ;; This function uses a non-reentrant model
  4713 ;;
  4714                           
  4715                           	psect	text3
  4716   003850                     __ptext3:
  4717                           	callstack 0
  4718   003850                     _ftoa:
  4719                           	callstack 23
  4720   003850                     
  4721                           ;main.c: 95:     int integerPart = (int)f;
  4722   003850  C04F  F009         	movff	ftoa@f,___fltol@f1
  4723   003854  C050  F00A         	movff	ftoa@f+1,___fltol@f1+1
  4724   003858  C051  F00B         	movff	ftoa@f+2,___fltol@f1+2
  4725   00385C  C052  F00C         	movff	ftoa@f+3,___fltol@f1+3
  4726   003860  ECB7  F01E         	call	___fltol	;wreg free
  4727   003864  C009  F06F         	movff	?___fltol,ftoa@integerPart
  4728   003868  C00A  F070         	movff	?___fltol+1,ftoa@integerPart+1
  4729                           
  4730                           ;main.c: 96:     float fractionalPart = f - (float)integerPart;
  4731   00386C  C04F  F038         	movff	ftoa@f,___flsub@b
  4732   003870  C050  F039         	movff	ftoa@f+1,___flsub@b+1
  4733   003874  C051  F03A         	movff	ftoa@f+2,___flsub@b+2
  4734   003878  C052  F03B         	movff	ftoa@f+3,___flsub@b+3
  4735   00387C  C06F  F001         	movff	ftoa@integerPart,___xxtofl@val
  4736   003880  C070  F002         	movff	ftoa@integerPart+1,___xxtofl@val+1
  4737   003884  0E00               	movlw	0
  4738   003886  BE02               	btfsc	(___xxtofl@val+1)^0,7,c
  4739   003888  0EFF               	movlw	-1
  4740   00388A  6E03               	movwf	(___xxtofl@val+2)^0,c
  4741   00388C  6E04               	movwf	(___xxtofl@val+3)^0,c
  4742   00388E  0E01               	movlw	1
  4743   003890  EC4E  F01B         	call	___xxtofl
  4744   003894  C001  F03C         	movff	?___xxtofl,___flsub@a
  4745   003898  C002  F03D         	movff	?___xxtofl+1,___flsub@a+1
  4746   00389C  C003  F03E         	movff	?___xxtofl+2,___flsub@a+2
  4747   0038A0  C004  F03F         	movff	?___xxtofl+3,___flsub@a+3
  4748   0038A4  EC0C  F023         	call	___flsub	;wreg free
  4749   0038A8  C038  F071         	movff	?___flsub,ftoa@fractionalPart
  4750   0038AC  C039  F072         	movff	?___flsub+1,ftoa@fractionalPart+1
  4751   0038B0  C03A  F073         	movff	?___flsub+2,ftoa@fractionalPart+2
  4752   0038B4  C03B  F074         	movff	?___flsub+3,ftoa@fractionalPart+3
  4753   0038B8                     
  4754                           ;main.c: 98:     sprintf(buffer, "%d.", integerPart);
  4755   0038B8  C053  F03E         	movff	ftoa@buffer,sprintf@s
  4756   0038BC  0E81               	movlw	low STR_1
  4757   0038BE  6E3F               	movwf	sprintf@fmt^0,c
  4758   0038C0  503F               	movf	sprintf@fmt^0,w,c
  4759   0038C2  A4D8               	btfss	status,2,c
  4760   0038C4  0E10               	movlw	high __smallconst
  4761   0038C6  6E40               	movwf	(sprintf@fmt+1)^0,c
  4762   0038C8  C06F  F041         	movff	ftoa@integerPart,?_sprintf+3
  4763   0038CC  C070  F042         	movff	ftoa@integerPart+1,?_sprintf+4
  4764   0038D0  EC8A  F023         	call	_sprintf	;wreg free
  4765   0038D4                     
  4766                           ;main.c: 100:     if (precision > 0) {
  4767   0038D4  BE55               	btfsc	(ftoa@precision+1)^0,7,c
  4768   0038D6  EF75  F01C         	goto	u6091
  4769   0038DA  5055               	movf	(ftoa@precision+1)^0,w,c
  4770   0038DC  E108               	bnz	u6090
  4771   0038DE  0454               	decf	ftoa@precision^0,w,c
  4772   0038E0  A0D8               	btfss	status,0,c
  4773   0038E2  EF75  F01C         	goto	u6091
  4774   0038E6  EF77  F01C         	goto	u6090
  4775   0038EA                     u6091:
  4776   0038EA  EFE3  F01C         	goto	l31
  4777   0038EE                     u6090:
  4778   0038EE                     
  4779                           ;main.c: 101:         for (int i = 0; i < precision; i++) {
  4780   0038EE  0100               	movlb	0	; () banked
  4781   0038F0  6B6E               	clrf	(ftoa@i+1)& (0+255),b
  4782   0038F2  0E00               	movlw	0
  4783   0038F4  6F6D               	movwf	ftoa@i& (0+255),b
  4784   0038F6  EF9A  F01C         	goto	l4935
  4785   0038FA                     l4931:
  4786                           
  4787                           ; BSR set to: 0
  4788                           ;main.c: 102:             fractionalPart *= 10;
  4789   0038FA  C071  F00F         	movff	ftoa@fractionalPart,___flmul@b
  4790   0038FE  C072  F010         	movff	ftoa@fractionalPart+1,___flmul@b+1
  4791   003902  C073  F011         	movff	ftoa@fractionalPart+2,___flmul@b+2
  4792   003906  C074  F012         	movff	ftoa@fractionalPart+3,___flmul@b+3
  4793   00390A  0E00               	movlw	0
  4794   00390C  6E13               	movwf	___flmul@a^0,c
  4795   00390E  0E00               	movlw	0
  4796   003910  6E14               	movwf	(___flmul@a+1)^0,c
  4797   003912  0E20               	movlw	32
  4798   003914  6E15               	movwf	(___flmul@a+2)^0,c
  4799   003916  0E41               	movlw	65
  4800   003918  6E16               	movwf	(___flmul@a+3)^0,c
  4801   00391A  EC86  F015         	call	___flmul	;wreg free
  4802   00391E  C00F  F071         	movff	?___flmul,ftoa@fractionalPart
  4803   003922  C010  F072         	movff	?___flmul+1,ftoa@fractionalPart+1
  4804   003926  C011  F073         	movff	?___flmul+2,ftoa@fractionalPart+2
  4805   00392A  C012  F074         	movff	?___flmul+3,ftoa@fractionalPart+3
  4806   00392E                     
  4807                           ;main.c: 103:         }
  4808   00392E  0100               	movlb	0	; () banked
  4809   003930  4B6D               	infsnz	ftoa@i& (0+255),f,b
  4810   003932  2B6E               	incf	(ftoa@i+1)& (0+255),f,b
  4811   003934                     l4935:
  4812                           
  4813                           ; BSR set to: 0
  4814   003934  5054               	movf	ftoa@precision^0,w,c
  4815   003936  5D6D               	subwf	ftoa@i& (0+255),w,b
  4816   003938  516E               	movf	(ftoa@i+1)& (0+255),w,b
  4817   00393A  0A80               	xorlw	128
  4818   00393C  6E56               	movwf	??_ftoa^0,c
  4819   00393E  5055               	movf	(ftoa@precision+1)^0,w,c
  4820   003940  0A80               	xorlw	128
  4821   003942  5856               	subwfb	??_ftoa^0,w,c
  4822   003944  A0D8               	btfss	status,0,c
  4823   003946  EFA7  F01C         	goto	u6101
  4824   00394A  EFA9  F01C         	goto	u6100
  4825   00394E                     u6101:
  4826   00394E  EF7D  F01C         	goto	l4931
  4827   003952                     u6100:
  4828   003952                     
  4829                           ; BSR set to: 0
  4830                           ;main.c: 104:         int fractionalAsInt = (int)fabsf(fractionalPart);
  4831   003952  C071  F001         	movff	ftoa@fractionalPart,fabsf@x
  4832   003956  C072  F002         	movff	ftoa@fractionalPart+1,fabsf@x+1
  4833   00395A  C073  F003         	movff	ftoa@fractionalPart+2,fabsf@x+2
  4834   00395E  C074  F004         	movff	ftoa@fractionalPart+3,fabsf@x+3
  4835   003962  ECBE  F023         	call	_fabsf	;wreg free
  4836   003966  C001  F009         	movff	?_fabsf,___fltol@f1
  4837   00396A  C002  F00A         	movff	?_fabsf+1,___fltol@f1+1
  4838   00396E  C003  F00B         	movff	?_fabsf+2,___fltol@f1+2
  4839   003972  C004  F00C         	movff	?_fabsf+3,___fltol@f1+3
  4840   003976  ECB7  F01E         	call	___fltol	;wreg free
  4841   00397A  C009  F06A         	movff	?___fltol,ftoa@fractionalAsInt
  4842   00397E  C00A  F06B         	movff	?___fltol+1,ftoa@fractionalAsInt+1
  4843   003982                     
  4844                           ;main.c: 106:         char format[10];;main.c: 107:         sprintf(format, "%%0%dd", pr
      +                          ecision);
  4845   003982  0E60               	movlw	low ftoa@format
  4846   003984  6E3E               	movwf	sprintf@s^0,c
  4847   003986  0E6E               	movlw	low STR_2
  4848   003988  6E3F               	movwf	sprintf@fmt^0,c
  4849   00398A  503F               	movf	sprintf@fmt^0,w,c
  4850   00398C  A4D8               	btfss	status,2,c
  4851   00398E  0E10               	movlw	high __smallconst
  4852   003990  6E40               	movwf	(sprintf@fmt+1)^0,c
  4853   003992  C054  F041         	movff	ftoa@precision,?_sprintf+3
  4854   003996  C055  F042         	movff	ftoa@precision+1,?_sprintf+4
  4855   00399A  EC8A  F023         	call	_sprintf	;wreg free
  4856   00399E                     
  4857                           ;main.c: 108:         sprintf(buffer + strlen(buffer), format, fractionalAsInt);
  4858   00399E  C053  F001         	movff	ftoa@buffer,strlen@s
  4859   0039A2  6A02               	clrf	(strlen@s+1)^0,c
  4860   0039A4  EC6F  F023         	call	_strlen	;wreg free
  4861   0039A8  5053               	movf	ftoa@buffer^0,w,c
  4862   0039AA  2401               	addwf	?_strlen^0,w,c
  4863   0039AC  0100               	movlb	0	; () banked
  4864   0039AE  6F6C               	movwf	_ftoa$1574& (0+255),b
  4865   0039B0                     
  4866                           ; BSR set to: 0
  4867                           ;main.c: 108:         sprintf(buffer + strlen(buffer), format, fractionalAsInt);
  4868   0039B0  C06C  F03E         	movff	_ftoa$1574,sprintf@s
  4869   0039B4  0E60               	movlw	low ftoa@format
  4870   0039B6  6E3F               	movwf	sprintf@fmt^0,c
  4871   0039B8  6A40               	clrf	(sprintf@fmt+1)^0,c
  4872   0039BA  C06A  F041         	movff	ftoa@fractionalAsInt,?_sprintf+3
  4873   0039BE  C06B  F042         	movff	ftoa@fractionalAsInt+1,?_sprintf+4
  4874   0039C2  EC8A  F023         	call	_sprintf	;wreg free
  4875   0039C6                     l31:
  4876   0039C6  0012               	return		;funcret
  4877   0039C8                     __end_of_ftoa:
  4878                           	callstack 0
  4879                           
  4880 ;; *************** function _sprintf *****************
  4881 ;; Defined at:
  4882 ;;		line 9 in file "C:\Program Files\Microchip\xc8\v3.10\pic\sources\c99\common\nf_sprintf.c"
  4883 ;; Parameters:    Size  Location     Type
  4884 ;;  s               1   61[COMRAM] PTR unsigned char 
  4885 ;;		 -> main@tensaoBuffer(16), main@tempBuffer(16), ftoa@format(10), 
  4886 ;;  fmt             2   62[COMRAM] PTR const unsigned char 
  4887 ;;		 -> STR_2(7), ftoa@format(10), STR_1(4), 
  4888 ;; Auto vars:     Size  Location     Type
  4889 ;;  f              11   66[COMRAM] struct _IO_FILE
  4890 ;;  ret             2    0        int 
  4891 ;;  ap              1   77[COMRAM] PTR void [1]
  4892 ;;		 -> ?_sprintf(2), 
  4893 ;; Return value:  Size  Location     Type
  4894 ;;                  2   61[COMRAM] int 
  4895 ;; Registers used:
  4896 ;;		wreg, fsr1l, fsr1h, fsr2l, fsr2h, status,2, status,0, tblptrl, tblptrh, tblptru, prodl, prodh, cstack
  4897 ;; Tracked objects:
  4898 ;;		On entry : 0/0
  4899 ;;		On exit  : 0/0
  4900 ;;		Unchanged: 0/0
  4901 ;; Data sizes:     COMRAM   BANK0   BANK1   BANK2   BANK3   BANK4   BANK5   BANK6   BANK7   BANK8   BANK9  BANK10  BANK1
      +1  BANK12
  4902 ;;      Params:         5       0       0       0       0       0       0       0       0       0       0       0       
      +0       0
  4903 ;;      Locals:        12       0       0       0       0       0       0       0       0       0       0       0       
      +0       0
  4904 ;;      Temps:          0       0       0       0       0       0       0       0       0       0       0       0       
      +0       0
  4905 ;;      Totals:        17       0       0       0       0       0       0       0       0       0       0       0       
      +0       0
  4906 ;;Total ram usage:       17 bytes
  4907 ;; Hardware stack levels used: 1
  4908 ;; Hardware stack levels required when called: 6
  4909 ;; This function calls:
  4910 ;;		_vfprintf
  4911 ;; This function is called by:
  4912 ;;		_ftoa
  4913 ;; This function uses a non-reentrant model
  4914 ;;
  4915                           
  4916                           	psect	text4
  4917   004714                     __ptext4:
  4918                           	callstack 0
  4919   004714                     _sprintf:
  4920                           	callstack 23
  4921   004714  0E41               	movlw	low (?_sprintf+3)
  4922   004716  6E4E               	movwf	sprintf@ap^0,c
  4923   004718  C03E  F043         	movff	sprintf@s,sprintf@f
  4924   00471C  6A46               	clrf	(sprintf@f+3)^0,c
  4925   00471E  0E00               	movlw	0
  4926   004720  6E45               	movwf	(sprintf@f+2)^0,c
  4927   004722  6A4D               	clrf	(sprintf@f+10)^0,c
  4928   004724  0E00               	movlw	0
  4929   004726  6E4C               	movwf	(sprintf@f+9)^0,c
  4930   004728  0E43               	movlw	low sprintf@f
  4931   00472A  6E38               	movwf	vfprintf@fp^0,c
  4932   00472C  C03F  F039         	movff	sprintf@fmt,vfprintf@fmt
  4933   004730  C040  F03A         	movff	sprintf@fmt+1,vfprintf@fmt+1
  4934   004734  0E4E               	movlw	low sprintf@ap
  4935   004736  6E3B               	movwf	vfprintf@ap^0,c
  4936   004738  EC74  F022         	call	_vfprintf	;wreg free
  4937   00473C  503E               	movf	sprintf@s^0,w,c
  4938   00473E  2445               	addwf	(sprintf@f+2)^0,w,c
  4939   004740  6ED9               	movwf	fsr2l,c
  4940   004742  6ADA               	clrf	fsr2h,c
  4941   004744  6ADF               	clrf	indf2,c
  4942   004746  0012               	return		;funcret
  4943   004748                     __end_of_sprintf:
  4944                           	callstack 0
  4945                           
  4946 ;; *************** function _vfprintf *****************
  4947 ;; Defined at:
  4948 ;;		line 1817 in file "C:\Program Files\Microchip\xc8\v3.10\pic\sources\c99\common\doprnt.c"
  4949 ;; Parameters:    Size  Location     Type
  4950 ;;  fp              1   55[COMRAM] PTR struct _IO_FILE
  4951 ;;		 -> sprintf@f(11), 
  4952 ;;  fmt             2   56[COMRAM] PTR const unsigned char 
  4953 ;;		 -> STR_2(7), ftoa@format(10), STR_1(4), 
  4954 ;;  ap              1   58[COMRAM] PTR PTR void 
  4955 ;;		 -> sprintf@ap(1), 
  4956 ;; Auto vars:     Size  Location     Type
  4957 ;;  cfmt            2   59[COMRAM] PTR unsigned char 
  4958 ;;		 -> STR_2(7), ftoa@format(10), STR_1(4), 
  4959 ;; Return value:  Size  Location     Type
  4960 ;;                  2   55[COMRAM] int 
  4961 ;; Registers used:
  4962 ;;		wreg, fsr1l, fsr1h, fsr2l, fsr2h, status,2, status,0, tblptrl, tblptrh, tblptru, prodl, prodh, cstack
  4963 ;; Tracked objects:
  4964 ;;		On entry : 0/0
  4965 ;;		On exit  : 0/0
  4966 ;;		Unchanged: 0/0
  4967 ;; Data sizes:     COMRAM   BANK0   BANK1   BANK2   BANK3   BANK4   BANK5   BANK6   BANK7   BANK8   BANK9  BANK10  BANK1
      +1  BANK12
  4968 ;;      Params:         4       0       0       0       0       0       0       0       0       0       0       0       
      +0       0
  4969 ;;      Locals:         2       0       0       0       0       0       0       0       0       0       0       0       
      +0       0
  4970 ;;      Temps:          0       0       0       0       0       0       0       0       0       0       0       0       
      +0       0
  4971 ;;      Totals:         6       0       0       0       0       0       0       0       0       0       0       0       
      +0       0
  4972 ;;Total ram usage:        6 bytes
  4973 ;; Hardware stack levels used: 1
  4974 ;; Hardware stack levels required when called: 5
  4975 ;; This function calls:
  4976 ;;		_vfpfcnvrt
  4977 ;; This function is called by:
  4978 ;;		_sprintf
  4979 ;; This function uses a non-reentrant model
  4980 ;;
  4981                           
  4982                           	psect	text5
  4983   0044E8                     __ptext5:
  4984                           	callstack 0
  4985   0044E8                     _vfprintf:
  4986                           	callstack 23
  4987   0044E8                     
  4988                           ;C:\Program Files\Microchip\xc8\v3.10\pic\sources\c99\common\doprnt.c: 1817: int vfprint
      +                          f(FILE *fp, const char *fmt, va_list ap);C:\Program Files\Microchip\xc8\v3.10\pic\source
      +                          s\c99\common\doprnt.c: 1818: {;C:\Program Files\Microchip\xc8\v3.10\pic\sources\c99\comm
      +                          on\doprnt.c: 1820:     char *cfmt;;C:\Program Files\Microchip\xc8\v3.10\pic\sources\c99\
      +                          common\doprnt.c: 1822:     cfmt = (char *)fmt;
  4989   0044E8  C039  F03C         	movff	vfprintf@fmt,vfprintf@cfmt
  4990   0044EC  C03A  F03D         	movff	vfprintf@fmt+1,vfprintf@cfmt+1
  4991   0044F0                     
  4992                           ;C:\Program Files\Microchip\xc8\v3.10\pic\sources\c99\common\doprnt.c: 1824:     nout = 
      +                          0;
  4993   0044F0  0100               	movlb	0	; () banked
  4994   0044F2  6BF7               	clrf	(_nout+1)& (0+255),b
  4995   0044F4  0E00               	movlw	0
  4996   0044F6  6FF6               	movwf	_nout& (0+255),b
  4997                           
  4998                           ;C:\Program Files\Microchip\xc8\v3.10\pic\sources\c99\common\doprnt.c: 1826:     while (
      +                          *cfmt) {
  4999   0044F8  EF8C  F022         	goto	l4905
  5000   0044FC                     l4903:
  5001                           
  5002                           ;C:\Program Files\Microchip\xc8\v3.10\pic\sources\c99\common\doprnt.c: 1828:         nou
      +                          t +=
  5003   0044FC  C038  F029         	movff	vfprintf@fp,vfpfcnvrt@fp
  5004   004500  0E3C               	movlw	low vfprintf@cfmt
  5005   004502  6E2A               	movwf	vfpfcnvrt@fmt^0,c
  5006   004504  C03B  F02B         	movff	vfprintf@ap,vfpfcnvrt@ap
  5007   004508  6A2C               	clrf	(vfpfcnvrt@ap+1)^0,c
  5008   00450A  EC43  F008         	call	_vfpfcnvrt	;wreg free
  5009   00450E  5029               	movf	?_vfpfcnvrt^0,w,c
  5010   004510  0100               	movlb	0	; () banked
  5011   004512  27F6               	addwf	_nout& (0+255),f,b
  5012   004514  502A               	movf	(?_vfpfcnvrt+1)^0,w,c
  5013   004516  23F7               	addwfc	(_nout+1)& (0+255),f,b
  5014   004518                     l4905:
  5015                           
  5016                           ; BSR set to: 0
  5017                           ;C:\Program Files\Microchip\xc8\v3.10\pic\sources\c99\common\doprnt.c: 1826:     while (
      +                          *cfmt) {
  5018   004518  C03C  FFF6         	movff	vfprintf@cfmt,tblptrl
  5019   00451C  C03D  FFF7         	movff	vfprintf@cfmt+1,tblptrh
  5020   004520  0E00               	movlw	low (__smallconst shr (0+16))
  5021   004522  6EF8               	movwf	tblptru,c
  5022   004524  0E0F               	movlw	(high __ramtop+-1)
  5023   004526  64F7               	cpfsgt	tblptrh,c
  5024   004528  D003               	bra	u6077
  5025   00452A  0008               	tblrd		*
  5026   00452C  50F5               	movf	tablat,w,c
  5027   00452E  D005               	bra	u6070
  5028   004530                     u6077:
  5029   004530  CFF6 FFE1          	movff	tblptrl,fsr1l
  5030   004534  CFF7 FFE2          	movff	tblptrh,fsr1h
  5031   004538  50E7               	movf	indf1,w,c
  5032   00453A                     u6070:
  5033   00453A  0900               	iorlw	0
  5034   00453C  A4D8               	btfss	status,2,c
  5035   00453E  EFA3  F022         	goto	u6081
  5036   004542  EFA5  F022         	goto	u6080
  5037   004546                     u6081:
  5038   004546  EF7E  F022         	goto	l4903
  5039   00454A                     u6080:
  5040   00454A                     
  5041                           ;C:\Program Files\Microchip\xc8\v3.10\pic\sources\c99\common\doprnt.c: 1835:  return 0;
  5042   00454A  6A39               	clrf	(?_vfprintf+1)^0,c
  5043   00454C  0E00               	movlw	0
  5044   00454E  6E38               	movwf	?_vfprintf^0,c
  5045   004550  0012               	return		;funcret
  5046   004552                     __end_of_vfprintf:
  5047                           	callstack 0
  5048                           
  5049 ;; *************** function _vfpfcnvrt *****************
  5050 ;; Defined at:
  5051 ;;		line 1177 in file "C:\Program Files\Microchip\xc8\v3.10\pic\sources\c99\common\doprnt.c"
  5052 ;; Parameters:    Size  Location     Type
  5053 ;;  fp              1   40[COMRAM] PTR struct _IO_FILE
  5054 ;;		 -> sprintf@f(11), 
  5055 ;;  fmt             1   41[COMRAM] PTR PTR unsigned char 
  5056 ;;		 -> vfprintf@cfmt(2), 
  5057 ;;  ap              2   42[COMRAM] PTR PTR void 
  5058 ;;		 -> sprintf@ap(1), 
  5059 ;; Auto vars:     Size  Location     Type
  5060 ;;  convarg         4   49[COMRAM] struct .
  5061 ;;  cp              2   53[COMRAM] PTR unsigned char 
  5062 ;;		 -> STR_2(7), ftoa@format(10), STR_1(4), 
  5063 ;;  c               1   48[COMRAM] unsigned char 
  5064 ;;  done            1   47[COMRAM] _Bool 
  5065 ;; Return value:  Size  Location     Type
  5066 ;;                  2   40[COMRAM] int 
  5067 ;; Registers used:
  5068 ;;		wreg, fsr1l, fsr1h, fsr2l, fsr2h, status,2, status,0, tblptrl, tblptrh, tblptru, prodl, prodh, cstack
  5069 ;; Tracked objects:
  5070 ;;		On entry : 0/0
  5071 ;;		On exit  : 0/0
  5072 ;;		Unchanged: 0/0
  5073 ;; Data sizes:     COMRAM   BANK0   BANK1   BANK2   BANK3   BANK4   BANK5   BANK6   BANK7   BANK8   BANK9  BANK10  BANK1
      +1  BANK12
  5074 ;;      Params:         4       0       0       0       0       0       0       0       0       0       0       0       
      +0       0
  5075 ;;      Locals:         8       0       0       0       0       0       0       0       0       0       0       0       
      +0       0
  5076 ;;      Temps:          3       0       0       0       0       0       0       0       0       0       0       0       
      +0       0
  5077 ;;      Totals:        15       0       0       0       0       0       0       0       0       0       0       0       
      +0       0
  5078 ;;Total ram usage:       15 bytes
  5079 ;; Hardware stack levels used: 1
  5080 ;; Hardware stack levels required when called: 4
  5081 ;; This function calls:
  5082 ;;		_ctoa
  5083 ;;		_dtoa
  5084 ;;		_fputc
  5085 ;;		_otoa
  5086 ;;		_read_prec_or_width
  5087 ;;		_utoa
  5088 ;;		_xtoa
  5089 ;; This function is called by:
  5090 ;;		_vfprintf
  5091 ;; This function uses a non-reentrant model
  5092 ;;
  5093                           
  5094                           	psect	text6
  5095   001086                     __ptext6:
  5096                           	callstack 0
  5097   001086                     _vfpfcnvrt:
  5098                           	callstack 23
  5099   001086                     
  5100                           ;C:\Program Files\Microchip\xc8\v3.10\pic\sources\c99\common\doprnt.c: 1177: vfpfcnvrt(F
      +                          ILE *fp, char *fmt[], va_list ap);C:\Program Files\Microchip\xc8\v3.10\pic\sources\c99\c
      +                          ommon\doprnt.c: 1178: {;C:\Program Files\Microchip\xc8\v3.10\pic\sources\c99\common\dopr
      +                          nt.c: 1179:     char c, *cp;;C:\Program Files\Microchip\xc8\v3.10\pic\sources\c99\common
      +                          \doprnt.c: 1180:     _Bool done;;C:\Program Files\Microchip\xc8\v3.10\pic\sources\c99\co
      +                          mmon\doprnt.c: 1188:  } convarg;;C:\Program Files\Microchip\xc8\v3.10\pic\sources\c99\co
      +                          mmon\doprnt.c: 1201:     if ((*fmt)[0] == '%') {
  5101   001086  502A               	movf	vfpfcnvrt@fmt^0,w,c
  5102   001088  6ED9               	movwf	fsr2l,c
  5103   00108A  6ADA               	clrf	fsr2h,c
  5104   00108C  CFDE F02D          	movff	postinc2,??_vfpfcnvrt
  5105   001090  CFDD F02E          	movff	postdec2,??_vfpfcnvrt+1
  5106   001094  C02D  FFF6         	movff	??_vfpfcnvrt,tblptrl
  5107   001098  C02E  FFF7         	movff	??_vfpfcnvrt+1,tblptrh
  5108   00109C  0E00               	movlw	low (__smallconst shr (0+16))
  5109   00109E  6EF8               	movwf	tblptru,c
  5110   0010A0  0E0F               	movlw	(high __ramtop+-1)
  5111   0010A2  64F7               	cpfsgt	tblptrh,c
  5112   0010A4  D003               	bra	u5757
  5113   0010A6  0008               	tblrd		*
  5114   0010A8  50F5               	movf	tablat,w,c
  5115   0010AA  D005               	bra	u5750
  5116   0010AC                     u5757:
  5117   0010AC  CFF6 FFE1          	movff	tblptrl,fsr1l
  5118   0010B0  CFF7 FFE2          	movff	tblptrh,fsr1h
  5119   0010B4  50E7               	movf	indf1,w,c
  5120   0010B6                     u5750:
  5121   0010B6  0A25               	xorlw	37
  5122   0010B8  A4D8               	btfss	status,2,c
  5123   0010BA  EF61  F008         	goto	u5761
  5124   0010BE  EF63  F008         	goto	u5760
  5125   0010C2                     u5761:
  5126   0010C2  EF95  F00C         	goto	l4891
  5127   0010C6                     u5760:
  5128   0010C6                     
  5129                           ;C:\Program Files\Microchip\xc8\v3.10\pic\sources\c99\common\doprnt.c: 1202:         ++*
      +                          fmt;
  5130   0010C6  502A               	movf	vfpfcnvrt@fmt^0,w,c
  5131   0010C8  6ED9               	movwf	fsr2l,c
  5132   0010CA  6ADA               	clrf	fsr2h,c
  5133   0010CC  2ADE               	incf	postinc2,f,c
  5134   0010CE  0E00               	movlw	0
  5135   0010D0  22DD               	addwfc	postdec2,f,c
  5136   0010D2                     
  5137                           ;C:\Program Files\Microchip\xc8\v3.10\pic\sources\c99\common\doprnt.c: 1204:         fla
      +                          gs = width = 0;
  5138   0010D2  0100               	movlb	0	; () banked
  5139   0010D4  6BF9               	clrf	(_width+1)& (0+255),b
  5140   0010D6  0E00               	movlw	0
  5141   0010D8  6FF8               	movwf	_width& (0+255),b
  5142   0010DA  C0F8  F05F         	movff	_width,_flags
  5143   0010DE                     
  5144                           ; BSR set to: 0
  5145                           ;C:\Program Files\Microchip\xc8\v3.10\pic\sources\c99\common\doprnt.c: 1205:         pre
      +                          c = -1;
  5146   0010DE  69FA               	setf	_prec& (0+255),b
  5147   0010E0  69FB               	setf	(_prec+1)& (0+255),b
  5148   0010E2                     
  5149                           ; BSR set to: 0
  5150                           ;C:\Program Files\Microchip\xc8\v3.10\pic\sources\c99\common\doprnt.c: 1209:         don
      +                          e = 0;
  5151   0010E2  6A30               	clrf	vfpfcnvrt@done^0,c
  5152                           
  5153                           ;C:\Program Files\Microchip\xc8\v3.10\pic\sources\c99\common\doprnt.c: 1210:         whi
      +                          le (!done) {
  5154   0010E4  EFBB  F008         	goto	l4741
  5155   0010E8                     l4715:
  5156                           
  5157                           ;C:\Program Files\Microchip\xc8\v3.10\pic\sources\c99\common\doprnt.c: 1214:            
      +                                   flags |= (1 << 0);
  5158   0010E8  805F               	bsf	_flags^0,0,c
  5159   0010EA                     l4717:
  5160                           
  5161                           ;C:\Program Files\Microchip\xc8\v3.10\pic\sources\c99\common\doprnt.c: 1215:            
      +                                   ++*fmt;
  5162   0010EA  502A               	movf	vfpfcnvrt@fmt^0,w,c
  5163   0010EC  6ED9               	movwf	fsr2l,c
  5164   0010EE  6ADA               	clrf	fsr2h,c
  5165   0010F0  2ADE               	incf	postinc2,f,c
  5166   0010F2  0E00               	movlw	0
  5167   0010F4  22DD               	addwfc	postdec2,f,c
  5168                           
  5169                           ;C:\Program Files\Microchip\xc8\v3.10\pic\sources\c99\common\doprnt.c: 1216:            
      +                                   break;
  5170   0010F6  EFBB  F008         	goto	l4741
  5171   0010FA                     l4719:
  5172                           
  5173                           ;C:\Program Files\Microchip\xc8\v3.10\pic\sources\c99\common\doprnt.c: 1220:            
      +                                   flags |= (1 << 1);
  5174   0010FA  825F               	bsf	_flags^0,1,c
  5175   0010FC  EF75  F008         	goto	l4717
  5176   001100                     l4723:
  5177                           
  5178                           ;C:\Program Files\Microchip\xc8\v3.10\pic\sources\c99\common\doprnt.c: 1226:            
      +                                   flags |= (1 << 2);
  5179   001100  845F               	bsf	_flags^0,2,c
  5180   001102  EF75  F008         	goto	l4717
  5181   001106                     l4727:
  5182                           
  5183                           ;C:\Program Files\Microchip\xc8\v3.10\pic\sources\c99\common\doprnt.c: 1232:            
      +                                   flags |= (1 << 3);
  5184   001106  865F               	bsf	_flags^0,3,c
  5185   001108  EF75  F008         	goto	l4717
  5186   00110C                     l4731:
  5187                           
  5188                           ;C:\Program Files\Microchip\xc8\v3.10\pic\sources\c99\common\doprnt.c: 1238:            
      +                                   flags |= (1 << 4);
  5189   00110C  885F               	bsf	_flags^0,4,c
  5190   00110E  EF75  F008         	goto	l4717
  5191   001112                     l4735:
  5192                           
  5193                           ;C:\Program Files\Microchip\xc8\v3.10\pic\sources\c99\common\doprnt.c: 1243:            
      +                                   done = 1;
  5194   001112  0E01               	movlw	1
  5195   001114  6E30               	movwf	vfpfcnvrt@done^0,c
  5196                           
  5197                           ;C:\Program Files\Microchip\xc8\v3.10\pic\sources\c99\common\doprnt.c: 1244:            
      +                                   break;
  5198   001116  EFBB  F008         	goto	l4741
  5199   00111A                     l4739:
  5200   00111A  502A               	movf	vfpfcnvrt@fmt^0,w,c
  5201   00111C  6ED9               	movwf	fsr2l,c
  5202   00111E  6ADA               	clrf	fsr2h,c
  5203   001120  CFDE F02D          	movff	postinc2,??_vfpfcnvrt
  5204   001124  CFDD F02E          	movff	postdec2,??_vfpfcnvrt+1
  5205   001128  C02D  FFF6         	movff	??_vfpfcnvrt,tblptrl
  5206   00112C  C02E  FFF7         	movff	??_vfpfcnvrt+1,tblptrh
  5207   001130  0E00               	movlw	low (__smallconst shr (0+16))
  5208   001132  6EF8               	movwf	tblptru,c
  5209   001134  0E0F               	movlw	(high __ramtop+-1)
  5210   001136  64F7               	cpfsgt	tblptrh,c
  5211   001138  D003               	bra	u5777
  5212   00113A  0008               	tblrd		*
  5213   00113C  50F5               	movf	tablat,w,c
  5214   00113E  D005               	bra	u5770
  5215   001140                     u5777:
  5216   001140  CFF6 FFE1          	movff	tblptrl,fsr1l
  5217   001144  CFF7 FFE2          	movff	tblptrh,fsr1h
  5218   001148  50E7               	movf	indf1,w,c
  5219   00114A                     u5770:
  5220                           
  5221                           ; Switch size 1, requested type "simple"
  5222                           ; Number of cases is 5, Range of values is 32 to 48
  5223                           ; switch strategies available:
  5224                           ; Name         Instructions Cycles
  5225                           ; simple_byte           16     9 (average)
  5226                           ;	Chosen strategy is simple_byte
  5227   00114A  0A20               	xorlw	32	; case 32
  5228   00114C  B4D8               	btfsc	status,2,c
  5229   00114E  EF83  F008         	goto	l4727
  5230   001152  0A03               	xorlw	3	; case 35
  5231   001154  B4D8               	btfsc	status,2,c
  5232   001156  EF86  F008         	goto	l4731
  5233   00115A  0A08               	xorlw	8	; case 43
  5234   00115C  B4D8               	btfsc	status,2,c
  5235   00115E  EF80  F008         	goto	l4723
  5236   001162  0A06               	xorlw	6	; case 45
  5237   001164  B4D8               	btfsc	status,2,c
  5238   001166  EF74  F008         	goto	l4715
  5239   00116A  0A1D               	xorlw	29	; case 48
  5240   00116C  B4D8               	btfsc	status,2,c
  5241   00116E  EF7D  F008         	goto	l4719
  5242   001172  EF89  F008         	goto	l4735
  5243   001176                     l4741:
  5244                           
  5245                           ;C:\Program Files\Microchip\xc8\v3.10\pic\sources\c99\common\doprnt.c: 1210:         whi
      +                          le (!done) {
  5246   001176  5030               	movf	vfpfcnvrt@done^0,w,c
  5247   001178  B4D8               	btfsc	status,2,c
  5248   00117A  EFC1  F008         	goto	u5781
  5249   00117E  EFC3  F008         	goto	u5780
  5250   001182                     u5781:
  5251   001182  EF8D  F008         	goto	l4739
  5252   001186                     u5780:
  5253   001186                     
  5254                           ;C:\Program Files\Microchip\xc8\v3.10\pic\sources\c99\common\doprnt.c: 1248:         if 
      +                          (flags & (1 << 0)) {
  5255   001186  A05F               	btfss	_flags^0,0,c
  5256   001188  EFC8  F008         	goto	u5791
  5257   00118C  EFCA  F008         	goto	u5790
  5258   001190                     u5791:
  5259   001190  EFCB  F008         	goto	l4745
  5260   001194                     u5790:
  5261   001194                     
  5262                           ;C:\Program Files\Microchip\xc8\v3.10\pic\sources\c99\common\doprnt.c: 1249:            
      +                           flags &= ~(1 << 1);
  5263   001194  925F               	bcf	_flags^0,1,c
  5264   001196                     l4745:
  5265                           
  5266                           ;C:\Program Files\Microchip\xc8\v3.10\pic\sources\c99\common\doprnt.c: 1256:   width = r
      +                          ead_prec_or_width(fmt, ap);
  5267   001196  C02A  F001         	movff	vfpfcnvrt@fmt,read_prec_or_width@fmt
  5268   00119A  C02B  F002         	movff	vfpfcnvrt@ap,read_prec_or_width@ap
  5269   00119E  ECBC  F01F         	call	_read_prec_or_width	;wreg free
  5270   0011A2  C001  F0F8         	movff	?_read_prec_or_width,_width
  5271   0011A6  C002  F0F9         	movff	?_read_prec_or_width+1,_width+1
  5272   0011AA                     
  5273                           ;C:\Program Files\Microchip\xc8\v3.10\pic\sources\c99\common\doprnt.c: 1257:   if (width
      +                           < 0) {
  5274   0011AA  0100               	movlb	0	; () banked
  5275   0011AC  BFF9               	btfsc	(_width+1)& (0+255),7,b
  5276   0011AE  EFDD  F008         	goto	u5800
  5277   0011B2  EFDB  F008         	goto	u5801
  5278   0011B6                     u5801:
  5279   0011B6  EFE2  F008         	goto	l4751
  5280   0011BA                     u5800:
  5281   0011BA                     
  5282                           ; BSR set to: 0
  5283                           ;C:\Program Files\Microchip\xc8\v3.10\pic\sources\c99\common\doprnt.c: 1258:    flags |=
      +                           (1 << 0);
  5284   0011BA  805F               	bsf	_flags^0,0,c
  5285                           
  5286                           ;C:\Program Files\Microchip\xc8\v3.10\pic\sources\c99\common\doprnt.c: 1259:    width = 
      +                          -width;
  5287   0011BC  6DF8               	negf	_width& (0+255),b
  5288   0011BE  1FF9               	comf	(_width+1)& (0+255),f,b
  5289   0011C0  B0D8               	btfsc	status,0,c
  5290   0011C2  2BF9               	incf	(_width+1)& (0+255),f,b
  5291   0011C4                     l4751:
  5292                           
  5293                           ; BSR set to: 0
  5294                           ;C:\Program Files\Microchip\xc8\v3.10\pic\sources\c99\common\doprnt.c: 1265:         if 
      +                          ((*fmt)[0] == '.') {
  5295   0011C4  502A               	movf	vfpfcnvrt@fmt^0,w,c
  5296   0011C6  6ED9               	movwf	fsr2l,c
  5297   0011C8  6ADA               	clrf	fsr2h,c
  5298   0011CA  CFDE F02D          	movff	postinc2,??_vfpfcnvrt
  5299   0011CE  CFDD F02E          	movff	postdec2,??_vfpfcnvrt+1
  5300   0011D2  C02D  FFF6         	movff	??_vfpfcnvrt,tblptrl
  5301   0011D6  C02E  FFF7         	movff	??_vfpfcnvrt+1,tblptrh
  5302   0011DA  0E00               	movlw	low (__smallconst shr (0+16))
  5303   0011DC  6EF8               	movwf	tblptru,c
  5304   0011DE  0E0F               	movlw	(high __ramtop+-1)
  5305   0011E0  64F7               	cpfsgt	tblptrh,c
  5306   0011E2  D003               	bra	u5817
  5307   0011E4  0008               	tblrd		*
  5308   0011E6  50F5               	movf	tablat,w,c
  5309   0011E8  D005               	bra	u5810
  5310   0011EA                     u5817:
  5311   0011EA  CFF6 FFE1          	movff	tblptrl,fsr1l
  5312   0011EE  CFF7 FFE2          	movff	tblptrh,fsr1h
  5313   0011F2  50E7               	movf	indf1,w,c
  5314   0011F4                     u5810:
  5315   0011F4  0A2E               	xorlw	46
  5316   0011F6  A4D8               	btfss	status,2,c
  5317   0011F8  EF00  F009         	goto	u5821
  5318   0011FC  EF02  F009         	goto	u5820
  5319   001200                     u5821:
  5320   001200  EF12  F009         	goto	l4757
  5321   001204                     u5820:
  5322   001204                     
  5323                           ;C:\Program Files\Microchip\xc8\v3.10\pic\sources\c99\common\doprnt.c: 1266:            
      +                           ++*fmt;
  5324   001204  502A               	movf	vfpfcnvrt@fmt^0,w,c
  5325   001206  6ED9               	movwf	fsr2l,c
  5326   001208  6ADA               	clrf	fsr2h,c
  5327   00120A  2ADE               	incf	postinc2,f,c
  5328   00120C  0E00               	movlw	0
  5329   00120E  22DD               	addwfc	postdec2,f,c
  5330   001210                     
  5331                           ;C:\Program Files\Microchip\xc8\v3.10\pic\sources\c99\common\doprnt.c: 1267:    prec = r
      +                          ead_prec_or_width(fmt, ap);
  5332   001210  C02A  F001         	movff	vfpfcnvrt@fmt,read_prec_or_width@fmt
  5333   001214  C02B  F002         	movff	vfpfcnvrt@ap,read_prec_or_width@ap
  5334   001218  ECBC  F01F         	call	_read_prec_or_width	;wreg free
  5335   00121C  C001  F0FA         	movff	?_read_prec_or_width,_prec
  5336   001220  C002  F0FB         	movff	?_read_prec_or_width+1,_prec+1
  5337   001224                     l4757:
  5338                           
  5339                           ;C:\Program Files\Microchip\xc8\v3.10\pic\sources\c99\common\doprnt.c: 1273:         if 
      +                          ((*fmt)[0] == 'c') {
  5340   001224  502A               	movf	vfpfcnvrt@fmt^0,w,c
  5341   001226  6ED9               	movwf	fsr2l,c
  5342   001228  6ADA               	clrf	fsr2h,c
  5343   00122A  CFDE F02D          	movff	postinc2,??_vfpfcnvrt
  5344   00122E  CFDD F02E          	movff	postdec2,??_vfpfcnvrt+1
  5345   001232  C02D  FFF6         	movff	??_vfpfcnvrt,tblptrl
  5346   001236  C02E  FFF7         	movff	??_vfpfcnvrt+1,tblptrh
  5347   00123A  0E00               	movlw	low (__smallconst shr (0+16))
  5348   00123C  6EF8               	movwf	tblptru,c
  5349   00123E  0E0F               	movlw	(high __ramtop+-1)
  5350   001240  64F7               	cpfsgt	tblptrh,c
  5351   001242  D003               	bra	u5837
  5352   001244  0008               	tblrd		*
  5353   001246  50F5               	movf	tablat,w,c
  5354   001248  D005               	bra	u5830
  5355   00124A                     u5837:
  5356   00124A  CFF6 FFE1          	movff	tblptrl,fsr1l
  5357   00124E  CFF7 FFE2          	movff	tblptrh,fsr1h
  5358   001252  50E7               	movf	indf1,w,c
  5359   001254                     u5830:
  5360   001254  0A63               	xorlw	99
  5361   001256  A4D8               	btfss	status,2,c
  5362   001258  EF30  F009         	goto	u5841
  5363   00125C  EF32  F009         	goto	u5840
  5364   001260                     u5841:
  5365   001260  EF4F  F009         	goto	l4767
  5366   001264                     u5840:
  5367   001264                     
  5368                           ;C:\Program Files\Microchip\xc8\v3.10\pic\sources\c99\common\doprnt.c: 1274:            
      +                           ++*fmt;
  5369   001264  502A               	movf	vfpfcnvrt@fmt^0,w,c
  5370   001266  6ED9               	movwf	fsr2l,c
  5371   001268  6ADA               	clrf	fsr2h,c
  5372   00126A  2ADE               	incf	postinc2,f,c
  5373   00126C  0E00               	movlw	0
  5374   00126E  22DD               	addwfc	postdec2,f,c
  5375   001270                     
  5376                           ;C:\Program Files\Microchip\xc8\v3.10\pic\sources\c99\common\doprnt.c: 1275:            
      +                           c = (unsigned char)(*(int *)__va_arg(*(int **)ap, (int)0));
  5377   001270  C02B  FFD9         	movff	vfpfcnvrt@ap,fsr2l
  5378   001274  C02C  FFDA         	movff	vfpfcnvrt@ap+1,fsr2h
  5379   001278  50DF               	movf	indf2,w,c
  5380   00127A  2ADF               	incf	indf2,f,c
  5381   00127C  2ADF               	incf	indf2,f,c
  5382   00127E  6ED9               	movwf	fsr2l,c
  5383   001280  6ADA               	clrf	fsr2h,c
  5384   001282  50DF               	movf	indf2,w,c
  5385   001284  6E31               	movwf	vfpfcnvrt@c^0,c
  5386   001286                     
  5387                           ;C:\Program Files\Microchip\xc8\v3.10\pic\sources\c99\common\doprnt.c: 1284:            
      +                           return (int) ctoa(fp, c);
  5388   001286  C029  F009         	movff	vfpfcnvrt@fp,ctoa@fp
  5389   00128A  C031  F00A         	movff	vfpfcnvrt@c,ctoa@c
  5390   00128E  EC2F  F020         	call	_ctoa	;wreg free
  5391   001292  C009  F029         	movff	?_ctoa,?_vfpfcnvrt
  5392   001296  C00A  F02A         	movff	?_ctoa+1,?_vfpfcnvrt+1
  5393   00129A  EFBD  F00C         	goto	l1154
  5394   00129E                     l4767:
  5395                           
  5396                           ;C:\Program Files\Microchip\xc8\v3.10\pic\sources\c99\common\doprnt.c: 1291:   cp = *fmt
      +                          ;
  5397   00129E  502A               	movf	vfpfcnvrt@fmt^0,w,c
  5398   0012A0  6ED9               	movwf	fsr2l,c
  5399   0012A2  6ADA               	clrf	fsr2h,c
  5400   0012A4  CFDE F036          	movff	postinc2,vfpfcnvrt@cp
  5401   0012A8  CFDD F037          	movff	postdec2,vfpfcnvrt@cp+1
  5402   0012AC                     
  5403                           ;C:\Program Files\Microchip\xc8\v3.10\pic\sources\c99\common\doprnt.c: 1293:   c = *cp;
  5404   0012AC  C036  FFF6         	movff	vfpfcnvrt@cp,tblptrl
  5405   0012B0  C037  FFF7         	movff	vfpfcnvrt@cp+1,tblptrh
  5406   0012B4  0E00               	movlw	low (__smallconst shr (0+16))
  5407   0012B6  6EF8               	movwf	tblptru,c
  5408   0012B8  0E0F               	movlw	(high __ramtop+-1)
  5409   0012BA  64F7               	cpfsgt	tblptrh,c
  5410   0012BC  D003               	bra	u5857
  5411   0012BE  0008               	tblrd		*
  5412   0012C0  50F5               	movf	tablat,w,c
  5413   0012C2  D005               	bra	u5850
  5414   0012C4                     u5857:
  5415   0012C4  CFF6 FFE1          	movff	tblptrl,fsr1l
  5416   0012C8  CFF7 FFE2          	movff	tblptrh,fsr1h
  5417   0012CC  50E7               	movf	indf1,w,c
  5418   0012CE                     u5850:
  5419   0012CE  6E31               	movwf	vfpfcnvrt@c^0,c
  5420                           
  5421                           ;C:\Program Files\Microchip\xc8\v3.10\pic\sources\c99\common\doprnt.c: 1294:   switch(c)
      +                           {
  5422   0012D0  EF92  F009         	goto	l4785
  5423   0012D4                     l4771:
  5424                           
  5425                           ;C:\Program Files\Microchip\xc8\v3.10\pic\sources\c99\common\doprnt.c: 1298:     cp++;
  5426   0012D4  4A36               	infsnz	vfpfcnvrt@cp^0,f,c
  5427   0012D6  2A37               	incf	(vfpfcnvrt@cp+1)^0,f,c
  5428   0012D8                     
  5429                           ;C:\Program Files\Microchip\xc8\v3.10\pic\sources\c99\common\doprnt.c: 1300:     if (*cp
      +                           == 'h') {
  5430   0012D8  C036  FFF6         	movff	vfpfcnvrt@cp,tblptrl
  5431   0012DC  C037  FFF7         	movff	vfpfcnvrt@cp+1,tblptrh
  5432   0012E0  0E00               	movlw	low (__smallconst shr (0+16))
  5433   0012E2  6EF8               	movwf	tblptru,c
  5434   0012E4  0E0F               	movlw	(high __ramtop+-1)
  5435   0012E6  64F7               	cpfsgt	tblptrh,c
  5436   0012E8  D003               	bra	u5867
  5437   0012EA  0008               	tblrd		*
  5438   0012EC  50F5               	movf	tablat,w,c
  5439   0012EE  D005               	bra	u5860
  5440   0012F0                     u5867:
  5441   0012F0  CFF6 FFE1          	movff	tblptrl,fsr1l
  5442   0012F4  CFF7 FFE2          	movff	tblptrh,fsr1h
  5443   0012F8  50E7               	movf	indf1,w,c
  5444   0012FA                     u5860:
  5445   0012FA  0A68               	xorlw	104
  5446   0012FC  A4D8               	btfss	status,2,c
  5447   0012FE  EF83  F009         	goto	u5871
  5448   001302  EF85  F009         	goto	u5870
  5449   001306                     u5871:
  5450   001306  EFBD  F009         	goto	l4787
  5451   00130A                     u5870:
  5452   00130A                     
  5453                           ;C:\Program Files\Microchip\xc8\v3.10\pic\sources\c99\common\doprnt.c: 1301:      c = 'H
      +                          ';
  5454   00130A  0E48               	movlw	72
  5455   00130C  6E31               	movwf	vfpfcnvrt@c^0,c
  5456   00130E                     l4777:
  5457                           
  5458                           ;C:\Program Files\Microchip\xc8\v3.10\pic\sources\c99\common\doprnt.c: 1302:      cp++;
  5459   00130E  4A36               	infsnz	vfpfcnvrt@cp^0,f,c
  5460   001310  2A37               	incf	(vfpfcnvrt@cp+1)^0,f,c
  5461   001312  EFBD  F009         	goto	l4787
  5462   001316                     l4781:
  5463                           
  5464                           ;C:\Program Files\Microchip\xc8\v3.10\pic\sources\c99\common\doprnt.c: 1350:     c = 'i'
      +                          ;
  5465   001316  0E69               	movlw	105
  5466   001318  6E31               	movwf	vfpfcnvrt@c^0,c
  5467                           
  5468                           ;C:\Program Files\Microchip\xc8\v3.10\pic\sources\c99\common\doprnt.c: 1351:     break;
  5469   00131A  EFBD  F009         	goto	l4787
  5470   00131E                     l1168:
  5471                           
  5472                           ;C:\Program Files\Microchip\xc8\v3.10\pic\sources\c99\common\doprnt.c: 1353:     c = 0;
  5473   00131E  6A31               	clrf	vfpfcnvrt@c^0,c
  5474                           
  5475                           ;C:\Program Files\Microchip\xc8\v3.10\pic\sources\c99\common\doprnt.c: 1354:     break;
  5476   001320  EFBD  F009         	goto	l4787
  5477   001324                     l4785:
  5478   001324  5031               	movf	vfpfcnvrt@c^0,w,c
  5479                           
  5480                           ; Switch size 1, requested type "simple"
  5481                           ; Number of cases is 10, Range of values is 88 to 122
  5482                           ; switch strategies available:
  5483                           ; Name         Instructions Cycles
  5484                           ; simple_byte           31    16 (average)
  5485                           ;	Chosen strategy is simple_byte
  5486   001326  0A58               	xorlw	88	; case 88
  5487   001328  B4D8               	btfsc	status,2,c
  5488   00132A  EF8B  F009         	goto	l4781
  5489   00132E  0A3C               	xorlw	60	; case 100
  5490   001330  B4D8               	btfsc	status,2,c
  5491   001332  EF8B  F009         	goto	l4781
  5492   001336  0A0C               	xorlw	12	; case 104
  5493   001338  B4D8               	btfsc	status,2,c
  5494   00133A  EF6A  F009         	goto	l4771
  5495   00133E  0A01               	xorlw	1	; case 105
  5496   001340  B4D8               	btfsc	status,2,c
  5497   001342  EF8B  F009         	goto	l4781
  5498   001346  0A07               	xorlw	7	; case 110
  5499   001348  B4D8               	btfsc	status,2,c
  5500   00134A  EF8B  F009         	goto	l4781
  5501   00134E  0A01               	xorlw	1	; case 111
  5502   001350  B4D8               	btfsc	status,2,c
  5503   001352  EF8B  F009         	goto	l4781
  5504   001356  0A1B               	xorlw	27	; case 116
  5505   001358  B4D8               	btfsc	status,2,c
  5506   00135A  EF87  F009         	goto	l4777
  5507   00135E  0A01               	xorlw	1	; case 117
  5508   001360  B4D8               	btfsc	status,2,c
  5509   001362  EF8B  F009         	goto	l4781
  5510   001366  0A0D               	xorlw	13	; case 120
  5511   001368  B4D8               	btfsc	status,2,c
  5512   00136A  EF8B  F009         	goto	l4781
  5513   00136E  0A02               	xorlw	2	; case 122
  5514   001370  B4D8               	btfsc	status,2,c
  5515   001372  EF87  F009         	goto	l4777
  5516   001376  EF8F  F009         	goto	l1168
  5517   00137A                     l4787:
  5518                           
  5519                           ;C:\Program Files\Microchip\xc8\v3.10\pic\sources\c99\common\doprnt.c: 1361:   if (*cp =
      +                          = 'd' || *cp == 'i') {
  5520   00137A  C036  FFF6         	movff	vfpfcnvrt@cp,tblptrl
  5521   00137E  C037  FFF7         	movff	vfpfcnvrt@cp+1,tblptrh
  5522   001382  0E00               	movlw	low (__smallconst shr (0+16))
  5523   001384  6EF8               	movwf	tblptru,c
  5524   001386  0E0F               	movlw	(high __ramtop+-1)
  5525   001388  64F7               	cpfsgt	tblptrh,c
  5526   00138A  D003               	bra	u5887
  5527   00138C  0008               	tblrd		*
  5528   00138E  50F5               	movf	tablat,w,c
  5529   001390  D005               	bra	u5880
  5530   001392                     u5887:
  5531   001392  CFF6 FFE1          	movff	tblptrl,fsr1l
  5532   001396  CFF7 FFE2          	movff	tblptrh,fsr1h
  5533   00139A  50E7               	movf	indf1,w,c
  5534   00139C                     u5880:
  5535   00139C  0A64               	xorlw	100
  5536   00139E  B4D8               	btfsc	status,2,c
  5537   0013A0  EFD4  F009         	goto	u5891
  5538   0013A4  EFD6  F009         	goto	u5890
  5539   0013A8                     u5891:
  5540   0013A8  EF3D  F00A         	goto	l4803
  5541   0013AC                     u5890:
  5542   0013AC  C036  FFF6         	movff	vfpfcnvrt@cp,tblptrl
  5543   0013B0  C037  FFF7         	movff	vfpfcnvrt@cp+1,tblptrh
  5544   0013B4  0E00               	movlw	low (__smallconst shr (0+16))
  5545   0013B6  6EF8               	movwf	tblptru,c
  5546   0013B8  0E0F               	movlw	(high __ramtop+-1)
  5547   0013BA  64F7               	cpfsgt	tblptrh,c
  5548   0013BC  D003               	bra	u5907
  5549   0013BE  0008               	tblrd		*
  5550   0013C0  50F5               	movf	tablat,w,c
  5551   0013C2  D005               	bra	u5900
  5552   0013C4                     u5907:
  5553   0013C4  CFF6 FFE1          	movff	tblptrl,fsr1l
  5554   0013C8  CFF7 FFE2          	movff	tblptrh,fsr1h
  5555   0013CC  50E7               	movf	indf1,w,c
  5556   0013CE                     u5900:
  5557   0013CE  0A69               	xorlw	105
  5558   0013D0  A4D8               	btfss	status,2,c
  5559   0013D2  EFED  F009         	goto	u5911
  5560   0013D6  EFEF  F009         	goto	u5910
  5561   0013DA                     u5911:
  5562   0013DA  EF6F  F00A         	goto	l4811
  5563   0013DE                     u5910:
  5564   0013DE  EF3D  F00A         	goto	l4803
  5565   0013E2                     l4791:
  5566                           
  5567                           ;C:\Program Files\Microchip\xc8\v3.10\pic\sources\c99\common\doprnt.c: 1365:      convar
      +                          g.sint = (vfpf_sint_t)(int)(*(int *)__va_arg(*(int **)ap, (int)0));
  5568   0013E2  C02B  FFD9         	movff	vfpfcnvrt@ap,fsr2l
  5569   0013E6  C02C  FFDA         	movff	vfpfcnvrt@ap+1,fsr2h
  5570   0013EA  0E02               	movlw	2
  5571   0013EC  26DF               	addwf	indf2,f,c
  5572   0013EE  5CDF               	subwf	indf2,w,c
  5573   0013F0  6ED9               	movwf	fsr2l,c
  5574   0013F2  6ADA               	clrf	fsr2h,c
  5575   0013F4  CFDE F032          	movff	postinc2,vfpfcnvrt@convarg
  5576   0013F8  CFDE F033          	movff	postinc2,vfpfcnvrt@convarg+1
  5577                           
  5578                           ;C:\Program Files\Microchip\xc8\v3.10\pic\sources\c99\common\doprnt.c: 1366:      break;
  5579   0013FC  EF54  F00A         	goto	l4805
  5580   001400                     l4793:
  5581                           
  5582                           ;C:\Program Files\Microchip\xc8\v3.10\pic\sources\c99\common\doprnt.c: 1369:      convar
      +                          g.sint = (vfpf_sint_t)(short)(*(int *)__va_arg(*(int **)ap, (int)0));
  5583   001400  C02B  FFD9         	movff	vfpfcnvrt@ap,fsr2l
  5584   001404  C02C  FFDA         	movff	vfpfcnvrt@ap+1,fsr2h
  5585   001408  0E02               	movlw	2
  5586   00140A  26DF               	addwf	indf2,f,c
  5587   00140C  5CDF               	subwf	indf2,w,c
  5588   00140E  6ED9               	movwf	fsr2l,c
  5589   001410  6ADA               	clrf	fsr2h,c
  5590   001412  CFDE F032          	movff	postinc2,vfpfcnvrt@convarg
  5591   001416  CFDE F033          	movff	postinc2,vfpfcnvrt@convarg+1
  5592                           
  5593                           ;C:\Program Files\Microchip\xc8\v3.10\pic\sources\c99\common\doprnt.c: 1370:      break;
  5594   00141A  EF54  F00A         	goto	l4805
  5595   00141E                     l4795:
  5596                           
  5597                           ;C:\Program Files\Microchip\xc8\v3.10\pic\sources\c99\common\doprnt.c: 1374:      convar
      +                          g.sint = (vfpf_sint_t)(signed char)(*(int *)__va_arg(*(int **)ap, (int)0));
  5598   00141E  C02B  FFD9         	movff	vfpfcnvrt@ap,fsr2l
  5599   001422  C02C  FFDA         	movff	vfpfcnvrt@ap+1,fsr2h
  5600   001426  50DF               	movf	indf2,w,c
  5601   001428  2ADF               	incf	indf2,f,c
  5602   00142A  2ADF               	incf	indf2,f,c
  5603   00142C  6ED9               	movwf	fsr2l,c
  5604   00142E  6ADA               	clrf	fsr2h,c
  5605   001430  50DF               	movf	indf2,w,c
  5606   001432  6E32               	movwf	vfpfcnvrt@convarg^0,c
  5607   001434  6A33               	clrf	(vfpfcnvrt@convarg+1)^0,c
  5608   001436  BE32               	btfsc	vfpfcnvrt@convarg^0,7,c
  5609   001438  0633               	decf	(vfpfcnvrt@convarg+1)^0,f,c
  5610                           
  5611                           ;C:\Program Files\Microchip\xc8\v3.10\pic\sources\c99\common\doprnt.c: 1375:      break;
  5612   00143A  EF54  F00A         	goto	l4805
  5613   00143E                     l4797:
  5614                           
  5615                           ;C:\Program Files\Microchip\xc8\v3.10\pic\sources\c99\common\doprnt.c: 1389:      convar
      +                          g.sint = (vfpf_sint_t)(*(ptrdiff_t *)__va_arg(*(ptrdiff_t **)ap, (ptrdiff_t)0));
  5616   00143E  C02B  FFD9         	movff	vfpfcnvrt@ap,fsr2l
  5617   001442  C02C  FFDA         	movff	vfpfcnvrt@ap+1,fsr2h
  5618   001446  0E02               	movlw	2
  5619   001448  26DF               	addwf	indf2,f,c
  5620   00144A  5CDF               	subwf	indf2,w,c
  5621   00144C  6ED9               	movwf	fsr2l,c
  5622   00144E  6ADA               	clrf	fsr2h,c
  5623   001450  CFDE F032          	movff	postinc2,vfpfcnvrt@convarg
  5624   001454  CFDE F033          	movff	postinc2,vfpfcnvrt@convarg+1
  5625                           
  5626                           ;C:\Program Files\Microchip\xc8\v3.10\pic\sources\c99\common\doprnt.c: 1390:      break;
  5627   001458  EF54  F00A         	goto	l4805
  5628   00145C                     l4799:
  5629                           
  5630                           ;C:\Program Files\Microchip\xc8\v3.10\pic\sources\c99\common\doprnt.c: 1399:      convar
      +                          g.sint = (vfpf_sint_t)(*(size_t *)__va_arg(*(size_t **)ap, (size_t)0));
  5631   00145C  C02B  FFD9         	movff	vfpfcnvrt@ap,fsr2l
  5632   001460  C02C  FFDA         	movff	vfpfcnvrt@ap+1,fsr2h
  5633   001464  0E02               	movlw	2
  5634   001466  26DF               	addwf	indf2,f,c
  5635   001468  5CDF               	subwf	indf2,w,c
  5636   00146A  6ED9               	movwf	fsr2l,c
  5637   00146C  6ADA               	clrf	fsr2h,c
  5638   00146E  CFDE F032          	movff	postinc2,vfpfcnvrt@convarg
  5639   001472  CFDE F033          	movff	postinc2,vfpfcnvrt@convarg+1
  5640                           
  5641                           ;C:\Program Files\Microchip\xc8\v3.10\pic\sources\c99\common\doprnt.c: 1400:      break;
  5642   001476  EF54  F00A         	goto	l4805
  5643   00147A                     l4803:
  5644   00147A  5031               	movf	vfpfcnvrt@c^0,w,c
  5645                           
  5646                           ; Switch size 1, requested type "simple"
  5647                           ; Number of cases is 5, Range of values is 72 to 122
  5648                           ; switch strategies available:
  5649                           ; Name         Instructions Cycles
  5650                           ; simple_byte           16     9 (average)
  5651                           ;	Chosen strategy is simple_byte
  5652   00147C  0A48               	xorlw	72	; case 72
  5653   00147E  B4D8               	btfsc	status,2,c
  5654   001480  EF0F  F00A         	goto	l4795
  5655   001484  0A20               	xorlw	32	; case 104
  5656   001486  B4D8               	btfsc	status,2,c
  5657   001488  EF00  F00A         	goto	l4793
  5658   00148C  0A01               	xorlw	1	; case 105
  5659   00148E  B4D8               	btfsc	status,2,c
  5660   001490  EFF1  F009         	goto	l4791
  5661   001494  0A1D               	xorlw	29	; case 116
  5662   001496  B4D8               	btfsc	status,2,c
  5663   001498  EF1F  F00A         	goto	l4797
  5664   00149C  0A0E               	xorlw	14	; case 122
  5665   00149E  B4D8               	btfsc	status,2,c
  5666   0014A0  EF2E  F00A         	goto	l4799
  5667   0014A4  EF54  F00A         	goto	l4805
  5668   0014A8                     l4805:
  5669                           
  5670                           ;C:\Program Files\Microchip\xc8\v3.10\pic\sources\c99\common\doprnt.c: 1406:    *fmt = c
      +                          p+1;
  5671   0014A8  0E01               	movlw	1
  5672   0014AA  2436               	addwf	vfpfcnvrt@cp^0,w,c
  5673   0014AC  6E2D               	movwf	??_vfpfcnvrt^0,c
  5674   0014AE  0E00               	movlw	0
  5675   0014B0  2037               	addwfc	(vfpfcnvrt@cp+1)^0,w,c
  5676   0014B2  6E2E               	movwf	(??_vfpfcnvrt+1)^0,c
  5677   0014B4  502A               	movf	vfpfcnvrt@fmt^0,w,c
  5678   0014B6  6ED9               	movwf	fsr2l,c
  5679   0014B8  6ADA               	clrf	fsr2h,c
  5680   0014BA  C02D  FFDE         	movff	??_vfpfcnvrt,postinc2
  5681   0014BE  C02E  FFDD         	movff	??_vfpfcnvrt+1,postdec2
  5682   0014C2                     
  5683                           ;C:\Program Files\Microchip\xc8\v3.10\pic\sources\c99\common\doprnt.c: 1432:    return (
      +                          int) dtoa(fp, convarg.sint);
  5684   0014C2  C029  F017         	movff	vfpfcnvrt@fp,dtoa@fp
  5685   0014C6  C032  F018         	movff	vfpfcnvrt@convarg,dtoa@d
  5686   0014CA  C033  F019         	movff	vfpfcnvrt@convarg+1,dtoa@d+1
  5687   0014CE  EC63  F01A         	call	_dtoa	;wreg free
  5688   0014D2  C017  F029         	movff	?_dtoa,?_vfpfcnvrt
  5689   0014D6  C018  F02A         	movff	?_dtoa+1,?_vfpfcnvrt+1
  5690   0014DA  EFBD  F00C         	goto	l1154
  5691   0014DE                     l4811:
  5692   0014DE  C036  FFF6         	movff	vfpfcnvrt@cp,tblptrl
  5693   0014E2  C037  FFF7         	movff	vfpfcnvrt@cp+1,tblptrh
  5694   0014E6  0E00               	movlw	low (__smallconst shr (0+16))
  5695   0014E8  6EF8               	movwf	tblptru,c
  5696   0014EA  0E0F               	movlw	(high __ramtop+-1)
  5697   0014EC  64F7               	cpfsgt	tblptrh,c
  5698   0014EE  D003               	bra	u5927
  5699   0014F0  0008               	tblrd		*
  5700   0014F2  50F5               	movf	tablat,w,c
  5701   0014F4  D005               	bra	u5920
  5702   0014F6                     u5927:
  5703   0014F6  CFF6 FFE1          	movff	tblptrl,fsr1l
  5704   0014FA  CFF7 FFE2          	movff	tblptrh,fsr1h
  5705   0014FE  50E7               	movf	indf1,w,c
  5706   001500                     u5920:
  5707   001500  0A78               	xorlw	120
  5708   001502  B4D8               	btfsc	status,2,c
  5709   001504  EF86  F00A         	goto	u5931
  5710   001508  EF88  F00A         	goto	u5930
  5711   00150C                     u5931:
  5712   00150C  EF21  F00B         	goto	l4831
  5713   001510                     u5930:
  5714   001510  C036  FFF6         	movff	vfpfcnvrt@cp,tblptrl
  5715   001514  C037  FFF7         	movff	vfpfcnvrt@cp+1,tblptrh
  5716   001518  0E00               	movlw	low (__smallconst shr (0+16))
  5717   00151A  6EF8               	movwf	tblptru,c
  5718   00151C  0E0F               	movlw	(high __ramtop+-1)
  5719   00151E  64F7               	cpfsgt	tblptrh,c
  5720   001520  D003               	bra	u5947
  5721   001522  0008               	tblrd		*
  5722   001524  50F5               	movf	tablat,w,c
  5723   001526  D005               	bra	u5940
  5724   001528                     u5947:
  5725   001528  CFF6 FFE1          	movff	tblptrl,fsr1l
  5726   00152C  CFF7 FFE2          	movff	tblptrh,fsr1h
  5727   001530  50E7               	movf	indf1,w,c
  5728   001532                     u5940:
  5729   001532  0A58               	xorlw	88
  5730   001534  B4D8               	btfsc	status,2,c
  5731   001536  EF9F  F00A         	goto	u5951
  5732   00153A  EFA1  F00A         	goto	u5950
  5733   00153E                     u5951:
  5734   00153E  EF21  F00B         	goto	l4831
  5735   001542                     u5950:
  5736   001542  C036  FFF6         	movff	vfpfcnvrt@cp,tblptrl
  5737   001546  C037  FFF7         	movff	vfpfcnvrt@cp+1,tblptrh
  5738   00154A  0E00               	movlw	low (__smallconst shr (0+16))
  5739   00154C  6EF8               	movwf	tblptru,c
  5740   00154E  0E0F               	movlw	(high __ramtop+-1)
  5741   001550  64F7               	cpfsgt	tblptrh,c
  5742   001552  D003               	bra	u5967
  5743   001554  0008               	tblrd		*
  5744   001556  50F5               	movf	tablat,w,c
  5745   001558  D005               	bra	u5960
  5746   00155A                     u5967:
  5747   00155A  CFF6 FFE1          	movff	tblptrl,fsr1l
  5748   00155E  CFF7 FFE2          	movff	tblptrh,fsr1h
  5749   001562  50E7               	movf	indf1,w,c
  5750   001564                     u5960:
  5751   001564  0A6F               	xorlw	111
  5752   001566  B4D8               	btfsc	status,2,c
  5753   001568  EFB8  F00A         	goto	u5971
  5754   00156C  EFBA  F00A         	goto	u5970
  5755   001570                     u5971:
  5756   001570  EF21  F00B         	goto	l4831
  5757   001574                     u5970:
  5758   001574  C036  FFF6         	movff	vfpfcnvrt@cp,tblptrl
  5759   001578  C037  FFF7         	movff	vfpfcnvrt@cp+1,tblptrh
  5760   00157C  0E00               	movlw	low (__smallconst shr (0+16))
  5761   00157E  6EF8               	movwf	tblptru,c
  5762   001580  0E0F               	movlw	(high __ramtop+-1)
  5763   001582  64F7               	cpfsgt	tblptrh,c
  5764   001584  D003               	bra	u5987
  5765   001586  0008               	tblrd		*
  5766   001588  50F5               	movf	tablat,w,c
  5767   00158A  D005               	bra	u5980
  5768   00158C                     u5987:
  5769   00158C  CFF6 FFE1          	movff	tblptrl,fsr1l
  5770   001590  CFF7 FFE2          	movff	tblptrh,fsr1h
  5771   001594  50E7               	movf	indf1,w,c
  5772   001596                     u5980:
  5773   001596  0A75               	xorlw	117
  5774   001598  A4D8               	btfss	status,2,c
  5775   00159A  EFD1  F00A         	goto	u5991
  5776   00159E  EFD3  F00A         	goto	u5990
  5777   0015A2                     u5991:
  5778   0015A2  EFA6  F00B         	goto	l4851
  5779   0015A6                     u5990:
  5780   0015A6  EF21  F00B         	goto	l4831
  5781   0015AA                     l4819:
  5782                           
  5783                           ;C:\Program Files\Microchip\xc8\v3.10\pic\sources\c99\common\doprnt.c: 1456:      convar
      +                          g.uint = (vfpf_uint_t)(unsigned int)(*(unsigned int *)__va_arg(*(unsigned int **)ap, (un
      +                          signed int)0));
  5784   0015AA  C02B  FFD9         	movff	vfpfcnvrt@ap,fsr2l
  5785   0015AE  C02C  FFDA         	movff	vfpfcnvrt@ap+1,fsr2h
  5786   0015B2  0E02               	movlw	2
  5787   0015B4  26DF               	addwf	indf2,f,c
  5788   0015B6  5CDF               	subwf	indf2,w,c
  5789   0015B8  6ED9               	movwf	fsr2l,c
  5790   0015BA  6ADA               	clrf	fsr2h,c
  5791   0015BC  CFDE F032          	movff	postinc2,vfpfcnvrt@convarg
  5792   0015C0  CFDE F033          	movff	postinc2,vfpfcnvrt@convarg+1
  5793                           
  5794                           ;C:\Program Files\Microchip\xc8\v3.10\pic\sources\c99\common\doprnt.c: 1457:      break;
  5795   0015C4  EF38  F00B         	goto	l4833
  5796   0015C8                     l4821:
  5797                           
  5798                           ;C:\Program Files\Microchip\xc8\v3.10\pic\sources\c99\common\doprnt.c: 1460:      convar
      +                          g.uint = (vfpf_uint_t)(unsigned short)(*(unsigned int *)__va_arg(*(unsigned int **)ap, (
      +                          unsigned int)0));
  5799   0015C8  C02B  FFD9         	movff	vfpfcnvrt@ap,fsr2l
  5800   0015CC  C02C  FFDA         	movff	vfpfcnvrt@ap+1,fsr2h
  5801   0015D0  0E02               	movlw	2
  5802   0015D2  26DF               	addwf	indf2,f,c
  5803   0015D4  5CDF               	subwf	indf2,w,c
  5804   0015D6  6ED9               	movwf	fsr2l,c
  5805   0015D8  6ADA               	clrf	fsr2h,c
  5806   0015DA  CFDE F032          	movff	postinc2,vfpfcnvrt@convarg
  5807   0015DE  CFDE F033          	movff	postinc2,vfpfcnvrt@convarg+1
  5808                           
  5809                           ;C:\Program Files\Microchip\xc8\v3.10\pic\sources\c99\common\doprnt.c: 1461:      break;
  5810   0015E2  EF38  F00B         	goto	l4833
  5811   0015E6                     l4823:
  5812                           
  5813                           ;C:\Program Files\Microchip\xc8\v3.10\pic\sources\c99\common\doprnt.c: 1465:      convar
      +                          g.uint = (vfpf_uint_t)(unsigned char)(*(unsigned int *)__va_arg(*(unsigned int **)ap, (u
      +                          nsigned int)0));
  5814   0015E6  C02B  FFD9         	movff	vfpfcnvrt@ap,fsr2l
  5815   0015EA  C02C  FFDA         	movff	vfpfcnvrt@ap+1,fsr2h
  5816   0015EE  50DF               	movf	indf2,w,c
  5817   0015F0  2ADF               	incf	indf2,f,c
  5818   0015F2  2ADF               	incf	indf2,f,c
  5819   0015F4  6ED9               	movwf	fsr2l,c
  5820   0015F6  6ADA               	clrf	fsr2h,c
  5821   0015F8  50DF               	movf	indf2,w,c
  5822   0015FA  6E2D               	movwf	??_vfpfcnvrt^0,c
  5823   0015FC  502D               	movf	??_vfpfcnvrt^0,w,c
  5824   0015FE  6E32               	movwf	vfpfcnvrt@convarg^0,c
  5825   001600  6A33               	clrf	(vfpfcnvrt@convarg+1)^0,c
  5826                           
  5827                           ;C:\Program Files\Microchip\xc8\v3.10\pic\sources\c99\common\doprnt.c: 1466:      break;
  5828   001602  EF38  F00B         	goto	l4833
  5829   001606                     l4825:
  5830                           
  5831                           ;C:\Program Files\Microchip\xc8\v3.10\pic\sources\c99\common\doprnt.c: 1480:      convar
      +                          g.uint = (vfpf_uint_t)(*(ptrdiff_t *)__va_arg(*(ptrdiff_t **)ap, (ptrdiff_t)0));
  5832   001606  C02B  FFD9         	movff	vfpfcnvrt@ap,fsr2l
  5833   00160A  C02C  FFDA         	movff	vfpfcnvrt@ap+1,fsr2h
  5834   00160E  0E02               	movlw	2
  5835   001610  26DF               	addwf	indf2,f,c
  5836   001612  5CDF               	subwf	indf2,w,c
  5837   001614  6ED9               	movwf	fsr2l,c
  5838   001616  6ADA               	clrf	fsr2h,c
  5839   001618  CFDE F032          	movff	postinc2,vfpfcnvrt@convarg
  5840   00161C  CFDE F033          	movff	postinc2,vfpfcnvrt@convarg+1
  5841                           
  5842                           ;C:\Program Files\Microchip\xc8\v3.10\pic\sources\c99\common\doprnt.c: 1481:      break;
  5843   001620  EF38  F00B         	goto	l4833
  5844   001624                     l4827:
  5845                           
  5846                           ;C:\Program Files\Microchip\xc8\v3.10\pic\sources\c99\common\doprnt.c: 1490:      convar
      +                          g.uint = (vfpf_uint_t)(*(size_t *)__va_arg(*(size_t **)ap, (size_t)0));
  5847   001624  C02B  FFD9         	movff	vfpfcnvrt@ap,fsr2l
  5848   001628  C02C  FFDA         	movff	vfpfcnvrt@ap+1,fsr2h
  5849   00162C  0E02               	movlw	2
  5850   00162E  26DF               	addwf	indf2,f,c
  5851   001630  5CDF               	subwf	indf2,w,c
  5852   001632  6ED9               	movwf	fsr2l,c
  5853   001634  6ADA               	clrf	fsr2h,c
  5854   001636  CFDE F032          	movff	postinc2,vfpfcnvrt@convarg
  5855   00163A  CFDE F033          	movff	postinc2,vfpfcnvrt@convarg+1
  5856                           
  5857                           ;C:\Program Files\Microchip\xc8\v3.10\pic\sources\c99\common\doprnt.c: 1491:      break;
  5858   00163E  EF38  F00B         	goto	l4833
  5859   001642                     l4831:
  5860   001642  5031               	movf	vfpfcnvrt@c^0,w,c
  5861                           
  5862                           ; Switch size 1, requested type "simple"
  5863                           ; Number of cases is 5, Range of values is 72 to 122
  5864                           ; switch strategies available:
  5865                           ; Name         Instructions Cycles
  5866                           ; simple_byte           16     9 (average)
  5867                           ;	Chosen strategy is simple_byte
  5868   001644  0A48               	xorlw	72	; case 72
  5869   001646  B4D8               	btfsc	status,2,c
  5870   001648  EFF3  F00A         	goto	l4823
  5871   00164C  0A20               	xorlw	32	; case 104
  5872   00164E  B4D8               	btfsc	status,2,c
  5873   001650  EFE4  F00A         	goto	l4821
  5874   001654  0A01               	xorlw	1	; case 105
  5875   001656  B4D8               	btfsc	status,2,c
  5876   001658  EFD5  F00A         	goto	l4819
  5877   00165C  0A1D               	xorlw	29	; case 116
  5878   00165E  B4D8               	btfsc	status,2,c
  5879   001660  EF03  F00B         	goto	l4825
  5880   001664  0A0E               	xorlw	14	; case 122
  5881   001666  B4D8               	btfsc	status,2,c
  5882   001668  EF12  F00B         	goto	l4827
  5883   00166C  EF38  F00B         	goto	l4833
  5884   001670                     l4833:
  5885                           
  5886                           ;C:\Program Files\Microchip\xc8\v3.10\pic\sources\c99\common\doprnt.c: 1497:    *fmt = c
      +                          p+1;
  5887   001670  0E01               	movlw	1
  5888   001672  2436               	addwf	vfpfcnvrt@cp^0,w,c
  5889   001674  6E2D               	movwf	??_vfpfcnvrt^0,c
  5890   001676  0E00               	movlw	0
  5891   001678  2037               	addwfc	(vfpfcnvrt@cp+1)^0,w,c
  5892   00167A  6E2E               	movwf	(??_vfpfcnvrt+1)^0,c
  5893   00167C  502A               	movf	vfpfcnvrt@fmt^0,w,c
  5894   00167E  6ED9               	movwf	fsr2l,c
  5895   001680  6ADA               	clrf	fsr2h,c
  5896   001682  C02D  FFDE         	movff	??_vfpfcnvrt,postinc2
  5897   001686  C02E  FFDD         	movff	??_vfpfcnvrt+1,postdec2
  5898                           
  5899                           ;C:\Program Files\Microchip\xc8\v3.10\pic\sources\c99\common\doprnt.c: 1498:    switch (
      +                          *cp) {
  5900   00168A  EF83  F00B         	goto	l4849
  5901   00168E                     l4835:
  5902                           
  5903                           ;C:\Program Files\Microchip\xc8\v3.10\pic\sources\c99\common\doprnt.c: 1519:      return
      +                           (int) otoa(fp, convarg.uint);
  5904   00168E  C029  F017         	movff	vfpfcnvrt@fp,otoa@fp
  5905   001692  C032  F018         	movff	vfpfcnvrt@convarg,otoa@d
  5906   001696  C033  F019         	movff	vfpfcnvrt@convarg+1,otoa@d+1
  5907   00169A  ECE4  F01C         	call	_otoa	;wreg free
  5908   00169E  C017  F029         	movff	?_otoa,?_vfpfcnvrt
  5909   0016A2  C018  F02A         	movff	?_otoa+1,?_vfpfcnvrt+1
  5910   0016A6  EFBD  F00C         	goto	l1154
  5911   0016AA                     l4839:
  5912                           
  5913                           ;C:\Program Files\Microchip\xc8\v3.10\pic\sources\c99\common\doprnt.c: 1542:      return
      +                           (int) utoa(fp, convarg.uint);
  5914   0016AA  C029  F017         	movff	vfpfcnvrt@fp,utoa@fp
  5915   0016AE  C032  F018         	movff	vfpfcnvrt@convarg,utoa@d
  5916   0016B2  C033  F019         	movff	vfpfcnvrt@convarg+1,utoa@d+1
  5917   0016B6  ECA0  F01D         	call	_utoa	;wreg free
  5918   0016BA  C017  F029         	movff	?_utoa,?_vfpfcnvrt
  5919   0016BE  C018  F02A         	movff	?_utoa+1,?_vfpfcnvrt+1
  5920   0016C2  EFBD  F00C         	goto	l1154
  5921   0016C6                     l4843:
  5922                           
  5923                           ;C:\Program Files\Microchip\xc8\v3.10\pic\sources\c99\common\doprnt.c: 1586:      return
      +                           (int) xtoa(fp,convarg.uint,*cp);
  5924   0016C6  C029  F017         	movff	vfpfcnvrt@fp,xtoa@fp
  5925   0016CA  C032  F018         	movff	vfpfcnvrt@convarg,xtoa@d
  5926   0016CE  C033  F019         	movff	vfpfcnvrt@convarg+1,xtoa@d+1
  5927   0016D2  C036  FFF6         	movff	vfpfcnvrt@cp,tblptrl
  5928   0016D6  C037  FFF7         	movff	vfpfcnvrt@cp+1,tblptrh
  5929   0016DA  0E00               	movlw	low (__smallconst shr (0+16))
  5930   0016DC  6EF8               	movwf	tblptru,c
  5931   0016DE  0E0F               	movlw	(high __ramtop+-1)
  5932   0016E0  64F7               	cpfsgt	tblptrh,c
  5933   0016E2  D003               	bra	u6007
  5934   0016E4  0008               	tblrd		*
  5935   0016E6  50F5               	movf	tablat,w,c
  5936   0016E8  D005               	bra	u6000
  5937   0016EA                     u6007:
  5938   0016EA  CFF6 FFE1          	movff	tblptrl,fsr1l
  5939   0016EE  CFF7 FFE2          	movff	tblptrh,fsr1h
  5940   0016F2  50E7               	movf	indf1,w,c
  5941   0016F4                     u6000:
  5942   0016F4  6E1A               	movwf	xtoa@x^0,c
  5943   0016F6  EC60  F019         	call	_xtoa	;wreg free
  5944   0016FA  C017  F029         	movff	?_xtoa,?_vfpfcnvrt
  5945   0016FE  C018  F02A         	movff	?_xtoa+1,?_vfpfcnvrt+1
  5946   001702  EFBD  F00C         	goto	l1154
  5947   001706                     l4849:
  5948   001706  C036  FFF6         	movff	vfpfcnvrt@cp,tblptrl
  5949   00170A  C037  FFF7         	movff	vfpfcnvrt@cp+1,tblptrh
  5950   00170E  0E00               	movlw	low (__smallconst shr (0+16))
  5951   001710  6EF8               	movwf	tblptru,c
  5952   001712  0E0F               	movlw	(high __ramtop+-1)
  5953   001714  64F7               	cpfsgt	tblptrh,c
  5954   001716  D003               	bra	u6017
  5955   001718  0008               	tblrd		*
  5956   00171A  50F5               	movf	tablat,w,c
  5957   00171C  D005               	bra	u6010
  5958   00171E                     u6017:
  5959   00171E  CFF6 FFE1          	movff	tblptrl,fsr1l
  5960   001722  CFF7 FFE2          	movff	tblptrh,fsr1h
  5961   001726  50E7               	movf	indf1,w,c
  5962   001728                     u6010:
  5963                           
  5964                           ; Switch size 1, requested type "simple"
  5965                           ; Number of cases is 4, Range of values is 88 to 120
  5966                           ; switch strategies available:
  5967                           ; Name         Instructions Cycles
  5968                           ; simple_byte           13     7 (average)
  5969                           ;	Chosen strategy is simple_byte
  5970   001728  0A58               	xorlw	88	; case 88
  5971   00172A  B4D8               	btfsc	status,2,c
  5972   00172C  EF63  F00B         	goto	l4843
  5973   001730  0A37               	xorlw	55	; case 111
  5974   001732  B4D8               	btfsc	status,2,c
  5975   001734  EF47  F00B         	goto	l4835
  5976   001738  0A1A               	xorlw	26	; case 117
  5977   00173A  B4D8               	btfsc	status,2,c
  5978   00173C  EF55  F00B         	goto	l4839
  5979   001740  0A0D               	xorlw	13	; case 120
  5980   001742  B4D8               	btfsc	status,2,c
  5981   001744  EF63  F00B         	goto	l4843
  5982   001748  EFA6  F00B         	goto	l4851
  5983   00174C                     l4851:
  5984                           
  5985                           ;C:\Program Files\Microchip\xc8\v3.10\pic\sources\c99\common\doprnt.c: 1595:   if (*cp =
      +                          = 'n') {
  5986   00174C  C036  FFF6         	movff	vfpfcnvrt@cp,tblptrl
  5987   001750  C037  FFF7         	movff	vfpfcnvrt@cp+1,tblptrh
  5988   001754  0E00               	movlw	low (__smallconst shr (0+16))
  5989   001756  6EF8               	movwf	tblptru,c
  5990   001758  0E0F               	movlw	(high __ramtop+-1)
  5991   00175A  64F7               	cpfsgt	tblptrh,c
  5992   00175C  D003               	bra	u6027
  5993   00175E  0008               	tblrd		*
  5994   001760  50F5               	movf	tablat,w,c
  5995   001762  D005               	bra	u6020
  5996   001764                     u6027:
  5997   001764  CFF6 FFE1          	movff	tblptrl,fsr1l
  5998   001768  CFF7 FFE2          	movff	tblptrh,fsr1h
  5999   00176C  50E7               	movf	indf1,w,c
  6000   00176E                     u6020:
  6001   00176E  0A6E               	xorlw	110
  6002   001770  A4D8               	btfss	status,2,c
  6003   001772  EFBD  F00B         	goto	u6031
  6004   001776  EFBF  F00B         	goto	u6030
  6005   00177A                     u6031:
  6006   00177A  EF5B  F00C         	goto	l4875
  6007   00177E                     u6030:
  6008   00177E  EF32  F00C         	goto	l4867
  6009   001782                     l4855:
  6010                           
  6011                           ;C:\Program Files\Microchip\xc8\v3.10\pic\sources\c99\common\doprnt.c: 1599:      *(*(in
      +                          t* *)__va_arg(*(int* **)ap, (int*)0)) = (int) nout;
  6012   001782  C02B  FFD9         	movff	vfpfcnvrt@ap,fsr2l
  6013   001786  C02C  FFDA         	movff	vfpfcnvrt@ap+1,fsr2h
  6014   00178A  50DF               	movf	indf2,w,c
  6015   00178C  2ADF               	incf	indf2,f,c
  6016   00178E  2ADF               	incf	indf2,f,c
  6017   001790  6ED9               	movwf	fsr2l,c
  6018   001792  6ADA               	clrf	fsr2h,c
  6019   001794  CFDE F02D          	movff	postinc2,??_vfpfcnvrt
  6020   001798  CFDD F02E          	movff	postdec2,??_vfpfcnvrt+1
  6021   00179C  C02D  FFD9         	movff	??_vfpfcnvrt,fsr2l
  6022   0017A0  C02E  FFDA         	movff	??_vfpfcnvrt+1,fsr2h
  6023   0017A4  C0F6  FFDE         	movff	_nout,postinc2
  6024   0017A8  C0F7  FFDD         	movff	_nout+1,postdec2
  6025                           
  6026                           ;C:\Program Files\Microchip\xc8\v3.10\pic\sources\c99\common\doprnt.c: 1600:      break;
  6027   0017AC  EF49  F00C         	goto	l4869
  6028   0017B0                     l4857:
  6029                           
  6030                           ;C:\Program Files\Microchip\xc8\v3.10\pic\sources\c99\common\doprnt.c: 1603:      *(*(sh
      +                          ort* *)__va_arg(*(short* **)ap, (short*)0)) = (short) nout;
  6031   0017B0  C02B  FFD9         	movff	vfpfcnvrt@ap,fsr2l
  6032   0017B4  C02C  FFDA         	movff	vfpfcnvrt@ap+1,fsr2h
  6033   0017B8  50DF               	movf	indf2,w,c
  6034   0017BA  2ADF               	incf	indf2,f,c
  6035   0017BC  2ADF               	incf	indf2,f,c
  6036   0017BE  6ED9               	movwf	fsr2l,c
  6037   0017C0  6ADA               	clrf	fsr2h,c
  6038   0017C2  CFDE F02D          	movff	postinc2,??_vfpfcnvrt
  6039   0017C6  CFDD F02E          	movff	postdec2,??_vfpfcnvrt+1
  6040   0017CA  C02D  FFD9         	movff	??_vfpfcnvrt,fsr2l
  6041   0017CE  C02E  FFDA         	movff	??_vfpfcnvrt+1,fsr2h
  6042   0017D2  C0F6  FFDE         	movff	_nout,postinc2
  6043   0017D6  C0F7  FFDD         	movff	_nout+1,postdec2
  6044                           
  6045                           ;C:\Program Files\Microchip\xc8\v3.10\pic\sources\c99\common\doprnt.c: 1604:      break;
  6046   0017DA  EF49  F00C         	goto	l4869
  6047   0017DE                     l4859:
  6048                           
  6049                           ;C:\Program Files\Microchip\xc8\v3.10\pic\sources\c99\common\doprnt.c: 1608:      *(*(si
      +                          gned char* *)__va_arg(*(signed char* **)ap, (signed char*)0)) = (signed char) nout;
  6050   0017DE  C02B  FFD9         	movff	vfpfcnvrt@ap,fsr2l
  6051   0017E2  C02C  FFDA         	movff	vfpfcnvrt@ap+1,fsr2h
  6052   0017E6  50DF               	movf	indf2,w,c
  6053   0017E8  2ADF               	incf	indf2,f,c
  6054   0017EA  2ADF               	incf	indf2,f,c
  6055   0017EC  6ED9               	movwf	fsr2l,c
  6056   0017EE  6ADA               	clrf	fsr2h,c
  6057   0017F0  CFDE F02D          	movff	postinc2,??_vfpfcnvrt
  6058   0017F4  CFDD F02E          	movff	postdec2,??_vfpfcnvrt+1
  6059   0017F8  C02D  FFD9         	movff	??_vfpfcnvrt,fsr2l
  6060   0017FC  C02E  FFDA         	movff	??_vfpfcnvrt+1,fsr2h
  6061   001800  C0F6  FFDF         	movff	_nout,indf2
  6062                           
  6063                           ;C:\Program Files\Microchip\xc8\v3.10\pic\sources\c99\common\doprnt.c: 1609:      break;
  6064   001804  EF49  F00C         	goto	l4869
  6065   001808                     l4861:
  6066                           
  6067                           ;C:\Program Files\Microchip\xc8\v3.10\pic\sources\c99\common\doprnt.c: 1623:      *(*(pt
      +                          rdiff_t* *)__va_arg(*(ptrdiff_t* **)ap, (ptrdiff_t*)0)) = (ptrdiff_t) nout;
  6068   001808  C02B  FFD9         	movff	vfpfcnvrt@ap,fsr2l
  6069   00180C  C02C  FFDA         	movff	vfpfcnvrt@ap+1,fsr2h
  6070   001810  50DF               	movf	indf2,w,c
  6071   001812  2ADF               	incf	indf2,f,c
  6072   001814  2ADF               	incf	indf2,f,c
  6073   001816  6ED9               	movwf	fsr2l,c
  6074   001818  6ADA               	clrf	fsr2h,c
  6075   00181A  CFDE F02D          	movff	postinc2,??_vfpfcnvrt
  6076   00181E  CFDD F02E          	movff	postdec2,??_vfpfcnvrt+1
  6077   001822  C02D  FFD9         	movff	??_vfpfcnvrt,fsr2l
  6078   001826  C02E  FFDA         	movff	??_vfpfcnvrt+1,fsr2h
  6079   00182A  C0F6  FFDE         	movff	_nout,postinc2
  6080   00182E  C0F7  FFDD         	movff	_nout+1,postdec2
  6081                           
  6082                           ;C:\Program Files\Microchip\xc8\v3.10\pic\sources\c99\common\doprnt.c: 1624:      break;
  6083   001832  EF49  F00C         	goto	l4869
  6084   001836                     l4863:
  6085                           
  6086                           ;C:\Program Files\Microchip\xc8\v3.10\pic\sources\c99\common\doprnt.c: 1633:      *(*(si
      +                          ze_t* *)__va_arg(*(size_t* **)ap, (size_t*)0)) = (size_t) nout;
  6087   001836  C02B  FFD9         	movff	vfpfcnvrt@ap,fsr2l
  6088   00183A  C02C  FFDA         	movff	vfpfcnvrt@ap+1,fsr2h
  6089   00183E  50DF               	movf	indf2,w,c
  6090   001840  2ADF               	incf	indf2,f,c
  6091   001842  2ADF               	incf	indf2,f,c
  6092   001844  6ED9               	movwf	fsr2l,c
  6093   001846  6ADA               	clrf	fsr2h,c
  6094   001848  CFDE F02D          	movff	postinc2,??_vfpfcnvrt
  6095   00184C  CFDD F02E          	movff	postdec2,??_vfpfcnvrt+1
  6096   001850  C02D  FFD9         	movff	??_vfpfcnvrt,fsr2l
  6097   001854  C02E  FFDA         	movff	??_vfpfcnvrt+1,fsr2h
  6098   001858  C0F6  FFDE         	movff	_nout,postinc2
  6099   00185C  C0F7  FFDD         	movff	_nout+1,postdec2
  6100                           
  6101                           ;C:\Program Files\Microchip\xc8\v3.10\pic\sources\c99\common\doprnt.c: 1634:      break;
  6102   001860  EF49  F00C         	goto	l4869
  6103   001864                     l4867:
  6104   001864  5031               	movf	vfpfcnvrt@c^0,w,c
  6105                           
  6106                           ; Switch size 1, requested type "simple"
  6107                           ; Number of cases is 5, Range of values is 72 to 122
  6108                           ; switch strategies available:
  6109                           ; Name         Instructions Cycles
  6110                           ; simple_byte           16     9 (average)
  6111                           ;	Chosen strategy is simple_byte
  6112   001866  0A48               	xorlw	72	; case 72
  6113   001868  B4D8               	btfsc	status,2,c
  6114   00186A  EFEF  F00B         	goto	l4859
  6115   00186E  0A20               	xorlw	32	; case 104
  6116   001870  B4D8               	btfsc	status,2,c
  6117   001872  EFD8  F00B         	goto	l4857
  6118   001876  0A01               	xorlw	1	; case 105
  6119   001878  B4D8               	btfsc	status,2,c
  6120   00187A  EFC1  F00B         	goto	l4855
  6121   00187E  0A1D               	xorlw	29	; case 116
  6122   001880  B4D8               	btfsc	status,2,c
  6123   001882  EF04  F00C         	goto	l4861
  6124   001886  0A0E               	xorlw	14	; case 122
  6125   001888  B4D8               	btfsc	status,2,c
  6126   00188A  EF1B  F00C         	goto	l4863
  6127   00188E  EF49  F00C         	goto	l4869
  6128   001892                     l4869:
  6129                           
  6130                           ;C:\Program Files\Microchip\xc8\v3.10\pic\sources\c99\common\doprnt.c: 1640:    *fmt = c
      +                          p+1;
  6131   001892  0E01               	movlw	1
  6132   001894  2436               	addwf	vfpfcnvrt@cp^0,w,c
  6133   001896  6E2D               	movwf	??_vfpfcnvrt^0,c
  6134   001898  0E00               	movlw	0
  6135   00189A  2037               	addwfc	(vfpfcnvrt@cp+1)^0,w,c
  6136   00189C  6E2E               	movwf	(??_vfpfcnvrt+1)^0,c
  6137   00189E  502A               	movf	vfpfcnvrt@fmt^0,w,c
  6138   0018A0  6ED9               	movwf	fsr2l,c
  6139   0018A2  6ADA               	clrf	fsr2h,c
  6140   0018A4  C02D  FFDE         	movff	??_vfpfcnvrt,postinc2
  6141   0018A8  C02E  FFDD         	movff	??_vfpfcnvrt+1,postdec2
  6142   0018AC                     l4871:
  6143                           
  6144                           ;C:\Program Files\Microchip\xc8\v3.10\pic\sources\c99\common\doprnt.c: 1641:    return (
      +                          int) 0;
  6145   0018AC  6A2A               	clrf	(?_vfpfcnvrt+1)^0,c
  6146   0018AE  0E00               	movlw	0
  6147   0018B0  6E29               	movwf	?_vfpfcnvrt^0,c
  6148   0018B2  EFBD  F00C         	goto	l1154
  6149   0018B6                     l4875:
  6150                           
  6151                           ;C:\Program Files\Microchip\xc8\v3.10\pic\sources\c99\common\doprnt.c: 1798:         if 
      +                          ((*fmt)[0] == '%') {
  6152   0018B6  502A               	movf	vfpfcnvrt@fmt^0,w,c
  6153   0018B8  6ED9               	movwf	fsr2l,c
  6154   0018BA  6ADA               	clrf	fsr2h,c
  6155   0018BC  CFDE F02D          	movff	postinc2,??_vfpfcnvrt
  6156   0018C0  CFDD F02E          	movff	postdec2,??_vfpfcnvrt+1
  6157   0018C4  C02D  FFF6         	movff	??_vfpfcnvrt,tblptrl
  6158   0018C8  C02E  FFF7         	movff	??_vfpfcnvrt+1,tblptrh
  6159   0018CC  0E00               	movlw	low (__smallconst shr (0+16))
  6160   0018CE  6EF8               	movwf	tblptru,c
  6161   0018D0  0E0F               	movlw	(high __ramtop+-1)
  6162   0018D2  64F7               	cpfsgt	tblptrh,c
  6163   0018D4  D003               	bra	u6047
  6164   0018D6  0008               	tblrd		*
  6165   0018D8  50F5               	movf	tablat,w,c
  6166   0018DA  D005               	bra	u6040
  6167   0018DC                     u6047:
  6168   0018DC  CFF6 FFE1          	movff	tblptrl,fsr1l
  6169   0018E0  CFF7 FFE2          	movff	tblptrh,fsr1h
  6170   0018E4  50E7               	movf	indf1,w,c
  6171   0018E6                     u6040:
  6172   0018E6  0A25               	xorlw	37
  6173   0018E8  A4D8               	btfss	status,2,c
  6174   0018EA  EF79  F00C         	goto	u6051
  6175   0018EE  EF7B  F00C         	goto	u6050
  6176   0018F2                     u6051:
  6177   0018F2  EF8D  F00C         	goto	l4885
  6178   0018F6                     u6050:
  6179   0018F6                     
  6180                           ;C:\Program Files\Microchip\xc8\v3.10\pic\sources\c99\common\doprnt.c: 1799:            
      +                           ++*fmt;
  6181   0018F6  502A               	movf	vfpfcnvrt@fmt^0,w,c
  6182   0018F8  6ED9               	movwf	fsr2l,c
  6183   0018FA  6ADA               	clrf	fsr2h,c
  6184   0018FC  2ADE               	incf	postinc2,f,c
  6185   0018FE  0E00               	movlw	0
  6186   001900  22DD               	addwfc	postdec2,f,c
  6187   001902                     
  6188                           ;C:\Program Files\Microchip\xc8\v3.10\pic\sources\c99\common\doprnt.c: 1800:            
      +                           fputc((int)'%', fp);
  6189   001902  6A02               	clrf	(fputc@c+1)^0,c
  6190   001904  0E25               	movlw	37
  6191   001906  6E01               	movwf	fputc@c^0,c
  6192   001908  C029  F003         	movff	vfpfcnvrt@fp,fputc@fp
  6193   00190C  EC48  F021         	call	_fputc	;wreg free
  6194   001910                     l4881:
  6195                           
  6196                           ;C:\Program Files\Microchip\xc8\v3.10\pic\sources\c99\common\doprnt.c: 1801:            
      +                           return (int) 1;
  6197   001910  6A2A               	clrf	(?_vfpfcnvrt+1)^0,c
  6198   001912  0E01               	movlw	1
  6199   001914  6E29               	movwf	?_vfpfcnvrt^0,c
  6200   001916  EFBD  F00C         	goto	l1154
  6201   00191A                     l4885:
  6202                           
  6203                           ;C:\Program Files\Microchip\xc8\v3.10\pic\sources\c99\common\doprnt.c: 1806:         ++*
      +                          fmt;
  6204   00191A  502A               	movf	vfpfcnvrt@fmt^0,w,c
  6205   00191C  6ED9               	movwf	fsr2l,c
  6206   00191E  6ADA               	clrf	fsr2h,c
  6207   001920  2ADE               	incf	postinc2,f,c
  6208   001922  0E00               	movlw	0
  6209   001924  22DD               	addwfc	postdec2,f,c
  6210   001926  EF56  F00C         	goto	l4871
  6211   00192A                     l4891:
  6212                           
  6213                           ;C:\Program Files\Microchip\xc8\v3.10\pic\sources\c99\common\doprnt.c: 1811:     fputc((
      +                          int)(*fmt)[0], fp);
  6214   00192A  502A               	movf	vfpfcnvrt@fmt^0,w,c
  6215   00192C  6ED9               	movwf	fsr2l,c
  6216   00192E  6ADA               	clrf	fsr2h,c
  6217   001930  CFDE F02D          	movff	postinc2,??_vfpfcnvrt
  6218   001934  CFDD F02E          	movff	postdec2,??_vfpfcnvrt+1
  6219   001938  C02D  FFF6         	movff	??_vfpfcnvrt,tblptrl
  6220   00193C  C02E  FFF7         	movff	??_vfpfcnvrt+1,tblptrh
  6221   001940  0E00               	movlw	low (__smallconst shr (0+16))
  6222   001942  6EF8               	movwf	tblptru,c
  6223   001944  0E0F               	movlw	(high __ramtop+-1)
  6224   001946  64F7               	cpfsgt	tblptrh,c
  6225   001948  D003               	bra	u6067
  6226   00194A  0008               	tblrd		*
  6227   00194C  50F5               	movf	tablat,w,c
  6228   00194E  D005               	bra	u6060
  6229   001950                     u6067:
  6230   001950  CFF6 FFE1          	movff	tblptrl,fsr1l
  6231   001954  CFF7 FFE2          	movff	tblptrh,fsr1h
  6232   001958  50E7               	movf	indf1,w,c
  6233   00195A                     u6060:
  6234   00195A  6E2F               	movwf	(??_vfpfcnvrt+2)^0,c
  6235   00195C  502F               	movf	(??_vfpfcnvrt+2)^0,w,c
  6236   00195E  6E01               	movwf	fputc@c^0,c
  6237   001960  6A02               	clrf	(fputc@c+1)^0,c
  6238   001962  C029  F003         	movff	vfpfcnvrt@fp,fputc@fp
  6239   001966  EC48  F021         	call	_fputc	;wreg free
  6240   00196A                     
  6241                           ;C:\Program Files\Microchip\xc8\v3.10\pic\sources\c99\common\doprnt.c: 1812:     ++*fmt;
  6242   00196A  502A               	movf	vfpfcnvrt@fmt^0,w,c
  6243   00196C  6ED9               	movwf	fsr2l,c
  6244   00196E  6ADA               	clrf	fsr2h,c
  6245   001970  2ADE               	incf	postinc2,f,c
  6246   001972  0E00               	movlw	0
  6247   001974  22DD               	addwfc	postdec2,f,c
  6248   001976  EF88  F00C         	goto	l4881
  6249   00197A                     l1154:
  6250   00197A  0012               	return		;funcret
  6251   00197C                     __end_of_vfpfcnvrt:
  6252                           	callstack 0
  6253                           
  6254 ;; *************** function _xtoa *****************
  6255 ;; Defined at:
  6256 ;;		line 1052 in file "C:\Program Files\Microchip\xc8\v3.10\pic\sources\c99\common\doprnt.c"
  6257 ;; Parameters:    Size  Location     Type
  6258 ;;  fp              1   22[COMRAM] PTR struct _IO_FILE
  6259 ;;		 -> sprintf@f(11), 
  6260 ;;  d               2   23[COMRAM] unsigned int 
  6261 ;;  x               1   25[COMRAM] unsigned char 
  6262 ;; Auto vars:     Size  Location     Type
  6263 ;;  i               2   38[COMRAM] int 
  6264 ;;  w               2   35[COMRAM] int 
  6265 ;;  p               2   32[COMRAM] int 
  6266 ;;  c               1   37[COMRAM] unsigned char 
  6267 ;;  d_nonzero       1   34[COMRAM] _Bool 
  6268 ;;  a               1   29[COMRAM] unsigned char 
  6269 ;; Return value:  Size  Location     Type
  6270 ;;                  2   22[COMRAM] int 
  6271 ;; Registers used:
  6272 ;;		wreg, fsr1l, fsr1h, fsr2l, fsr2h, status,2, status,0, cstack
  6273 ;; Tracked objects:
  6274 ;;		On entry : 0/0
  6275 ;;		On exit  : 0/0
  6276 ;;		Unchanged: 0/0
  6277 ;; Data sizes:     COMRAM   BANK0   BANK1   BANK2   BANK3   BANK4   BANK5   BANK6   BANK7   BANK8   BANK9  BANK10  BANK1
      +1  BANK12
  6278 ;;      Params:         4       0       0       0       0       0       0       0       0       0       0       0       
      +0       0
  6279 ;;      Locals:        11       0       0       0       0       0       0       0       0       0       0       0       
      +0       0
  6280 ;;      Temps:          3       0       0       0       0       0       0       0       0       0       0       0       
      +0       0
  6281 ;;      Totals:        18       0       0       0       0       0       0       0       0       0       0       0       
      +0       0
  6282 ;;Total ram usage:       18 bytes
  6283 ;; Hardware stack levels used: 1
  6284 ;; Hardware stack levels required when called: 1
  6285 ;; This function calls:
  6286 ;;		_pad
  6287 ;; This function is called by:
  6288 ;;		_vfpfcnvrt
  6289 ;; This function uses a non-reentrant model
  6290 ;;
  6291                           
  6292                           	psect	text7
  6293   0032C0                     __ptext7:
  6294                           	callstack 0
  6295   0032C0                     _xtoa:
  6296                           	callstack 25
  6297   0032C0                     
  6298                           ;C:\Program Files\Microchip\xc8\v3.10\pic\sources\c99\common\doprnt.c: 1076:     if (!(p
      +                          rec < 0)) {
  6299   0032C0  0100               	movlb	0	; () banked
  6300   0032C2  BFFB               	btfsc	(_prec+1)& (0+255),7,b
  6301   0032C4  EF66  F019         	goto	u5581
  6302   0032C8  EF68  F019         	goto	u5580
  6303   0032CC                     u5581:
  6304   0032CC  EF69  F019         	goto	l4643
  6305   0032D0                     u5580:
  6306   0032D0                     
  6307                           ; BSR set to: 0
  6308                           ;C:\Program Files\Microchip\xc8\v3.10\pic\sources\c99\common\doprnt.c: 1077:         fla
      +                          gs &= ~(1 << 1);
  6309   0032D0  925F               	bcf	_flags^0,1,c
  6310   0032D2                     l4643:
  6311                           
  6312                           ; BSR set to: 0
  6313                           ;C:\Program Files\Microchip\xc8\v3.10\pic\sources\c99\common\doprnt.c: 1080:     p = (0 
      +                          <= prec) ? prec : 1;
  6314   0032D2  BFFB               	btfsc	(_prec+1)& (0+255),7,b
  6315   0032D4  EF70  F019         	goto	u5590
  6316   0032D8  EF6E  F019         	goto	u5591
  6317   0032DC                     u5591:
  6318   0032DC  EF75  F019         	goto	l1109
  6319   0032E0                     u5590:
  6320   0032E0                     
  6321                           ; BSR set to: 0
  6322   0032E0  6A22               	clrf	(xtoa@p+1)^0,c
  6323   0032E2  0E01               	movlw	1
  6324   0032E4  6E21               	movwf	xtoa@p^0,c
  6325   0032E6  EF79  F019         	goto	l1111
  6326   0032EA                     l1109:
  6327                           
  6328                           ; BSR set to: 0
  6329   0032EA  C0FA  F021         	movff	_prec,xtoa@p
  6330   0032EE  C0FB  F022         	movff	_prec+1,xtoa@p+1
  6331   0032F2                     l1111:
  6332                           
  6333                           ; BSR set to: 0
  6334                           ;C:\Program Files\Microchip\xc8\v3.10\pic\sources\c99\common\doprnt.c: 1082:     w = wid
      +                          th;
  6335   0032F2  C0F8  F024         	movff	_width,xtoa@w
  6336   0032F6  C0F9  F025         	movff	_width+1,xtoa@w+1
  6337   0032FA                     
  6338                           ; BSR set to: 0
  6339                           ;C:\Program Files\Microchip\xc8\v3.10\pic\sources\c99\common\doprnt.c: 1084:  d_nonzero 
      +                          = d != 0;
  6340   0032FA  5018               	movf	xtoa@d^0,w,c
  6341   0032FC  1019               	iorwf	(xtoa@d+1)^0,w,c
  6342   0032FE  A4D8               	btfss	status,2,c
  6343   003300  EF84  F019         	goto	u5601
  6344   003304  EF87  F019         	goto	u5600
  6345   003308                     u5601:
  6346   003308  0E01               	movlw	1
  6347   00330A  EF88  F019         	goto	u5610
  6348   00330E                     u5600:
  6349   00330E  0E00               	movlw	0
  6350   003310                     u5610:
  6351   003310  6E23               	movwf	xtoa@d_nonzero^0,c
  6352   003312                     
  6353                           ; BSR set to: 0
  6354                           ;C:\Program Files\Microchip\xc8\v3.10\pic\sources\c99\common\doprnt.c: 1085:     if ((fl
      +                          ags & (1 << 4)) && d_nonzero) {
  6355   003312  A85F               	btfss	_flags^0,4,c
  6356   003314  EF8E  F019         	goto	u5621
  6357   003318  EF90  F019         	goto	u5620
  6358   00331C                     u5621:
  6359   00331C  EF9C  F019         	goto	l1112
  6360   003320                     u5620:
  6361   003320                     
  6362                           ; BSR set to: 0
  6363   003320  5023               	movf	xtoa@d_nonzero^0,w,c
  6364   003322  B4D8               	btfsc	status,2,c
  6365   003324  EF96  F019         	goto	u5631
  6366   003328  EF98  F019         	goto	u5630
  6367   00332C                     u5631:
  6368   00332C  EF9C  F019         	goto	l1112
  6369   003330                     u5630:
  6370   003330                     
  6371                           ; BSR set to: 0
  6372                           ;C:\Program Files\Microchip\xc8\v3.10\pic\sources\c99\common\doprnt.c: 1086:         w -
      +                          = 2;
  6373   003330  0EFE               	movlw	254
  6374   003332  2624               	addwf	xtoa@w^0,f,c
  6375   003334  0EFF               	movlw	255
  6376   003336  2225               	addwfc	(xtoa@w+1)^0,f,c
  6377   003338                     l1112:
  6378                           
  6379                           ; BSR set to: 0
  6380                           ;C:\Program Files\Microchip\xc8\v3.10\pic\sources\c99\common\doprnt.c: 1091:  a = x == '
      +                          x' ? 'a' : 'A';
  6381   003338  0E78               	movlw	120
  6382   00333A  181A               	xorwf	xtoa@x^0,w,c
  6383   00333C  B4D8               	btfsc	status,2,c
  6384   00333E  EFA3  F019         	goto	u5641
  6385   003342  EFA5  F019         	goto	u5640
  6386   003346                     u5641:
  6387   003346  EFAA  F019         	goto	l4657
  6388   00334A                     u5640:
  6389   00334A                     
  6390                           ; BSR set to: 0
  6391   00334A  6A20               	clrf	(_xtoa$1256+1)^0,c
  6392   00334C  0E41               	movlw	65
  6393   00334E  6E1F               	movwf	_xtoa$1256^0,c
  6394   003350  EFAD  F019         	goto	l4659
  6395   003354                     l4657:
  6396                           
  6397                           ; BSR set to: 0
  6398   003354  6A20               	clrf	(_xtoa$1256+1)^0,c
  6399   003356  0E61               	movlw	97
  6400   003358  6E1F               	movwf	_xtoa$1256^0,c
  6401   00335A                     l4659:
  6402                           
  6403                           ; BSR set to: 0
  6404   00335A  C01F  F01E         	movff	_xtoa$1256,xtoa@a
  6405                           
  6406                           ;C:\Program Files\Microchip\xc8\v3.10\pic\sources\c99\common\doprnt.c: 1095:     i = siz
      +                          eof(dbuf) - 1;
  6407   00335E  6A28               	clrf	(xtoa@i+1)^0,c
  6408   003360  0E1F               	movlw	31
  6409   003362  6E27               	movwf	xtoa@i^0,c
  6410   003364                     
  6411                           ; BSR set to: 0
  6412                           ;C:\Program Files\Microchip\xc8\v3.10\pic\sources\c99\common\doprnt.c: 1096:     dbuf[i]
      +                           = '\0';
  6413   003364  0101               	movlb	1	; () banked
  6414   003366  6B23               	clrf	(_dbuf+31)& (0+255),b
  6415                           
  6416                           ;C:\Program Files\Microchip\xc8\v3.10\pic\sources\c99\common\doprnt.c: 1097:     while (
      +                          !(i < 2) && (d != 0
  6417   003368  EFE9  F019         	goto	l4681
  6418   00336C                     l4663:
  6419                           
  6420                           ;C:\Program Files\Microchip\xc8\v3.10\pic\sources\c99\common\doprnt.c: 1106:     )) {;C:
      +                          \Program Files\Microchip\xc8\v3.10\pic\sources\c99\common\doprnt.c: 1107:         --i;
  6421   00336C  0627               	decf	xtoa@i^0,f,c
  6422   00336E  A0D8               	btfss	status,0,c
  6423   003370  0628               	decf	(xtoa@i+1)^0,f,c
  6424   003372                     
  6425                           ;C:\Program Files\Microchip\xc8\v3.10\pic\sources\c99\common\doprnt.c: 1108:         c =
      +                           d & 0x0f;
  6426   003372  5018               	movf	xtoa@d^0,w,c
  6427   003374  0B0F               	andlw	15
  6428   003376  6E26               	movwf	xtoa@c^0,c
  6429   003378                     
  6430                           ;C:\Program Files\Microchip\xc8\v3.10\pic\sources\c99\common\doprnt.c: 1109:   if (c < 1
      +                          0) {
  6431   003378  0E0A               	movlw	10
  6432   00337A  6026               	cpfslt	xtoa@c^0,c
  6433   00337C  EFC2  F019         	goto	u5651
  6434   003380  EFC4  F019         	goto	u5650
  6435   003384                     u5651:
  6436   003384  EFC8  F019         	goto	l4671
  6437   003388                     u5650:
  6438   003388                     
  6439                           ;C:\Program Files\Microchip\xc8\v3.10\pic\sources\c99\common\doprnt.c: 1110:    c += '0'
      +                          ;
  6440   003388  0E30               	movlw	48
  6441   00338A  2626               	addwf	xtoa@c^0,f,c
  6442                           
  6443                           ;C:\Program Files\Microchip\xc8\v3.10\pic\sources\c99\common\doprnt.c: 1111:   }
  6444   00338C  EFCB  F019         	goto	l4673
  6445   003390                     l4671:
  6446                           
  6447                           ;C:\Program Files\Microchip\xc8\v3.10\pic\sources\c99\common\doprnt.c: 1114:    c += a -
      +                           10;
  6448   003390  501E               	movf	xtoa@a^0,w,c
  6449   003392  0FF6               	addlw	246
  6450   003394  2626               	addwf	xtoa@c^0,f,c
  6451   003396                     l4673:
  6452                           
  6453                           ;C:\Program Files\Microchip\xc8\v3.10\pic\sources\c99\common\doprnt.c: 1121:   dbuf[i] =
      +                           c;
  6454   003396  0E04               	movlw	low _dbuf
  6455   003398  2427               	addwf	xtoa@i^0,w,c
  6456   00339A  6ED9               	movwf	fsr2l,c
  6457   00339C  0E01               	movlw	high _dbuf
  6458   00339E  2028               	addwfc	(xtoa@i+1)^0,w,c
  6459   0033A0  6EDA               	movwf	fsr2h,c
  6460   0033A2  C026  FFDF         	movff	xtoa@c,indf2
  6461   0033A6                     
  6462                           ;C:\Program Files\Microchip\xc8\v3.10\pic\sources\c99\common\doprnt.c: 1123:         --p
      +                          ;
  6463   0033A6  0621               	decf	xtoa@p^0,f,c
  6464   0033A8  A0D8               	btfss	status,0,c
  6465   0033AA  0622               	decf	(xtoa@p+1)^0,f,c
  6466   0033AC                     
  6467                           ;C:\Program Files\Microchip\xc8\v3.10\pic\sources\c99\common\doprnt.c: 1127:         --w
      +                          ;
  6468   0033AC  0624               	decf	xtoa@w^0,f,c
  6469   0033AE  A0D8               	btfss	status,0,c
  6470   0033B0  0625               	decf	(xtoa@w+1)^0,f,c
  6471   0033B2                     
  6472                           ;C:\Program Files\Microchip\xc8\v3.10\pic\sources\c99\common\doprnt.c: 1128:         d =
      +                           d >> 4;
  6473   0033B2  C018  F01B         	movff	xtoa@d,??_xtoa
  6474   0033B6  C019  F01C         	movff	xtoa@d+1,??_xtoa+1
  6475   0033BA  0E04               	movlw	4
  6476   0033BC  6E1D               	movwf	(??_xtoa+2)^0,c
  6477   0033BE                     u5665:
  6478   0033BE  90D8               	bcf	status,0,c
  6479   0033C0  321C               	rrcf	(??_xtoa+1)^0,f,c
  6480   0033C2  321B               	rrcf	??_xtoa^0,f,c
  6481   0033C4  2E1D               	decfsz	(??_xtoa+2)^0,f,c
  6482   0033C6  EFDF  F019         	goto	u5665
  6483   0033CA  C01B  F018         	movff	??_xtoa,xtoa@d
  6484   0033CE  C01C  F019         	movff	??_xtoa+1,xtoa@d+1
  6485   0033D2                     l4681:
  6486                           
  6487                           ;C:\Program Files\Microchip\xc8\v3.10\pic\sources\c99\common\doprnt.c: 1097:     while (
      +                          !(i < 2) && (d != 0
  6488   0033D2  BE28               	btfsc	(xtoa@i+1)^0,7,c
  6489   0033D4  EFF5  F019         	goto	u5671
  6490   0033D8  5028               	movf	(xtoa@i+1)^0,w,c
  6491   0033DA  E109               	bnz	u5670
  6492   0033DC  0E02               	movlw	2
  6493   0033DE  5C27               	subwf	xtoa@i^0,w,c
  6494   0033E0  A0D8               	btfss	status,0,c
  6495   0033E2  EFF5  F019         	goto	u5671
  6496   0033E6  EFF7  F019         	goto	u5670
  6497   0033EA                     u5671:
  6498   0033EA  EF21  F01A         	goto	l1125
  6499   0033EE                     u5670:
  6500   0033EE  5018               	movf	xtoa@d^0,w,c
  6501   0033F0  1019               	iorwf	(xtoa@d+1)^0,w,c
  6502   0033F2  A4D8               	btfss	status,2,c
  6503   0033F4  EFFE  F019         	goto	u5681
  6504   0033F8  EF00  F01A         	goto	u5680
  6505   0033FC                     u5681:
  6506   0033FC  EFB6  F019         	goto	l4663
  6507   003400                     u5680:
  6508   003400  BE22               	btfsc	(xtoa@p+1)^0,7,c
  6509   003402  EF0D  F01A         	goto	u5690
  6510   003406  5022               	movf	(xtoa@p+1)^0,w,c
  6511   003408  E106               	bnz	u5691
  6512   00340A  0421               	decf	xtoa@p^0,w,c
  6513   00340C  B0D8               	btfsc	status,0,c
  6514   00340E  EF0B  F01A         	goto	u5691
  6515   003412  EF0D  F01A         	goto	u5690
  6516   003416                     u5691:
  6517   003416  EFB6  F019         	goto	l4663
  6518   00341A                     u5690:
  6519   00341A  BE25               	btfsc	(xtoa@w+1)^0,7,c
  6520   00341C  EF18  F01A         	goto	u5701
  6521   003420  5025               	movf	(xtoa@w+1)^0,w,c
  6522   003422  E108               	bnz	u5700
  6523   003424  0424               	decf	xtoa@w^0,w,c
  6524   003426  A0D8               	btfss	status,0,c
  6525   003428  EF18  F01A         	goto	u5701
  6526   00342C  EF1A  F01A         	goto	u5700
  6527   003430                     u5701:
  6528   003430  EF21  F01A         	goto	l1125
  6529   003434                     u5700:
  6530   003434  B25F               	btfsc	_flags^0,1,c
  6531   003436  EF1F  F01A         	goto	u5711
  6532   00343A  EF21  F01A         	goto	u5710
  6533   00343E                     u5711:
  6534   00343E  EFB6  F019         	goto	l4663
  6535   003442                     u5710:
  6536   003442                     l1125:
  6537                           
  6538                           ;C:\Program Files\Microchip\xc8\v3.10\pic\sources\c99\common\doprnt.c: 1133:     if ((fl
      +                          ags & (1 << 4)) && d_nonzero
  6539   003442  A85F               	btfss	_flags^0,4,c
  6540   003444  EF26  F01A         	goto	u5721
  6541   003448  EF28  F01A         	goto	u5720
  6542   00344C                     u5721:
  6543   00344C  EF50  F01A         	goto	l4701
  6544   003450                     u5720:
  6545   003450  5023               	movf	xtoa@d_nonzero^0,w,c
  6546   003452  B4D8               	btfsc	status,2,c
  6547   003454  EF2E  F01A         	goto	u5731
  6548   003458  EF30  F01A         	goto	u5730
  6549   00345C                     u5731:
  6550   00345C  EF50  F01A         	goto	l4701
  6551   003460                     u5730:
  6552   003460  0100               	movlb	0	; () banked
  6553   003462  51FA               	movf	_prec& (0+255),w,b
  6554   003464  11FB               	iorwf	(_prec+1)& (0+255),w,b
  6555   003466  B4D8               	btfsc	status,2,c
  6556   003468  EF38  F01A         	goto	u5741
  6557   00346C  EF3A  F01A         	goto	u5740
  6558   003470                     u5741:
  6559   003470  EF50  F01A         	goto	l4701
  6560   003474                     u5740:
  6561   003474                     
  6562                           ; BSR set to: 0
  6563                           ;C:\Program Files\Microchip\xc8\v3.10\pic\sources\c99\common\doprnt.c: 1137:     ) {;C:\
      +                          Program Files\Microchip\xc8\v3.10\pic\sources\c99\common\doprnt.c: 1138:         --i;
  6564   003474  0627               	decf	xtoa@i^0,f,c
  6565   003476  A0D8               	btfss	status,0,c
  6566   003478  0628               	decf	(xtoa@i+1)^0,f,c
  6567   00347A                     
  6568                           ; BSR set to: 0
  6569                           ;C:\Program Files\Microchip\xc8\v3.10\pic\sources\c99\common\doprnt.c: 1140:         dbu
      +                          f[i] = x;
  6570   00347A  0E04               	movlw	low _dbuf
  6571   00347C  2427               	addwf	xtoa@i^0,w,c
  6572   00347E  6ED9               	movwf	fsr2l,c
  6573   003480  0E01               	movlw	high _dbuf
  6574   003482  2028               	addwfc	(xtoa@i+1)^0,w,c
  6575   003484  6EDA               	movwf	fsr2h,c
  6576   003486  C01A  FFDF         	movff	xtoa@x,indf2
  6577   00348A                     
  6578                           ; BSR set to: 0
  6579                           ;C:\Program Files\Microchip\xc8\v3.10\pic\sources\c99\common\doprnt.c: 1146:         --i
      +                          ;
  6580   00348A  0627               	decf	xtoa@i^0,f,c
  6581   00348C  A0D8               	btfss	status,0,c
  6582   00348E  0628               	decf	(xtoa@i+1)^0,f,c
  6583                           
  6584                           ;C:\Program Files\Microchip\xc8\v3.10\pic\sources\c99\common\doprnt.c: 1147:         dbu
      +                          f[i] = '0';
  6585   003490  0E04               	movlw	low _dbuf
  6586   003492  2427               	addwf	xtoa@i^0,w,c
  6587   003494  6ED9               	movwf	fsr2l,c
  6588   003496  0E01               	movlw	high _dbuf
  6589   003498  2028               	addwfc	(xtoa@i+1)^0,w,c
  6590   00349A  6EDA               	movwf	fsr2h,c
  6591   00349C  0E30               	movlw	48
  6592   00349E  6EDF               	movwf	indf2,c
  6593   0034A0                     l4701:
  6594                           
  6595                           ;C:\Program Files\Microchip\xc8\v3.10\pic\sources\c99\common\doprnt.c: 1152:     return 
      +                          (int) pad(fp, &dbuf[i], w);
  6596   0034A0  C017  F00F         	movff	xtoa@fp,pad@fp
  6597   0034A4  0E04               	movlw	low _dbuf
  6598   0034A6  2427               	addwf	xtoa@i^0,w,c
  6599   0034A8  6E10               	movwf	pad@buf^0,c
  6600   0034AA  0E01               	movlw	high _dbuf
  6601   0034AC  2028               	addwfc	(xtoa@i+1)^0,w,c
  6602   0034AE  6E11               	movwf	(pad@buf+1)^0,c
  6603   0034B0  C024  F012         	movff	xtoa@w,pad@p
  6604   0034B4  C025  F013         	movff	xtoa@w+1,pad@p+1
  6605   0034B8  EC9D  F021         	call	_pad	;wreg free
  6606   0034BC  C00F  F017         	movff	?_pad,?_xtoa
  6607   0034C0  C010  F018         	movff	?_pad+1,?_xtoa+1
  6608   0034C4  0012               	return		;funcret
  6609   0034C6                     __end_of_xtoa:
  6610                           	callstack 0
  6611                           
  6612 ;; *************** function _utoa *****************
  6613 ;; Defined at:
  6614 ;;		line 1001 in file "C:\Program Files\Microchip\xc8\v3.10\pic\sources\c99\common\doprnt.c"
  6615 ;; Parameters:    Size  Location     Type
  6616 ;;  fp              1   22[COMRAM] PTR struct _IO_FILE
  6617 ;;		 -> sprintf@f(11), 
  6618 ;;  d               2   23[COMRAM] unsigned int 
  6619 ;; Auto vars:     Size  Location     Type
  6620 ;;  i               2   29[COMRAM] int 
  6621 ;;  w               2   27[COMRAM] int 
  6622 ;;  p               2   25[COMRAM] int 
  6623 ;; Return value:  Size  Location     Type
  6624 ;;                  2   22[COMRAM] int 
  6625 ;; Registers used:
  6626 ;;		wreg, fsr1l, fsr1h, fsr2l, fsr2h, status,2, status,0, cstack
  6627 ;; Tracked objects:
  6628 ;;		On entry : 0/0
  6629 ;;		On exit  : 0/0
  6630 ;;		Unchanged: 0/0
  6631 ;; Data sizes:     COMRAM   BANK0   BANK1   BANK2   BANK3   BANK4   BANK5   BANK6   BANK7   BANK8   BANK9  BANK10  BANK1
      +1  BANK12
  6632 ;;      Params:         3       0       0       0       0       0       0       0       0       0       0       0       
      +0       0
  6633 ;;      Locals:         6       0       0       0       0       0       0       0       0       0       0       0       
      +0       0
  6634 ;;      Temps:          0       0       0       0       0       0       0       0       0       0       0       0       
      +0       0
  6635 ;;      Totals:         9       0       0       0       0       0       0       0       0       0       0       0       
      +0       0
  6636 ;;Total ram usage:        9 bytes
  6637 ;; Hardware stack levels used: 1
  6638 ;; Hardware stack levels required when called: 1
  6639 ;; This function calls:
  6640 ;;		___lwdiv
  6641 ;;		___lwmod
  6642 ;;		_pad
  6643 ;; This function is called by:
  6644 ;;		_vfpfcnvrt
  6645 ;; This function uses a non-reentrant model
  6646 ;;
  6647                           
  6648                           	psect	text8
  6649   003B40                     __ptext8:
  6650                           	callstack 0
  6651   003B40                     _utoa:
  6652                           	callstack 25
  6653   003B40                     
  6654                           ;C:\Program Files\Microchip\xc8\v3.10\pic\sources\c99\common\doprnt.c: 1001: static int 
      +                          utoa(FILE *fp, vfpf_uint_t d);C:\Program Files\Microchip\xc8\v3.10\pic\sources\c99\commo
      +                          n\doprnt.c: 1002: {;C:\Program Files\Microchip\xc8\v3.10\pic\sources\c99\common\doprnt.c
      +                          : 1003:     int i, w;;C:\Program Files\Microchip\xc8\v3.10\pic\sources\c99\common\doprnt
      +                          .c: 1005:  int p;;C:\Program Files\Microchip\xc8\v3.10\pic\sources\c99\common\doprnt.c: 
      +                          1013:     if (!(prec < 0)) {
  6655   003B40  0100               	movlb	0	; () banked
  6656   003B42  BFFB               	btfsc	(_prec+1)& (0+255),7,b
  6657   003B44  EFA6  F01D         	goto	u5511
  6658   003B48  EFA8  F01D         	goto	u5510
  6659   003B4C                     u5511:
  6660   003B4C  EFA9  F01D         	goto	l4605
  6661   003B50                     u5510:
  6662   003B50                     
  6663                           ; BSR set to: 0
  6664                           ;C:\Program Files\Microchip\xc8\v3.10\pic\sources\c99\common\doprnt.c: 1014:         fla
      +                          gs &= ~(1 << 1);
  6665   003B50  925F               	bcf	_flags^0,1,c
  6666   003B52                     l4605:
  6667                           
  6668                           ; BSR set to: 0
  6669                           ;C:\Program Files\Microchip\xc8\v3.10\pic\sources\c99\common\doprnt.c: 1017:     p = (0 
      +                          <= prec) ? prec : 1;
  6670   003B52  BFFB               	btfsc	(_prec+1)& (0+255),7,b
  6671   003B54  EFB0  F01D         	goto	u5520
  6672   003B58  EFAE  F01D         	goto	u5521
  6673   003B5C                     u5521:
  6674   003B5C  EFB5  F01D         	goto	l1094
  6675   003B60                     u5520:
  6676   003B60                     
  6677                           ; BSR set to: 0
  6678   003B60  6A1B               	clrf	(utoa@p+1)^0,c
  6679   003B62  0E01               	movlw	1
  6680   003B64  6E1A               	movwf	utoa@p^0,c
  6681   003B66  EFB9  F01D         	goto	l1096
  6682   003B6A                     l1094:
  6683                           
  6684                           ; BSR set to: 0
  6685   003B6A  C0FA  F01A         	movff	_prec,utoa@p
  6686   003B6E  C0FB  F01B         	movff	_prec+1,utoa@p+1
  6687   003B72                     l1096:
  6688                           
  6689                           ; BSR set to: 0
  6690                           ;C:\Program Files\Microchip\xc8\v3.10\pic\sources\c99\common\doprnt.c: 1019:     w = wid
      +                          th;
  6691   003B72  C0F8  F01C         	movff	_width,utoa@w
  6692   003B76  C0F9  F01D         	movff	_width+1,utoa@w+1
  6693   003B7A                     
  6694                           ; BSR set to: 0
  6695                           ;C:\Program Files\Microchip\xc8\v3.10\pic\sources\c99\common\doprnt.c: 1022:     i = siz
      +                          eof(dbuf) - 1;
  6696   003B7A  6A1F               	clrf	(utoa@i+1)^0,c
  6697   003B7C  0E1F               	movlw	31
  6698   003B7E  6E1E               	movwf	utoa@i^0,c
  6699   003B80                     
  6700                           ; BSR set to: 0
  6701                           ;C:\Program Files\Microchip\xc8\v3.10\pic\sources\c99\common\doprnt.c: 1023:     dbuf[i]
      +                           = '\0';
  6702   003B80  0101               	movlb	1	; () banked
  6703   003B82  6B23               	clrf	(_dbuf+31)& (0+255),b
  6704                           
  6705                           ;C:\Program Files\Microchip\xc8\v3.10\pic\sources\c99\common\doprnt.c: 1024:     while (
      +                          i && (d != 0
  6706   003B84  EFEC  F01D         	goto	l4623
  6707   003B88                     l4613:
  6708                           
  6709                           ;C:\Program Files\Microchip\xc8\v3.10\pic\sources\c99\common\doprnt.c: 1033:     )) {;C:
      +                          \Program Files\Microchip\xc8\v3.10\pic\sources\c99\common\doprnt.c: 1034:         --i;
  6710   003B88  061E               	decf	utoa@i^0,f,c
  6711   003B8A  A0D8               	btfss	status,0,c
  6712   003B8C  061F               	decf	(utoa@i+1)^0,f,c
  6713   003B8E                     
  6714                           ;C:\Program Files\Microchip\xc8\v3.10\pic\sources\c99\common\doprnt.c: 1035:         dbu
      +                          f[i] = '0' + (d % 10);
  6715   003B8E  0E04               	movlw	low _dbuf
  6716   003B90  241E               	addwf	utoa@i^0,w,c
  6717   003B92  6ED9               	movwf	fsr2l,c
  6718   003B94  0E01               	movlw	high _dbuf
  6719   003B96  201F               	addwfc	(utoa@i+1)^0,w,c
  6720   003B98  6EDA               	movwf	fsr2h,c
  6721   003B9A  C018  F001         	movff	utoa@d,___lwmod@dividend
  6722   003B9E  C019  F002         	movff	utoa@d+1,___lwmod@dividend+1
  6723   003BA2  6A04               	clrf	(___lwmod@divisor+1)^0,c
  6724   003BA4  0E0A               	movlw	10
  6725   003BA6  6E03               	movwf	___lwmod@divisor^0,c
  6726   003BA8  ECA9  F022         	call	___lwmod	;wreg free
  6727   003BAC  5001               	movf	?___lwmod^0,w,c
  6728   003BAE  0F30               	addlw	48
  6729   003BB0  6EDF               	movwf	indf2,c
  6730   003BB2                     
  6731                           ;C:\Program Files\Microchip\xc8\v3.10\pic\sources\c99\common\doprnt.c: 1037:         --p
      +                          ;
  6732   003BB2  061A               	decf	utoa@p^0,f,c
  6733   003BB4  A0D8               	btfss	status,0,c
  6734   003BB6  061B               	decf	(utoa@p+1)^0,f,c
  6735   003BB8                     
  6736                           ;C:\Program Files\Microchip\xc8\v3.10\pic\sources\c99\common\doprnt.c: 1041:         --w
      +                          ;
  6737   003BB8  061C               	decf	utoa@w^0,f,c
  6738   003BBA  A0D8               	btfss	status,0,c
  6739   003BBC  061D               	decf	(utoa@w+1)^0,f,c
  6740   003BBE                     
  6741                           ;C:\Program Files\Microchip\xc8\v3.10\pic\sources\c99\common\doprnt.c: 1042:         d =
      +                           d / 10;
  6742   003BBE  C018  F001         	movff	utoa@d,___lwdiv@dividend
  6743   003BC2  C019  F002         	movff	utoa@d+1,___lwdiv@dividend+1
  6744   003BC6  6A04               	clrf	(___lwdiv@divisor+1)^0,c
  6745   003BC8  0E0A               	movlw	10
  6746   003BCA  6E03               	movwf	___lwdiv@divisor^0,c
  6747   003BCC  EC3B  F022         	call	___lwdiv	;wreg free
  6748   003BD0  C001  F018         	movff	?___lwdiv,utoa@d
  6749   003BD4  C002  F019         	movff	?___lwdiv+1,utoa@d+1
  6750   003BD8                     l4623:
  6751                           
  6752                           ;C:\Program Files\Microchip\xc8\v3.10\pic\sources\c99\common\doprnt.c: 1024:     while (
      +                          i && (d != 0
  6753   003BD8  501E               	movf	utoa@i^0,w,c
  6754   003BDA  101F               	iorwf	(utoa@i+1)^0,w,c
  6755   003BDC  B4D8               	btfsc	status,2,c
  6756   003BDE  EFF3  F01D         	goto	u5531
  6757   003BE2  EFF5  F01D         	goto	u5530
  6758   003BE6                     u5531:
  6759   003BE6  EF1F  F01E         	goto	l4633
  6760   003BEA                     u5530:
  6761   003BEA  5018               	movf	utoa@d^0,w,c
  6762   003BEC  1019               	iorwf	(utoa@d+1)^0,w,c
  6763   003BEE  A4D8               	btfss	status,2,c
  6764   003BF0  EFFC  F01D         	goto	u5541
  6765   003BF4  EFFE  F01D         	goto	u5540
  6766   003BF8                     u5541:
  6767   003BF8  EFC4  F01D         	goto	l4613
  6768   003BFC                     u5540:
  6769   003BFC  BE1B               	btfsc	(utoa@p+1)^0,7,c
  6770   003BFE  EF0B  F01E         	goto	u5550
  6771   003C02  501B               	movf	(utoa@p+1)^0,w,c
  6772   003C04  E106               	bnz	u5551
  6773   003C06  041A               	decf	utoa@p^0,w,c
  6774   003C08  B0D8               	btfsc	status,0,c
  6775   003C0A  EF09  F01E         	goto	u5551
  6776   003C0E  EF0B  F01E         	goto	u5550
  6777   003C12                     u5551:
  6778   003C12  EFC4  F01D         	goto	l4613
  6779   003C16                     u5550:
  6780   003C16  BE1D               	btfsc	(utoa@w+1)^0,7,c
  6781   003C18  EF16  F01E         	goto	u5561
  6782   003C1C  501D               	movf	(utoa@w+1)^0,w,c
  6783   003C1E  E108               	bnz	u5560
  6784   003C20  041C               	decf	utoa@w^0,w,c
  6785   003C22  A0D8               	btfss	status,0,c
  6786   003C24  EF16  F01E         	goto	u5561
  6787   003C28  EF18  F01E         	goto	u5560
  6788   003C2C                     u5561:
  6789   003C2C  EF1F  F01E         	goto	l4633
  6790   003C30                     u5560:
  6791   003C30  B25F               	btfsc	_flags^0,1,c
  6792   003C32  EF1D  F01E         	goto	u5571
  6793   003C36  EF1F  F01E         	goto	u5570
  6794   003C3A                     u5571:
  6795   003C3A  EFC4  F01D         	goto	l4613
  6796   003C3E                     u5570:
  6797   003C3E                     l4633:
  6798                           
  6799                           ;C:\Program Files\Microchip\xc8\v3.10\pic\sources\c99\common\doprnt.c: 1046:     return 
      +                          (int) pad(fp, &dbuf[i], w);
  6800   003C3E  C017  F00F         	movff	utoa@fp,pad@fp
  6801   003C42  0E04               	movlw	low _dbuf
  6802   003C44  241E               	addwf	utoa@i^0,w,c
  6803   003C46  6E10               	movwf	pad@buf^0,c
  6804   003C48  0E01               	movlw	high _dbuf
  6805   003C4A  201F               	addwfc	(utoa@i+1)^0,w,c
  6806   003C4C  6E11               	movwf	(pad@buf+1)^0,c
  6807   003C4E  C01C  F012         	movff	utoa@w,pad@p
  6808   003C52  C01D  F013         	movff	utoa@w+1,pad@p+1
  6809   003C56  EC9D  F021         	call	_pad	;wreg free
  6810   003C5A  C00F  F017         	movff	?_pad,?_utoa
  6811   003C5E  C010  F018         	movff	?_pad+1,?_utoa+1
  6812   003C62  0012               	return		;funcret
  6813   003C64                     __end_of_utoa:
  6814                           	callstack 0
  6815                           
  6816 ;; *************** function ___lwmod *****************
  6817 ;; Defined at:
  6818 ;;		line 7 in file "C:\Program Files\Microchip\xc8\v3.10\pic\sources\c99\common\lwmod.c"
  6819 ;; Parameters:    Size  Location     Type
  6820 ;;  dividend        2    0[COMRAM] unsigned int 
  6821 ;;  divisor         2    2[COMRAM] unsigned int 
  6822 ;; Auto vars:     Size  Location     Type
  6823 ;;  counter         1    4[COMRAM] unsigned char 
  6824 ;; Return value:  Size  Location     Type
  6825 ;;                  2    0[COMRAM] unsigned int 
  6826 ;; Registers used:
  6827 ;;		wreg, status,2, status,0
  6828 ;; Tracked objects:
  6829 ;;		On entry : 0/0
  6830 ;;		On exit  : 0/0
  6831 ;;		Unchanged: 0/0
  6832 ;; Data sizes:     COMRAM   BANK0   BANK1   BANK2   BANK3   BANK4   BANK5   BANK6   BANK7   BANK8   BANK9  BANK10  BANK1
      +1  BANK12
  6833 ;;      Params:         4       0       0       0       0       0       0       0       0       0       0       0       
      +0       0
  6834 ;;      Locals:         1       0       0       0       0       0       0       0       0       0       0       0       
      +0       0
  6835 ;;      Temps:          0       0       0       0       0       0       0       0       0       0       0       0       
      +0       0
  6836 ;;      Totals:         5       0       0       0       0       0       0       0       0       0       0       0       
      +0       0
  6837 ;;Total ram usage:        5 bytes
  6838 ;; Hardware stack levels used: 1
  6839 ;; This function calls:
  6840 ;;		Nothing
  6841 ;; This function is called by:
  6842 ;;		_utoa
  6843 ;; This function uses a non-reentrant model
  6844 ;;
  6845                           
  6846                           	psect	text9
  6847   004552                     __ptext9:
  6848                           	callstack 0
  6849   004552                     ___lwmod:
  6850                           	callstack 25
  6851   004552  5003               	movf	___lwmod@divisor^0,w,c
  6852   004554  1004               	iorwf	(___lwmod@divisor+1)^0,w,c
  6853   004556  B4D8               	btfsc	status,2,c
  6854   004558  EFB0  F022         	goto	u2881
  6855   00455C  EFB2  F022         	goto	u2880
  6856   004560                     u2881:
  6857   004560  EFD6  F022         	goto	l789
  6858   004564                     u2880:
  6859   004564  0E01               	movlw	1
  6860   004566  6E05               	movwf	___lwmod@counter^0,c
  6861   004568  EFBA  F022         	goto	l3015
  6862   00456C                     l3013:
  6863   00456C  90D8               	bcf	status,0,c
  6864   00456E  3603               	rlcf	___lwmod@divisor^0,f,c
  6865   004570  3604               	rlcf	(___lwmod@divisor+1)^0,f,c
  6866   004572  2A05               	incf	___lwmod@counter^0,f,c
  6867   004574                     l3015:
  6868   004574  AE04               	btfss	(___lwmod@divisor+1)^0,7,c
  6869   004576  EFBF  F022         	goto	u2891
  6870   00457A  EFC1  F022         	goto	u2890
  6871   00457E                     u2891:
  6872   00457E  EFB6  F022         	goto	l3013
  6873   004582                     u2890:
  6874   004582                     l3017:
  6875   004582  5003               	movf	___lwmod@divisor^0,w,c
  6876   004584  5C01               	subwf	___lwmod@dividend^0,w,c
  6877   004586  5004               	movf	(___lwmod@divisor+1)^0,w,c
  6878   004588  5802               	subwfb	(___lwmod@dividend+1)^0,w,c
  6879   00458A  A0D8               	btfss	status,0,c
  6880   00458C  EFCA  F022         	goto	u2901
  6881   004590  EFCC  F022         	goto	u2900
  6882   004594                     u2901:
  6883   004594  EFD0  F022         	goto	l3021
  6884   004598                     u2900:
  6885   004598  5003               	movf	___lwmod@divisor^0,w,c
  6886   00459A  5E01               	subwf	___lwmod@dividend^0,f,c
  6887   00459C  5004               	movf	(___lwmod@divisor+1)^0,w,c
  6888   00459E  5A02               	subwfb	(___lwmod@dividend+1)^0,f,c
  6889   0045A0                     l3021:
  6890   0045A0  90D8               	bcf	status,0,c
  6891   0045A2  3204               	rrcf	(___lwmod@divisor+1)^0,f,c
  6892   0045A4  3203               	rrcf	___lwmod@divisor^0,f,c
  6893   0045A6  2E05               	decfsz	___lwmod@counter^0,f,c
  6894   0045A8  EFC1  F022         	goto	l3017
  6895   0045AC                     l789:
  6896   0045AC  C001  F001         	movff	___lwmod@dividend,?___lwmod
  6897   0045B0  C002  F002         	movff	___lwmod@dividend+1,?___lwmod+1
  6898   0045B4  0012               	return		;funcret
  6899   0045B6                     __end_of___lwmod:
  6900                           	callstack 0
  6901                           
  6902 ;; *************** function ___lwdiv *****************
  6903 ;; Defined at:
  6904 ;;		line 7 in file "C:\Program Files\Microchip\xc8\v3.10\pic\sources\c99\common\lwdiv.c"
  6905 ;; Parameters:    Size  Location     Type
  6906 ;;  dividend        2    0[COMRAM] unsigned int 
  6907 ;;  divisor         2    2[COMRAM] unsigned int 
  6908 ;; Auto vars:     Size  Location     Type
  6909 ;;  quotient        2    4[COMRAM] unsigned int 
  6910 ;;  counter         1    6[COMRAM] unsigned char 
  6911 ;; Return value:  Size  Location     Type
  6912 ;;                  2    0[COMRAM] unsigned int 
  6913 ;; Registers used:
  6914 ;;		wreg, status,2, status,0
  6915 ;; Tracked objects:
  6916 ;;		On entry : 0/0
  6917 ;;		On exit  : 0/0
  6918 ;;		Unchanged: 0/0
  6919 ;; Data sizes:     COMRAM   BANK0   BANK1   BANK2   BANK3   BANK4   BANK5   BANK6   BANK7   BANK8   BANK9  BANK10  BANK1
      +1  BANK12
  6920 ;;      Params:         4       0       0       0       0       0       0       0       0       0       0       0       
      +0       0
  6921 ;;      Locals:         3       0       0       0       0       0       0       0       0       0       0       0       
      +0       0
  6922 ;;      Temps:          0       0       0       0       0       0       0       0       0       0       0       0       
      +0       0
  6923 ;;      Totals:         7       0       0       0       0       0       0       0       0       0       0       0       
      +0       0
  6924 ;;Total ram usage:        7 bytes
  6925 ;; Hardware stack levels used: 1
  6926 ;; This function calls:
  6927 ;;		Nothing
  6928 ;; This function is called by:
  6929 ;;		_utoa
  6930 ;; This function uses a non-reentrant model
  6931 ;;
  6932                           
  6933                           	psect	text10
  6934   004476                     __ptext10:
  6935                           	callstack 0
  6936   004476                     ___lwdiv:
  6937                           	callstack 25
  6938   004476  6A06               	clrf	(___lwdiv@quotient+1)^0,c
  6939   004478  0E00               	movlw	0
  6940   00447A  6E05               	movwf	___lwdiv@quotient^0,c
  6941   00447C  5003               	movf	___lwdiv@divisor^0,w,c
  6942   00447E  1004               	iorwf	(___lwdiv@divisor+1)^0,w,c
  6943   004480  B4D8               	btfsc	status,2,c
  6944   004482  EF45  F022         	goto	u2851
  6945   004486  EF47  F022         	goto	u2850
  6946   00448A                     u2851:
  6947   00448A  EF6F  F022         	goto	l779
  6948   00448E                     u2850:
  6949   00448E  0E01               	movlw	1
  6950   004490  6E07               	movwf	___lwdiv@counter^0,c
  6951   004492  EF4F  F022         	goto	l2995
  6952   004496                     l2993:
  6953   004496  90D8               	bcf	status,0,c
  6954   004498  3603               	rlcf	___lwdiv@divisor^0,f,c
  6955   00449A  3604               	rlcf	(___lwdiv@divisor+1)^0,f,c
  6956   00449C  2A07               	incf	___lwdiv@counter^0,f,c
  6957   00449E                     l2995:
  6958   00449E  AE04               	btfss	(___lwdiv@divisor+1)^0,7,c
  6959   0044A0  EF54  F022         	goto	u2861
  6960   0044A4  EF56  F022         	goto	u2860
  6961   0044A8                     u2861:
  6962   0044A8  EF4B  F022         	goto	l2993
  6963   0044AC                     u2860:
  6964   0044AC                     l2997:
  6965   0044AC  90D8               	bcf	status,0,c
  6966   0044AE  3605               	rlcf	___lwdiv@quotient^0,f,c
  6967   0044B0  3606               	rlcf	(___lwdiv@quotient+1)^0,f,c
  6968   0044B2  5003               	movf	___lwdiv@divisor^0,w,c
  6969   0044B4  5C01               	subwf	___lwdiv@dividend^0,w,c
  6970   0044B6  5004               	movf	(___lwdiv@divisor+1)^0,w,c
  6971   0044B8  5802               	subwfb	(___lwdiv@dividend+1)^0,w,c
  6972   0044BA  A0D8               	btfss	status,0,c
  6973   0044BC  EF62  F022         	goto	u2871
  6974   0044C0  EF64  F022         	goto	u2870
  6975   0044C4                     u2871:
  6976   0044C4  EF69  F022         	goto	l3005
  6977   0044C8                     u2870:
  6978   0044C8  5003               	movf	___lwdiv@divisor^0,w,c
  6979   0044CA  5E01               	subwf	___lwdiv@dividend^0,f,c
  6980   0044CC  5004               	movf	(___lwdiv@divisor+1)^0,w,c
  6981   0044CE  5A02               	subwfb	(___lwdiv@dividend+1)^0,f,c
  6982   0044D0  8005               	bsf	___lwdiv@quotient^0,0,c
  6983   0044D2                     l3005:
  6984   0044D2  90D8               	bcf	status,0,c
  6985   0044D4  3204               	rrcf	(___lwdiv@divisor+1)^0,f,c
  6986   0044D6  3203               	rrcf	___lwdiv@divisor^0,f,c
  6987   0044D8  2E07               	decfsz	___lwdiv@counter^0,f,c
  6988   0044DA  EF56  F022         	goto	l2997
  6989   0044DE                     l779:
  6990   0044DE  C005  F001         	movff	___lwdiv@quotient,?___lwdiv
  6991   0044E2  C006  F002         	movff	___lwdiv@quotient+1,?___lwdiv+1
  6992   0044E6  0012               	return		;funcret
  6993   0044E8                     __end_of___lwdiv:
  6994                           	callstack 0
  6995                           
  6996 ;; *************** function _read_prec_or_width *****************
  6997 ;; Defined at:
  6998 ;;		line 1158 in file "C:\Program Files\Microchip\xc8\v3.10\pic\sources\c99\common\doprnt.c"
  6999 ;; Parameters:    Size  Location     Type
  7000 ;;  fmt             1    0[COMRAM] PTR PTR const unsigned c
  7001 ;;		 -> vfprintf@cfmt(2), 
  7002 ;;  ap              1    1[COMRAM] PTR PTR void [1]
  7003 ;;		 -> sprintf@ap(1), 
  7004 ;; Auto vars:     Size  Location     Type
  7005 ;;  c               1    4[COMRAM] unsigned char 
  7006 ;;  n               2    5[COMRAM] int 
  7007 ;; Return value:  Size  Location     Type
  7008 ;;                  2    0[COMRAM] int 
  7009 ;; Registers used:
  7010 ;;		wreg, fsr1l, fsr1h, fsr2l, fsr2h, status,2, status,0, tblptrl, tblptrh, tblptru, prodl, prodh
  7011 ;; Tracked objects:
  7012 ;;		On entry : 0/0
  7013 ;;		On exit  : 0/0
  7014 ;;		Unchanged: 0/0
  7015 ;; Data sizes:     COMRAM   BANK0   BANK1   BANK2   BANK3   BANK4   BANK5   BANK6   BANK7   BANK8   BANK9  BANK10  BANK1
      +1  BANK12
  7016 ;;      Params:         2       0       0       0       0       0       0       0       0       0       0       0       
      +0       0
  7017 ;;      Locals:         3       0       0       0       0       0       0       0       0       0       0       0       
      +0       0
  7018 ;;      Temps:          2       0       0       0       0       0       0       0       0       0       0       0       
      +0       0
  7019 ;;      Totals:         7       0       0       0       0       0       0       0       0       0       0       0       
      +0       0
  7020 ;;Total ram usage:        7 bytes
  7021 ;; Hardware stack levels used: 1
  7022 ;; This function calls:
  7023 ;;		Nothing
  7024 ;; This function is called by:
  7025 ;;		_vfpfcnvrt
  7026 ;; This function uses a non-reentrant model
  7027 ;;
  7028                           
  7029                           	psect	text11
  7030   003F78                     __ptext11:
  7031                           	callstack 0
  7032   003F78                     _read_prec_or_width:
  7033                           	callstack 26
  7034   003F78                     
  7035                           ;C:\Program Files\Microchip\xc8\v3.10\pic\sources\c99\common\doprnt.c: 1159:     int n =
      +                           0;
  7036   003F78  6A07               	clrf	(read_prec_or_width@n+1)^0,c
  7037   003F7A  0E00               	movlw	0
  7038   003F7C  6E06               	movwf	read_prec_or_width@n^0,c
  7039   003F7E                     
  7040                           ;C:\Program Files\Microchip\xc8\v3.10\pic\sources\c99\common\doprnt.c: 1160:     if ((*f
      +                          mt)[0] == '*') {
  7041   003F7E  5001               	movf	read_prec_or_width@fmt^0,w,c
  7042   003F80  6ED9               	movwf	fsr2l,c
  7043   003F82  6ADA               	clrf	fsr2h,c
  7044   003F84  CFDE F003          	movff	postinc2,??_read_prec_or_width
  7045   003F88  CFDD F004          	movff	postdec2,??_read_prec_or_width+1
  7046   003F8C  C003  FFF6         	movff	??_read_prec_or_width,tblptrl
  7047   003F90  C004  FFF7         	movff	??_read_prec_or_width+1,tblptrh
  7048   003F94  0E00               	movlw	low (__smallconst shr (0+16))
  7049   003F96  6EF8               	movwf	tblptru,c
  7050   003F98  0E0F               	movlw	(high __ramtop+-1)
  7051   003F9A  64F7               	cpfsgt	tblptrh,c
  7052   003F9C  D003               	bra	u3507
  7053   003F9E  0008               	tblrd		*
  7054   003FA0  50F5               	movf	tablat,w,c
  7055   003FA2  D005               	bra	u3500
  7056   003FA4                     u3507:
  7057   003FA4  CFF6 FFE1          	movff	tblptrl,fsr1l
  7058   003FA8  CFF7 FFE2          	movff	tblptrh,fsr1h
  7059   003FAC  50E7               	movf	indf1,w,c
  7060   003FAE                     u3500:
  7061   003FAE  0A2A               	xorlw	42
  7062   003FB0  A4D8               	btfss	status,2,c
  7063   003FB2  EFDD  F01F         	goto	u3511
  7064   003FB6  EFDF  F01F         	goto	u3510
  7065   003FBA                     u3511:
  7066   003FBA  EF08  F020         	goto	l3317
  7067   003FBE                     u3510:
  7068   003FBE                     
  7069                           ;C:\Program Files\Microchip\xc8\v3.10\pic\sources\c99\common\doprnt.c: 1161:         ++*
      +                          fmt;
  7070   003FBE  5001               	movf	read_prec_or_width@fmt^0,w,c
  7071   003FC0  6ED9               	movwf	fsr2l,c
  7072   003FC2  6ADA               	clrf	fsr2h,c
  7073   003FC4  2ADE               	incf	postinc2,f,c
  7074   003FC6  0E00               	movlw	0
  7075   003FC8  22DD               	addwfc	postdec2,f,c
  7076   003FCA                     
  7077                           ;C:\Program Files\Microchip\xc8\v3.10\pic\sources\c99\common\doprnt.c: 1162:         n =
      +                           (*(int *)__va_arg(*(int **)*ap, (int)0));
  7078   003FCA  5002               	movf	read_prec_or_width@ap^0,w,c
  7079   003FCC  6ED9               	movwf	fsr2l,c
  7080   003FCE  6ADA               	clrf	fsr2h,c
  7081   003FD0  0E02               	movlw	2
  7082   003FD2  26DF               	addwf	indf2,f,c
  7083   003FD4  5CDF               	subwf	indf2,w,c
  7084   003FD6  6ED9               	movwf	fsr2l,c
  7085   003FD8  6ADA               	clrf	fsr2h,c
  7086   003FDA  CFDE F006          	movff	postinc2,read_prec_or_width@n
  7087   003FDE  CFDE F007          	movff	postinc2,read_prec_or_width@n+1
  7088                           
  7089                           ;C:\Program Files\Microchip\xc8\v3.10\pic\sources\c99\common\doprnt.c: 1163:     } else 
      +                          {
  7090   003FE2  EF2A  F020         	goto	l1131
  7091   003FE6                     l3313:
  7092                           
  7093                           ;C:\Program Files\Microchip\xc8\v3.10\pic\sources\c99\common\doprnt.c: 1166:            
      +                           n = n * 10 + c;
  7094   003FE6  0E0A               	movlw	10
  7095   003FE8  0206               	mulwf	read_prec_or_width@n^0,c
  7096   003FEA  CFF3 F003          	movff	prodl,??_read_prec_or_width
  7097   003FEE  CFF4 F004          	movff	prodh,??_read_prec_or_width+1
  7098   003FF2  0207               	mulwf	(read_prec_or_width@n+1)^0,c
  7099   003FF4  50F3               	movf	prodl,w,c
  7100   003FF6  2604               	addwf	(??_read_prec_or_width+1)^0,f,c
  7101   003FF8  5005               	movf	read_prec_or_width@c^0,w,c
  7102   003FFA  2403               	addwf	??_read_prec_or_width^0,w,c
  7103   003FFC  6E06               	movwf	read_prec_or_width@n^0,c
  7104   003FFE  0E00               	movlw	0
  7105   004000  2004               	addwfc	(??_read_prec_or_width+1)^0,w,c
  7106   004002  6E07               	movwf	(read_prec_or_width@n+1)^0,c
  7107   004004                     
  7108                           ;C:\Program Files\Microchip\xc8\v3.10\pic\sources\c99\common\doprnt.c: 1167:            
      +                           ++*fmt;
  7109   004004  5001               	movf	read_prec_or_width@fmt^0,w,c
  7110   004006  6ED9               	movwf	fsr2l,c
  7111   004008  6ADA               	clrf	fsr2h,c
  7112   00400A  2ADE               	incf	postinc2,f,c
  7113   00400C  0E00               	movlw	0
  7114   00400E  22DD               	addwfc	postdec2,f,c
  7115   004010                     l3317:
  7116                           
  7117                           ;C:\Program Files\Microchip\xc8\v3.10\pic\sources\c99\common\doprnt.c: 1165:         whi
      +                          le ((c = ((unsigned)(*fmt)[0]) - '0') < 10) {
  7118   004010  5001               	movf	read_prec_or_width@fmt^0,w,c
  7119   004012  6ED9               	movwf	fsr2l,c
  7120   004014  6ADA               	clrf	fsr2h,c
  7121   004016  CFDE F003          	movff	postinc2,??_read_prec_or_width
  7122   00401A  CFDD F004          	movff	postdec2,??_read_prec_or_width+1
  7123   00401E  C003  FFF6         	movff	??_read_prec_or_width,tblptrl
  7124   004022  C004  FFF7         	movff	??_read_prec_or_width+1,tblptrh
  7125   004026  0E00               	movlw	low (__smallconst shr (0+16))
  7126   004028  6EF8               	movwf	tblptru,c
  7127   00402A  0E0F               	movlw	(high __ramtop+-1)
  7128   00402C  64F7               	cpfsgt	tblptrh,c
  7129   00402E  D003               	bra	u3527
  7130   004030  0008               	tblrd		*
  7131   004032  50F5               	movf	tablat,w,c
  7132   004034  D005               	bra	u3520
  7133   004036                     u3527:
  7134   004036  CFF6 FFE1          	movff	tblptrl,fsr1l
  7135   00403A  CFF7 FFE2          	movff	tblptrh,fsr1h
  7136   00403E  50E7               	movf	indf1,w,c
  7137   004040                     u3520:
  7138   004040  0FD0               	addlw	208
  7139   004042  6E05               	movwf	read_prec_or_width@c^0,c
  7140   004044  0E09               	movlw	9
  7141   004046  6405               	cpfsgt	read_prec_or_width@c^0,c
  7142   004048  EF28  F020         	goto	u3531
  7143   00404C  EF2A  F020         	goto	u3530
  7144   004050                     u3531:
  7145   004050  EFF3  F01F         	goto	l3313
  7146   004054                     u3530:
  7147   004054                     l1131:
  7148                           
  7149                           ;C:\Program Files\Microchip\xc8\v3.10\pic\sources\c99\common\doprnt.c: 1170:     return 
      +                          n;
  7150   004054  C006  F001         	movff	read_prec_or_width@n,?_read_prec_or_width
  7151   004058  C007  F002         	movff	read_prec_or_width@n+1,?_read_prec_or_width+1
  7152   00405C  0012               	return		;funcret
  7153   00405E                     __end_of_read_prec_or_width:
  7154                           	callstack 0
  7155                           
  7156 ;; *************** function _otoa *****************
  7157 ;; Defined at:
  7158 ;;		line 872 in file "C:\Program Files\Microchip\xc8\v3.10\pic\sources\c99\common\doprnt.c"
  7159 ;; Parameters:    Size  Location     Type
  7160 ;;  fp              1   22[COMRAM] PTR struct _IO_FILE
  7161 ;;		 -> sprintf@f(11), 
  7162 ;;  d               2   23[COMRAM] unsigned int 
  7163 ;; Auto vars:     Size  Location     Type
  7164 ;;  i               2   32[COMRAM] int 
  7165 ;;  w               2   30[COMRAM] int 
  7166 ;;  p               2   27[COMRAM] int 
  7167 ;;  t               1   29[COMRAM] unsigned char 
  7168 ;; Return value:  Size  Location     Type
  7169 ;;                  2   22[COMRAM] int 
  7170 ;; Registers used:
  7171 ;;		wreg, fsr1l, fsr1h, fsr2l, fsr2h, status,2, status,0, cstack
  7172 ;; Tracked objects:
  7173 ;;		On entry : 0/0
  7174 ;;		On exit  : 0/0
  7175 ;;		Unchanged: 0/0
  7176 ;; Data sizes:     COMRAM   BANK0   BANK1   BANK2   BANK3   BANK4   BANK5   BANK6   BANK7   BANK8   BANK9  BANK10  BANK1
      +1  BANK12
  7177 ;;      Params:         3       0       0       0       0       0       0       0       0       0       0       0       
      +0       0
  7178 ;;      Locals:         7       0       0       0       0       0       0       0       0       0       0       0       
      +0       0
  7179 ;;      Temps:          2       0       0       0       0       0       0       0       0       0       0       0       
      +0       0
  7180 ;;      Totals:        12       0       0       0       0       0       0       0       0       0       0       0       
      +0       0
  7181 ;;Total ram usage:       12 bytes
  7182 ;; Hardware stack levels used: 1
  7183 ;; Hardware stack levels required when called: 1
  7184 ;; This function calls:
  7185 ;;		_pad
  7186 ;; This function is called by:
  7187 ;;		_vfpfcnvrt
  7188 ;; This function uses a non-reentrant model
  7189 ;;
  7190                           
  7191                           	psect	text12
  7192   0039C8                     __ptext12:
  7193                           	callstack 0
  7194   0039C8                     _otoa:
  7195                           	callstack 25
  7196   0039C8                     
  7197                           ;C:\Program Files\Microchip\xc8\v3.10\pic\sources\c99\common\doprnt.c: 872: static int o
      +                          toa(FILE *fp, vfpf_uint_t d);C:\Program Files\Microchip\xc8\v3.10\pic\sources\c99\common
      +                          \doprnt.c: 873: {;C:\Program Files\Microchip\xc8\v3.10\pic\sources\c99\common\doprnt.c: 
      +                          875:  char t;;C:\Program Files\Microchip\xc8\v3.10\pic\sources\c99\common\doprnt.c: 877:
      +                               int i, w;;C:\Program Files\Microchip\xc8\v3.10\pic\sources\c99\common\doprnt.c: 879
      +                          :  int p;;C:\Program Files\Microchip\xc8\v3.10\pic\sources\c99\common\doprnt.c: 887:    
      +                           if (!(prec < 0)) {
  7198   0039C8  0100               	movlb	0	; () banked
  7199   0039CA  BFFB               	btfsc	(_prec+1)& (0+255),7,b
  7200   0039CC  EFEA  F01C         	goto	u5411
  7201   0039D0  EFEC  F01C         	goto	u5410
  7202   0039D4                     u5411:
  7203   0039D4  EFED  F01C         	goto	l4555
  7204   0039D8                     u5410:
  7205   0039D8                     
  7206                           ; BSR set to: 0
  7207                           ;C:\Program Files\Microchip\xc8\v3.10\pic\sources\c99\common\doprnt.c: 888:         flag
      +                          s &= ~(1 << 1);
  7208   0039D8  925F               	bcf	_flags^0,1,c
  7209   0039DA                     l4555:
  7210                           
  7211                           ; BSR set to: 0
  7212                           ;C:\Program Files\Microchip\xc8\v3.10\pic\sources\c99\common\doprnt.c: 891:     p = (0 <
      +                          = prec) ? prec : 1;
  7213   0039DA  BFFB               	btfsc	(_prec+1)& (0+255),7,b
  7214   0039DC  EFF4  F01C         	goto	u5420
  7215   0039E0  EFF2  F01C         	goto	u5421
  7216   0039E4                     u5421:
  7217   0039E4  EFF9  F01C         	goto	l1076
  7218   0039E8                     u5420:
  7219   0039E8                     
  7220                           ; BSR set to: 0
  7221   0039E8  6A1D               	clrf	(otoa@p+1)^0,c
  7222   0039EA  0E01               	movlw	1
  7223   0039EC  6E1C               	movwf	otoa@p^0,c
  7224   0039EE  EFFD  F01C         	goto	l1078
  7225   0039F2                     l1076:
  7226                           
  7227                           ; BSR set to: 0
  7228   0039F2  C0FA  F01C         	movff	_prec,otoa@p
  7229   0039F6  C0FB  F01D         	movff	_prec+1,otoa@p+1
  7230   0039FA                     l1078:
  7231                           
  7232                           ; BSR set to: 0
  7233                           ;C:\Program Files\Microchip\xc8\v3.10\pic\sources\c99\common\doprnt.c: 893:     w = widt
      +                          h;
  7234   0039FA  C0F8  F01F         	movff	_width,otoa@w
  7235   0039FE  C0F9  F020         	movff	_width+1,otoa@w+1
  7236   003A02                     
  7237                           ; BSR set to: 0
  7238                           ;C:\Program Files\Microchip\xc8\v3.10\pic\sources\c99\common\doprnt.c: 896:     i = size
      +                          of(dbuf) - 1;
  7239   003A02  6A22               	clrf	(otoa@i+1)^0,c
  7240   003A04  0E1F               	movlw	31
  7241   003A06  6E21               	movwf	otoa@i^0,c
  7242   003A08                     
  7243                           ; BSR set to: 0
  7244                           ;C:\Program Files\Microchip\xc8\v3.10\pic\sources\c99\common\doprnt.c: 897:     dbuf[i] 
      +                          = '\0';
  7245   003A08  0101               	movlb	1	; () banked
  7246   003A0A  6B23               	clrf	(_dbuf+31)& (0+255),b
  7247   003A0C                     
  7248                           ; BSR set to: 1
  7249                           ;C:\Program Files\Microchip\xc8\v3.10\pic\sources\c99\common\doprnt.c: 899:     t = 0;
  7250   003A0C  6A1E               	clrf	otoa@t^0,c
  7251                           
  7252                           ;C:\Program Files\Microchip\xc8\v3.10\pic\sources\c99\common\doprnt.c: 901:     while (!
      +                          (i < 1) && (d != 0
  7253   003A0E  EF2F  F01D         	goto	l4577
  7254   003A12                     l4565:
  7255                           
  7256                           ;C:\Program Files\Microchip\xc8\v3.10\pic\sources\c99\common\doprnt.c: 910:     )) {;C:\
      +                          Program Files\Microchip\xc8\v3.10\pic\sources\c99\common\doprnt.c: 911:         --i;
  7257   003A12  0621               	decf	otoa@i^0,f,c
  7258   003A14  A0D8               	btfss	status,0,c
  7259   003A16  0622               	decf	(otoa@i+1)^0,f,c
  7260   003A18                     
  7261                           ;C:\Program Files\Microchip\xc8\v3.10\pic\sources\c99\common\doprnt.c: 913:         t = 
      +                          d & 07;
  7262   003A18  5018               	movf	otoa@d^0,w,c
  7263   003A1A  0B07               	andlw	7
  7264   003A1C  6E1E               	movwf	otoa@t^0,c
  7265   003A1E                     
  7266                           ;C:\Program Files\Microchip\xc8\v3.10\pic\sources\c99\common\doprnt.c: 914:         dbuf
      +                          [i] = (char)((int)'0' + t);
  7267   003A1E  0E04               	movlw	low _dbuf
  7268   003A20  2421               	addwf	otoa@i^0,w,c
  7269   003A22  6ED9               	movwf	fsr2l,c
  7270   003A24  0E01               	movlw	high _dbuf
  7271   003A26  2022               	addwfc	(otoa@i+1)^0,w,c
  7272   003A28  6EDA               	movwf	fsr2h,c
  7273   003A2A  501E               	movf	otoa@t^0,w,c
  7274   003A2C  0F30               	addlw	48
  7275   003A2E  6EDF               	movwf	indf2,c
  7276   003A30                     
  7277                           ;C:\Program Files\Microchip\xc8\v3.10\pic\sources\c99\common\doprnt.c: 919:         --p;
  7278   003A30  061C               	decf	otoa@p^0,f,c
  7279   003A32  A0D8               	btfss	status,0,c
  7280   003A34  061D               	decf	(otoa@p+1)^0,f,c
  7281   003A36                     
  7282                           ;C:\Program Files\Microchip\xc8\v3.10\pic\sources\c99\common\doprnt.c: 923:         --w;
  7283   003A36  061F               	decf	otoa@w^0,f,c
  7284   003A38  A0D8               	btfss	status,0,c
  7285   003A3A  0620               	decf	(otoa@w+1)^0,f,c
  7286   003A3C                     
  7287                           ;C:\Program Files\Microchip\xc8\v3.10\pic\sources\c99\common\doprnt.c: 924:         d = 
      +                          d >> 3;
  7288   003A3C  C018  F01A         	movff	otoa@d,??_otoa
  7289   003A40  C019  F01B         	movff	otoa@d+1,??_otoa+1
  7290   003A44  90D8               	bcf	status,0,c
  7291   003A46  321B               	rrcf	(??_otoa+1)^0,f,c
  7292   003A48  321A               	rrcf	??_otoa^0,f,c
  7293   003A4A  90D8               	bcf	status,0,c
  7294   003A4C  321B               	rrcf	(??_otoa+1)^0,f,c
  7295   003A4E  321A               	rrcf	??_otoa^0,f,c
  7296   003A50  90D8               	bcf	status,0,c
  7297   003A52  321B               	rrcf	(??_otoa+1)^0,f,c
  7298   003A54  321A               	rrcf	??_otoa^0,f,c
  7299   003A56  C01A  F018         	movff	??_otoa,otoa@d
  7300   003A5A  C01B  F019         	movff	??_otoa+1,otoa@d+1
  7301   003A5E                     l4577:
  7302                           
  7303                           ;C:\Program Files\Microchip\xc8\v3.10\pic\sources\c99\common\doprnt.c: 901:     while (!
      +                          (i < 1) && (d != 0
  7304   003A5E  BE22               	btfsc	(otoa@i+1)^0,7,c
  7305   003A60  EF3A  F01D         	goto	u5431
  7306   003A64  5022               	movf	(otoa@i+1)^0,w,c
  7307   003A66  E108               	bnz	u5430
  7308   003A68  0421               	decf	otoa@i^0,w,c
  7309   003A6A  A0D8               	btfss	status,0,c
  7310   003A6C  EF3A  F01D         	goto	u5431
  7311   003A70  EF3C  F01D         	goto	u5430
  7312   003A74                     u5431:
  7313   003A74  EF66  F01D         	goto	l4587
  7314   003A78                     u5430:
  7315   003A78  5018               	movf	otoa@d^0,w,c
  7316   003A7A  1019               	iorwf	(otoa@d+1)^0,w,c
  7317   003A7C  A4D8               	btfss	status,2,c
  7318   003A7E  EF43  F01D         	goto	u5441
  7319   003A82  EF45  F01D         	goto	u5440
  7320   003A86                     u5441:
  7321   003A86  EF09  F01D         	goto	l4565
  7322   003A8A                     u5440:
  7323   003A8A  BE1D               	btfsc	(otoa@p+1)^0,7,c
  7324   003A8C  EF52  F01D         	goto	u5450
  7325   003A90  501D               	movf	(otoa@p+1)^0,w,c
  7326   003A92  E106               	bnz	u5451
  7327   003A94  041C               	decf	otoa@p^0,w,c
  7328   003A96  B0D8               	btfsc	status,0,c
  7329   003A98  EF50  F01D         	goto	u5451
  7330   003A9C  EF52  F01D         	goto	u5450
  7331   003AA0                     u5451:
  7332   003AA0  EF09  F01D         	goto	l4565
  7333   003AA4                     u5450:
  7334   003AA4  BE20               	btfsc	(otoa@w+1)^0,7,c
  7335   003AA6  EF5D  F01D         	goto	u5461
  7336   003AAA  5020               	movf	(otoa@w+1)^0,w,c
  7337   003AAC  E108               	bnz	u5460
  7338   003AAE  041F               	decf	otoa@w^0,w,c
  7339   003AB0  A0D8               	btfss	status,0,c
  7340   003AB2  EF5D  F01D         	goto	u5461
  7341   003AB6  EF5F  F01D         	goto	u5460
  7342   003ABA                     u5461:
  7343   003ABA  EF66  F01D         	goto	l4587
  7344   003ABE                     u5460:
  7345   003ABE  B25F               	btfsc	_flags^0,1,c
  7346   003AC0  EF64  F01D         	goto	u5471
  7347   003AC4  EF66  F01D         	goto	u5470
  7348   003AC8                     u5471:
  7349   003AC8  EF09  F01D         	goto	l4565
  7350   003ACC                     u5470:
  7351   003ACC                     l4587:
  7352                           
  7353                           ;C:\Program Files\Microchip\xc8\v3.10\pic\sources\c99\common\doprnt.c: 929:     if ((t |
      +                          | prec == 0) && (flags & (1 << 4))) {
  7354   003ACC  501E               	movf	otoa@t^0,w,c
  7355   003ACE  A4D8               	btfss	status,2,c
  7356   003AD0  EF6C  F01D         	goto	u5481
  7357   003AD4  EF6E  F01D         	goto	u5480
  7358   003AD8                     u5481:
  7359   003AD8  EF78  F01D         	goto	l1088
  7360   003ADC                     u5480:
  7361   003ADC  0100               	movlb	0	; () banked
  7362   003ADE  51FA               	movf	_prec& (0+255),w,b
  7363   003AE0  11FB               	iorwf	(_prec+1)& (0+255),w,b
  7364   003AE2  A4D8               	btfss	status,2,c
  7365   003AE4  EF76  F01D         	goto	u5491
  7366   003AE8  EF78  F01D         	goto	u5490
  7367   003AEC                     u5491:
  7368   003AEC  EF8D  F01D         	goto	l4597
  7369   003AF0                     u5490:
  7370   003AF0                     l1088:
  7371   003AF0  A85F               	btfss	_flags^0,4,c
  7372   003AF2  EF7D  F01D         	goto	u5501
  7373   003AF6  EF7F  F01D         	goto	u5500
  7374   003AFA                     u5501:
  7375   003AFA  EF8D  F01D         	goto	l4597
  7376   003AFE                     u5500:
  7377   003AFE                     
  7378                           ;C:\Program Files\Microchip\xc8\v3.10\pic\sources\c99\common\doprnt.c: 930:         --i;
  7379   003AFE  0621               	decf	otoa@i^0,f,c
  7380   003B00  A0D8               	btfss	status,0,c
  7381   003B02  0622               	decf	(otoa@i+1)^0,f,c
  7382   003B04                     
  7383                           ;C:\Program Files\Microchip\xc8\v3.10\pic\sources\c99\common\doprnt.c: 931:         dbuf
      +                          [i] = '0';
  7384   003B04  0E04               	movlw	low _dbuf
  7385   003B06  2421               	addwf	otoa@i^0,w,c
  7386   003B08  6ED9               	movwf	fsr2l,c
  7387   003B0A  0E01               	movlw	high _dbuf
  7388   003B0C  2022               	addwfc	(otoa@i+1)^0,w,c
  7389   003B0E  6EDA               	movwf	fsr2h,c
  7390   003B10  0E30               	movlw	48
  7391   003B12  6EDF               	movwf	indf2,c
  7392   003B14                     
  7393                           ;C:\Program Files\Microchip\xc8\v3.10\pic\sources\c99\common\doprnt.c: 932:         --w;
  7394   003B14  061F               	decf	otoa@w^0,f,c
  7395   003B16  A0D8               	btfss	status,0,c
  7396   003B18  0620               	decf	(otoa@w+1)^0,f,c
  7397   003B1A                     l4597:
  7398                           
  7399                           ;C:\Program Files\Microchip\xc8\v3.10\pic\sources\c99\common\doprnt.c: 937:     return (
      +                          int) pad(fp, &dbuf[i], w);
  7400   003B1A  C017  F00F         	movff	otoa@fp,pad@fp
  7401   003B1E  0E04               	movlw	low _dbuf
  7402   003B20  2421               	addwf	otoa@i^0,w,c
  7403   003B22  6E10               	movwf	pad@buf^0,c
  7404   003B24  0E01               	movlw	high _dbuf
  7405   003B26  2022               	addwfc	(otoa@i+1)^0,w,c
  7406   003B28  6E11               	movwf	(pad@buf+1)^0,c
  7407   003B2A  C01F  F012         	movff	otoa@w,pad@p
  7408   003B2E  C020  F013         	movff	otoa@w+1,pad@p+1
  7409   003B32  EC9D  F021         	call	_pad	;wreg free
  7410   003B36  C00F  F017         	movff	?_pad,?_otoa
  7411   003B3A  C010  F018         	movff	?_pad+1,?_otoa+1
  7412   003B3E  0012               	return		;funcret
  7413   003B40                     __end_of_otoa:
  7414                           	callstack 0
  7415                           
  7416 ;; *************** function _dtoa *****************
  7417 ;; Defined at:
  7418 ;;		line 513 in file "C:\Program Files\Microchip\xc8\v3.10\pic\sources\c99\common\doprnt.c"
  7419 ;; Parameters:    Size  Location     Type
  7420 ;;  fp              1   22[COMRAM] PTR struct _IO_FILE
  7421 ;;		 -> sprintf@f(11), 
  7422 ;;  d               2   23[COMRAM] int 
  7423 ;; Auto vars:     Size  Location     Type
  7424 ;;  i               2   32[COMRAM] int 
  7425 ;;  w               2   29[COMRAM] int 
  7426 ;;  p               2   27[COMRAM] int 
  7427 ;;  s               1   31[COMRAM] unsigned char 
  7428 ;; Return value:  Size  Location     Type
  7429 ;;                  2   22[COMRAM] int 
  7430 ;; Registers used:
  7431 ;;		wreg, fsr1l, fsr1h, fsr2l, fsr2h, status,2, status,0, cstack
  7432 ;; Tracked objects:
  7433 ;;		On entry : 0/0
  7434 ;;		On exit  : 0/0
  7435 ;;		Unchanged: 0/0
  7436 ;; Data sizes:     COMRAM   BANK0   BANK1   BANK2   BANK3   BANK4   BANK5   BANK6   BANK7   BANK8   BANK9  BANK10  BANK1
      +1  BANK12
  7437 ;;      Params:         3       0       0       0       0       0       0       0       0       0       0       0       
      +0       0
  7438 ;;      Locals:         9       0       0       0       0       0       0       0       0       0       0       0       
      +0       0
  7439 ;;      Temps:          0       0       0       0       0       0       0       0       0       0       0       0       
      +0       0
  7440 ;;      Totals:        12       0       0       0       0       0       0       0       0       0       0       0       
      +0       0
  7441 ;;Total ram usage:       12 bytes
  7442 ;; Hardware stack levels used: 1
  7443 ;; Hardware stack levels required when called: 3
  7444 ;; This function calls:
  7445 ;;		___awdiv
  7446 ;;		___awmod
  7447 ;;		_abs
  7448 ;;		_pad
  7449 ;; This function is called by:
  7450 ;;		_vfpfcnvrt
  7451 ;; This function uses a non-reentrant model
  7452 ;;
  7453                           
  7454                           	psect	text13
  7455   0034C6                     __ptext13:
  7456                           	callstack 0
  7457   0034C6                     _dtoa:
  7458                           	callstack 23
  7459   0034C6                     
  7460                           ;C:\Program Files\Microchip\xc8\v3.10\pic\sources\c99\common\doprnt.c: 513: static int d
      +                          toa(FILE *fp, vfpf_sint_t d);C:\Program Files\Microchip\xc8\v3.10\pic\sources\c99\common
      +                          \doprnt.c: 514: {;C:\Program Files\Microchip\xc8\v3.10\pic\sources\c99\common\doprnt.c: 
      +                          515:  char s;;C:\Program Files\Microchip\xc8\v3.10\pic\sources\c99\common\doprnt.c: 516:
      +                               int i, w;;C:\Program Files\Microchip\xc8\v3.10\pic\sources\c99\common\doprnt.c: 518
      +                          :  int p;;C:\Program Files\Microchip\xc8\v3.10\pic\sources\c99\common\doprnt.c: 524:    
      +                           s = d < 0 ? 1 : 0;
  7461   0034C6  BE19               	btfsc	(dtoa@d+1)^0,7,c
  7462   0034C8  EF68  F01A         	goto	u5271
  7463   0034CC  EF6B  F01A         	goto	u5270
  7464   0034D0                     u5271:
  7465   0034D0  0E01               	movlw	1
  7466   0034D2  EF6C  F01A         	goto	u5280
  7467   0034D6                     u5270:
  7468   0034D6  0E00               	movlw	0
  7469   0034D8                     u5280:
  7470   0034D8  6E20               	movwf	dtoa@s^0,c
  7471                           
  7472                           ;C:\Program Files\Microchip\xc8\v3.10\pic\sources\c99\common\doprnt.c: 529:     if (!(pr
      +                          ec < 0)) {
  7473   0034DA  0100               	movlb	0	; () banked
  7474   0034DC  BFFB               	btfsc	(_prec+1)& (0+255),7,b
  7475   0034DE  EF73  F01A         	goto	u5291
  7476   0034E2  EF75  F01A         	goto	u5290
  7477   0034E6                     u5291:
  7478   0034E6  EF76  F01A         	goto	l4495
  7479   0034EA                     u5290:
  7480   0034EA                     
  7481                           ; BSR set to: 0
  7482                           ;C:\Program Files\Microchip\xc8\v3.10\pic\sources\c99\common\doprnt.c: 530:         flag
      +                          s &= ~(1 << 1);
  7483   0034EA  925F               	bcf	_flags^0,1,c
  7484   0034EC                     l4495:
  7485                           
  7486                           ; BSR set to: 0
  7487                           ;C:\Program Files\Microchip\xc8\v3.10\pic\sources\c99\common\doprnt.c: 533:     p = (0 <
      +                          = prec) ? prec : 1;
  7488   0034EC  BFFB               	btfsc	(_prec+1)& (0+255),7,b
  7489   0034EE  EF7D  F01A         	goto	u5300
  7490   0034F2  EF7B  F01A         	goto	u5301
  7491   0034F6                     u5301:
  7492   0034F6  EF82  F01A         	goto	l1051
  7493   0034FA                     u5300:
  7494   0034FA                     
  7495                           ; BSR set to: 0
  7496   0034FA  6A1D               	clrf	(dtoa@p+1)^0,c
  7497   0034FC  0E01               	movlw	1
  7498   0034FE  6E1C               	movwf	dtoa@p^0,c
  7499   003500  EF86  F01A         	goto	l1053
  7500   003504                     l1051:
  7501                           
  7502                           ; BSR set to: 0
  7503   003504  C0FA  F01C         	movff	_prec,dtoa@p
  7504   003508  C0FB  F01D         	movff	_prec+1,dtoa@p+1
  7505   00350C                     l1053:
  7506                           
  7507                           ; BSR set to: 0
  7508                           ;C:\Program Files\Microchip\xc8\v3.10\pic\sources\c99\common\doprnt.c: 535:     w = widt
      +                          h;
  7509   00350C  C0F8  F01E         	movff	_width,dtoa@w
  7510   003510  C0F9  F01F         	movff	_width+1,dtoa@w+1
  7511   003514                     
  7512                           ; BSR set to: 0
  7513                           ;C:\Program Files\Microchip\xc8\v3.10\pic\sources\c99\common\doprnt.c: 536:     if (s
  7514   003514  5020               	movf	dtoa@s^0,w,c
  7515   003516  A4D8               	btfss	status,2,c
  7516   003518  EF90  F01A         	goto	u5311
  7517   00351C  EF92  F01A         	goto	u5310
  7518   003520                     u5311:
  7519   003520  EF99  F01A         	goto	l4503
  7520   003524                     u5310:
  7521   003524                     
  7522                           ; BSR set to: 0
  7523   003524  A45F               	btfss	_flags^0,2,c
  7524   003526  EF97  F01A         	goto	u5321
  7525   00352A  EF99  F01A         	goto	u5320
  7526   00352E                     u5321:
  7527   00352E  EFB0  F01A         	goto	l1054
  7528   003532                     u5320:
  7529   003532                     l4503:
  7530                           
  7531                           ; BSR set to: 0
  7532                           ;C:\Program Files\Microchip\xc8\v3.10\pic\sources\c99\common\doprnt.c: 540:     ) {;C:\P
      +                          rogram Files\Microchip\xc8\v3.10\pic\sources\c99\common\doprnt.c: 541:         --w;
  7533   003532  061E               	decf	dtoa@w^0,f,c
  7534   003534  A0D8               	btfss	status,0,c
  7535   003536  061F               	decf	(dtoa@w+1)^0,f,c
  7536   003538                     
  7537                           ; BSR set to: 0
  7538                           ;C:\Program Files\Microchip\xc8\v3.10\pic\sources\c99\common\doprnt.c: 542:   s = s ? '-
      +                          ' : '+';
  7539   003538  5020               	movf	dtoa@s^0,w,c
  7540   00353A  A4D8               	btfss	status,2,c
  7541   00353C  EFA2  F01A         	goto	u5331
  7542   003540  EFA4  F01A         	goto	u5330
  7543   003544                     u5331:
  7544   003544  EFA9  F01A         	goto	l4509
  7545   003548                     u5330:
  7546   003548                     
  7547                           ; BSR set to: 0
  7548   003548  6A1B               	clrf	(_dtoa$1231+1)^0,c
  7549   00354A  0E2B               	movlw	43
  7550   00354C  6E1A               	movwf	_dtoa$1231^0,c
  7551   00354E  EFAC  F01A         	goto	l4511
  7552   003552                     l4509:
  7553                           
  7554                           ; BSR set to: 0
  7555   003552  6A1B               	clrf	(_dtoa$1231+1)^0,c
  7556   003554  0E2D               	movlw	45
  7557   003556  6E1A               	movwf	_dtoa$1231^0,c
  7558   003558                     l4511:
  7559                           
  7560                           ; BSR set to: 0
  7561   003558  C01A  F020         	movff	_dtoa$1231,dtoa@s
  7562                           
  7563                           ;C:\Program Files\Microchip\xc8\v3.10\pic\sources\c99\common\doprnt.c: 543:     }
  7564   00355C  EFBC  F01A         	goto	l4517
  7565   003560                     l1054:
  7566                           
  7567                           ; BSR set to: 0
  7568   003560  A65F               	btfss	_flags^0,3,c
  7569   003562  EFB5  F01A         	goto	u5341
  7570   003566  EFB7  F01A         	goto	u5340
  7571   00356A                     u5341:
  7572   00356A  EFBC  F01A         	goto	l4517
  7573   00356E                     u5340:
  7574   00356E                     
  7575                           ; BSR set to: 0
  7576                           ;C:\Program Files\Microchip\xc8\v3.10\pic\sources\c99\common\doprnt.c: 546:         --w;
  7577   00356E  061E               	decf	dtoa@w^0,f,c
  7578   003570  A0D8               	btfss	status,0,c
  7579   003572  061F               	decf	(dtoa@w+1)^0,f,c
  7580   003574                     
  7581                           ; BSR set to: 0
  7582                           ;C:\Program Files\Microchip\xc8\v3.10\pic\sources\c99\common\doprnt.c: 547:   s = ' ';
  7583   003574  0E20               	movlw	32
  7584   003576  6E20               	movwf	dtoa@s^0,c
  7585   003578                     l4517:
  7586                           
  7587                           ; BSR set to: 0
  7588                           ;C:\Program Files\Microchip\xc8\v3.10\pic\sources\c99\common\doprnt.c: 552:     i = size
      +                          of(dbuf) - 1;
  7589   003578  6A22               	clrf	(dtoa@i+1)^0,c
  7590   00357A  0E1F               	movlw	31
  7591   00357C  6E21               	movwf	dtoa@i^0,c
  7592   00357E                     
  7593                           ; BSR set to: 0
  7594                           ;C:\Program Files\Microchip\xc8\v3.10\pic\sources\c99\common\doprnt.c: 553:     dbuf[i] 
      +                          = '\0';
  7595   00357E  0101               	movlb	1	; () banked
  7596   003580  6B23               	clrf	(_dbuf+31)& (0+255),b
  7597                           
  7598                           ;C:\Program Files\Microchip\xc8\v3.10\pic\sources\c99\common\doprnt.c: 554:     while (!
      +                          (i < 1) && (d != 0
  7599   003582  EFF1  F01A         	goto	l4531
  7600   003586                     l4521:
  7601                           
  7602                           ;C:\Program Files\Microchip\xc8\v3.10\pic\sources\c99\common\doprnt.c: 563:     )) {;C:\
      +                          Program Files\Microchip\xc8\v3.10\pic\sources\c99\common\doprnt.c: 564:         --i;
  7603   003586  0621               	decf	dtoa@i^0,f,c
  7604   003588  A0D8               	btfss	status,0,c
  7605   00358A  0622               	decf	(dtoa@i+1)^0,f,c
  7606   00358C                     
  7607                           ;C:\Program Files\Microchip\xc8\v3.10\pic\sources\c99\common\doprnt.c: 565:         dbuf
      +                          [i] = (char)((int)'0' + abs(d % 10));
  7608   00358C  0E04               	movlw	low _dbuf
  7609   00358E  2421               	addwf	dtoa@i^0,w,c
  7610   003590  6ED9               	movwf	fsr2l,c
  7611   003592  0E01               	movlw	high _dbuf
  7612   003594  2022               	addwfc	(dtoa@i+1)^0,w,c
  7613   003596  6EDA               	movwf	fsr2h,c
  7614   003598  C018  F001         	movff	dtoa@d,___awmod@dividend
  7615   00359C  C019  F002         	movff	dtoa@d+1,___awmod@dividend+1
  7616   0035A0  6A04               	clrf	(___awmod@divisor+1)^0,c
  7617   0035A2  0E0A               	movlw	10
  7618   0035A4  6E03               	movwf	___awmod@divisor^0,c
  7619   0035A6  ECF1  F020         	call	___awmod	;wreg free
  7620   0035AA  C001  F007         	movff	?___awmod,abs@a
  7621   0035AE  C002  F008         	movff	?___awmod+1,abs@a+1
  7622   0035B2  ECA4  F023         	call	_abs	;wreg free
  7623   0035B6  5007               	movf	?_abs^0,w,c
  7624   0035B8  0F30               	addlw	48
  7625   0035BA  6EDF               	movwf	indf2,c
  7626   0035BC                     
  7627                           ;C:\Program Files\Microchip\xc8\v3.10\pic\sources\c99\common\doprnt.c: 567:         --p;
  7628   0035BC  061C               	decf	dtoa@p^0,f,c
  7629   0035BE  A0D8               	btfss	status,0,c
  7630   0035C0  061D               	decf	(dtoa@p+1)^0,f,c
  7631   0035C2                     
  7632                           ;C:\Program Files\Microchip\xc8\v3.10\pic\sources\c99\common\doprnt.c: 571:         --w;
  7633   0035C2  061E               	decf	dtoa@w^0,f,c
  7634   0035C4  A0D8               	btfss	status,0,c
  7635   0035C6  061F               	decf	(dtoa@w+1)^0,f,c
  7636   0035C8                     
  7637                           ;C:\Program Files\Microchip\xc8\v3.10\pic\sources\c99\common\doprnt.c: 572:         d = 
      +                          d / 10;
  7638   0035C8  C018  F001         	movff	dtoa@d,___awdiv@dividend
  7639   0035CC  C019  F002         	movff	dtoa@d+1,___awdiv@dividend+1
  7640   0035D0  6A04               	clrf	(___awdiv@divisor+1)^0,c
  7641   0035D2  0E0A               	movlw	10
  7642   0035D4  6E03               	movwf	___awdiv@divisor^0,c
  7643   0035D6  EC91  F020         	call	___awdiv	;wreg free
  7644   0035DA  C001  F018         	movff	?___awdiv,dtoa@d
  7645   0035DE  C002  F019         	movff	?___awdiv+1,dtoa@d+1
  7646   0035E2                     l4531:
  7647                           
  7648                           ;C:\Program Files\Microchip\xc8\v3.10\pic\sources\c99\common\doprnt.c: 554:     while (!
      +                          (i < 1) && (d != 0
  7649   0035E2  BE22               	btfsc	(dtoa@i+1)^0,7,c
  7650   0035E4  EFFC  F01A         	goto	u5351
  7651   0035E8  5022               	movf	(dtoa@i+1)^0,w,c
  7652   0035EA  E108               	bnz	u5350
  7653   0035EC  0421               	decf	dtoa@i^0,w,c
  7654   0035EE  A0D8               	btfss	status,0,c
  7655   0035F0  EFFC  F01A         	goto	u5351
  7656   0035F4  EFFE  F01A         	goto	u5350
  7657   0035F8                     u5351:
  7658   0035F8  EF28  F01B         	goto	l4541
  7659   0035FC                     u5350:
  7660   0035FC  5018               	movf	dtoa@d^0,w,c
  7661   0035FE  1019               	iorwf	(dtoa@d+1)^0,w,c
  7662   003600  A4D8               	btfss	status,2,c
  7663   003602  EF05  F01B         	goto	u5361
  7664   003606  EF07  F01B         	goto	u5360
  7665   00360A                     u5361:
  7666   00360A  EFC3  F01A         	goto	l4521
  7667   00360E                     u5360:
  7668   00360E  BE1D               	btfsc	(dtoa@p+1)^0,7,c
  7669   003610  EF14  F01B         	goto	u5370
  7670   003614  501D               	movf	(dtoa@p+1)^0,w,c
  7671   003616  E106               	bnz	u5371
  7672   003618  041C               	decf	dtoa@p^0,w,c
  7673   00361A  B0D8               	btfsc	status,0,c
  7674   00361C  EF12  F01B         	goto	u5371
  7675   003620  EF14  F01B         	goto	u5370
  7676   003624                     u5371:
  7677   003624  EFC3  F01A         	goto	l4521
  7678   003628                     u5370:
  7679   003628  BE1F               	btfsc	(dtoa@w+1)^0,7,c
  7680   00362A  EF1F  F01B         	goto	u5381
  7681   00362E  501F               	movf	(dtoa@w+1)^0,w,c
  7682   003630  E108               	bnz	u5380
  7683   003632  041E               	decf	dtoa@w^0,w,c
  7684   003634  A0D8               	btfss	status,0,c
  7685   003636  EF1F  F01B         	goto	u5381
  7686   00363A  EF21  F01B         	goto	u5380
  7687   00363E                     u5381:
  7688   00363E  EF28  F01B         	goto	l4541
  7689   003642                     u5380:
  7690   003642  B25F               	btfsc	_flags^0,1,c
  7691   003644  EF26  F01B         	goto	u5391
  7692   003648  EF28  F01B         	goto	u5390
  7693   00364C                     u5391:
  7694   00364C  EFC3  F01A         	goto	l4521
  7695   003650                     u5390:
  7696   003650                     l4541:
  7697                           
  7698                           ;C:\Program Files\Microchip\xc8\v3.10\pic\sources\c99\common\doprnt.c: 576:     if (s !=
      +                           0) {
  7699   003650  5020               	movf	dtoa@s^0,w,c
  7700   003652  B4D8               	btfsc	status,2,c
  7701   003654  EF2E  F01B         	goto	u5401
  7702   003658  EF30  F01B         	goto	u5400
  7703   00365C                     u5401:
  7704   00365C  EF3B  F01B         	goto	l4547
  7705   003660                     u5400:
  7706   003660                     
  7707                           ;C:\Program Files\Microchip\xc8\v3.10\pic\sources\c99\common\doprnt.c: 577:         --i;
  7708   003660  0621               	decf	dtoa@i^0,f,c
  7709   003662  A0D8               	btfss	status,0,c
  7710   003664  0622               	decf	(dtoa@i+1)^0,f,c
  7711   003666                     
  7712                           ;C:\Program Files\Microchip\xc8\v3.10\pic\sources\c99\common\doprnt.c: 578:         dbuf
      +                          [i] = s;
  7713   003666  0E04               	movlw	low _dbuf
  7714   003668  2421               	addwf	dtoa@i^0,w,c
  7715   00366A  6ED9               	movwf	fsr2l,c
  7716   00366C  0E01               	movlw	high _dbuf
  7717   00366E  2022               	addwfc	(dtoa@i+1)^0,w,c
  7718   003670  6EDA               	movwf	fsr2h,c
  7719   003672  C020  FFDF         	movff	dtoa@s,indf2
  7720   003676                     l4547:
  7721                           
  7722                           ;C:\Program Files\Microchip\xc8\v3.10\pic\sources\c99\common\doprnt.c: 582:     return (
      +                          int) pad(fp, &dbuf[i], w);
  7723   003676  C017  F00F         	movff	dtoa@fp,pad@fp
  7724   00367A  0E04               	movlw	low _dbuf
  7725   00367C  2421               	addwf	dtoa@i^0,w,c
  7726   00367E  6E10               	movwf	pad@buf^0,c
  7727   003680  0E01               	movlw	high _dbuf
  7728   003682  2022               	addwfc	(dtoa@i+1)^0,w,c
  7729   003684  6E11               	movwf	(pad@buf+1)^0,c
  7730   003686  C01E  F012         	movff	dtoa@w,pad@p
  7731   00368A  C01F  F013         	movff	dtoa@w+1,pad@p+1
  7732   00368E  EC9D  F021         	call	_pad	;wreg free
  7733   003692  C00F  F017         	movff	?_pad,?_dtoa
  7734   003696  C010  F018         	movff	?_pad+1,?_dtoa+1
  7735   00369A  0012               	return		;funcret
  7736   00369C                     __end_of_dtoa:
  7737                           	callstack 0
  7738                           
  7739 ;; *************** function _pad *****************
  7740 ;; Defined at:
  7741 ;;		line 193 in file "C:\Program Files\Microchip\xc8\v3.10\pic\sources\c99\common\doprnt.c"
  7742 ;; Parameters:    Size  Location     Type
  7743 ;;  fp              1   14[COMRAM] PTR struct _IO_FILE
  7744 ;;		 -> sprintf@f(11), 
  7745 ;;  buf             2   15[COMRAM] PTR unsigned char 
  7746 ;;		 -> dbuf(32), 
  7747 ;;  p               2   17[COMRAM] int 
  7748 ;; Auto vars:     Size  Location     Type
  7749 ;;  i               2   20[COMRAM] int 
  7750 ;; Return value:  Size  Location     Type
  7751 ;;                  2   14[COMRAM] int 
  7752 ;; Registers used:
  7753 ;;		wreg, fsr1l, fsr1h, fsr2l, fsr2h, status,2, status,0, cstack
  7754 ;; Tracked objects:
  7755 ;;		On entry : 0/0
  7756 ;;		On exit  : 0/0
  7757 ;;		Unchanged: 0/0
  7758 ;; Data sizes:     COMRAM   BANK0   BANK1   BANK2   BANK3   BANK4   BANK5   BANK6   BANK7   BANK8   BANK9  BANK10  BANK1
      +1  BANK12
  7759 ;;      Params:         5       0       0       0       0       0       0       0       0       0       0       0       
      +0       0
  7760 ;;      Locals:         2       0       0       0       0       0       0       0       0       0       0       0       
      +0       0
  7761 ;;      Temps:          1       0       0       0       0       0       0       0       0       0       0       0       
      +0       0
  7762 ;;      Totals:         8       0       0       0       0       0       0       0       0       0       0       0       
      +0       0
  7763 ;;Total ram usage:        8 bytes
  7764 ;; Hardware stack levels used: 1
  7765 ;; This function calls:
  7766 ;;		_fputc
  7767 ;;		_fputs
  7768 ;;		_strlen
  7769 ;; This function is called by:
  7770 ;;		_dtoa
  7771 ;;		_otoa
  7772 ;;		_utoa
  7773 ;;		_xtoa
  7774 ;; This function uses a non-reentrant model
  7775 ;;
  7776                           
  7777                           	psect	text14
  7778   00433A                     __ptext14:
  7779                           	callstack 0
  7780   00433A                     _pad:
  7781                           	callstack 25
  7782   00433A                     
  7783                           ;C:\Program Files\Microchip\xc8\v3.10\pic\sources\c99\common\doprnt.c: 193: static int p
      +                          ad(FILE *fp, char *buf, int p);C:\Program Files\Microchip\xc8\v3.10\pic\sources\c99\comm
      +                          on\doprnt.c: 194: {;C:\Program Files\Microchip\xc8\v3.10\pic\sources\c99\common\doprnt.c
      +                          : 195:     int i;;C:\Program Files\Microchip\xc8\v3.10\pic\sources\c99\common\doprnt.c: 
      +                          199:     if (flags & (1 << 0)) {
  7784   00433A  A05F               	btfss	_flags^0,0,c
  7785   00433C  EFA2  F021         	goto	u5231
  7786   004340  EFA4  F021         	goto	u5230
  7787   004344                     u5231:
  7788   004344  EFAC  F021         	goto	l4475
  7789   004348                     u5230:
  7790   004348                     
  7791                           ;C:\Program Files\Microchip\xc8\v3.10\pic\sources\c99\common\doprnt.c: 200:         fput
      +                          s((const char *)buf, fp);
  7792   004348  C010  F009         	movff	pad@buf,fputs@s
  7793   00434C  C011  F00A         	movff	pad@buf+1,fputs@s+1
  7794   004350  C00F  F00B         	movff	pad@fp,fputs@fp
  7795   004354  EC50  F023         	call	_fputs	;wreg free
  7796   004358                     l4475:
  7797                           
  7798                           ;C:\Program Files\Microchip\xc8\v3.10\pic\sources\c99\common\doprnt.c: 205:  if (p < 0) 
      +                          {
  7799   004358  BE13               	btfsc	(pad@p+1)^0,7,c
  7800   00435A  EFB3  F021         	goto	u5240
  7801   00435E  EFB1  F021         	goto	u5241
  7802   004362                     u5241:
  7803   004362  EFB6  F021         	goto	l1025
  7804   004366                     u5240:
  7805   004366                     
  7806                           ;C:\Program Files\Microchip\xc8\v3.10\pic\sources\c99\common\doprnt.c: 206:   p = 0;
  7807   004366  6A13               	clrf	(pad@p+1)^0,c
  7808   004368  0E00               	movlw	0
  7809   00436A  6E12               	movwf	pad@p^0,c
  7810   00436C                     l1025:
  7811                           
  7812                           ;C:\Program Files\Microchip\xc8\v3.10\pic\sources\c99\common\doprnt.c: 208:     i = 0;
  7813   00436C  6A16               	clrf	(pad@i+1)^0,c
  7814   00436E  0E00               	movlw	0
  7815   004370  6E15               	movwf	pad@i^0,c
  7816                           
  7817                           ;C:\Program Files\Microchip\xc8\v3.10\pic\sources\c99\common\doprnt.c: 209:     while (i
      +                           < p) {
  7818   004372  EFC4  F021         	goto	l4483
  7819   004376                     l4479:
  7820                           
  7821                           ;C:\Program Files\Microchip\xc8\v3.10\pic\sources\c99\common\doprnt.c: 210:         fput
      +                          c(' ', fp);
  7822   004376  6A02               	clrf	(fputc@c+1)^0,c
  7823   004378  0E20               	movlw	32
  7824   00437A  6E01               	movwf	fputc@c^0,c
  7825   00437C  C00F  F003         	movff	pad@fp,fputc@fp
  7826   004380  EC48  F021         	call	_fputc	;wreg free
  7827   004384                     
  7828                           ;C:\Program Files\Microchip\xc8\v3.10\pic\sources\c99\common\doprnt.c: 211:         ++i;
  7829   004384  4A15               	infsnz	pad@i^0,f,c
  7830   004386  2A16               	incf	(pad@i+1)^0,f,c
  7831   004388                     l4483:
  7832                           
  7833                           ;C:\Program Files\Microchip\xc8\v3.10\pic\sources\c99\common\doprnt.c: 209:     while (i
      +                           < p) {
  7834   004388  5012               	movf	pad@p^0,w,c
  7835   00438A  5C15               	subwf	pad@i^0,w,c
  7836   00438C  5016               	movf	(pad@i+1)^0,w,c
  7837   00438E  0A80               	xorlw	128
  7838   004390  6E14               	movwf	??_pad^0,c
  7839   004392  5013               	movf	(pad@p+1)^0,w,c
  7840   004394  0A80               	xorlw	128
  7841   004396  5814               	subwfb	??_pad^0,w,c
  7842   004398  A0D8               	btfss	status,0,c
  7843   00439A  EFD1  F021         	goto	u5251
  7844   00439E  EFD3  F021         	goto	u5250
  7845   0043A2                     u5251:
  7846   0043A2  EFBB  F021         	goto	l4479
  7847   0043A6                     u5250:
  7848   0043A6                     
  7849                           ;C:\Program Files\Microchip\xc8\v3.10\pic\sources\c99\common\doprnt.c: 216:     if (!(fl
      +                          ags & (1 << 0))) {
  7850   0043A6  B05F               	btfsc	_flags^0,0,c
  7851   0043A8  EFD8  F021         	goto	u5261
  7852   0043AC  EFDA  F021         	goto	u5260
  7853   0043B0                     u5261:
  7854   0043B0  EFE2  F021         	goto	l4487
  7855   0043B4                     u5260:
  7856   0043B4                     
  7857                           ;C:\Program Files\Microchip\xc8\v3.10\pic\sources\c99\common\doprnt.c: 218:         fput
      +                          s((const char *)buf, fp);
  7858   0043B4  C010  F009         	movff	pad@buf,fputs@s
  7859   0043B8  C011  F00A         	movff	pad@buf+1,fputs@s+1
  7860   0043BC  C00F  F00B         	movff	pad@fp,fputs@fp
  7861   0043C0  EC50  F023         	call	_fputs	;wreg free
  7862   0043C4                     l4487:
  7863                           
  7864                           ;C:\Program Files\Microchip\xc8\v3.10\pic\sources\c99\common\doprnt.c: 224:     return (
      +                          int)(strlen(buf) + (size_t)p);
  7865   0043C4  C010  F001         	movff	pad@buf,strlen@s
  7866   0043C8  C011  F002         	movff	pad@buf+1,strlen@s+1
  7867   0043CC  EC6F  F023         	call	_strlen	;wreg free
  7868   0043D0  5012               	movf	pad@p^0,w,c
  7869   0043D2  2401               	addwf	?_strlen^0,w,c
  7870   0043D4  6E0F               	movwf	?_pad^0,c
  7871   0043D6  5013               	movf	(pad@p+1)^0,w,c
  7872   0043D8  2002               	addwfc	(?_strlen+1)^0,w,c
  7873   0043DA  6E10               	movwf	(?_pad+1)^0,c
  7874   0043DC  0012               	return		;funcret
  7875   0043DE                     __end_of_pad:
  7876                           	callstack 0
  7877                           
  7878 ;; *************** function _strlen *****************
  7879 ;; Defined at:
  7880 ;;		line 5 in file "C:\Program Files\Microchip\xc8\v3.10\pic\sources\c99\common\strlen.c"
  7881 ;; Parameters:    Size  Location     Type
  7882 ;;  s               2    0[COMRAM] PTR const unsigned char 
  7883 ;;		 -> dbuf(32), main@tensaoBuffer(16), main@tempBuffer(16), 
  7884 ;; Auto vars:     Size  Location     Type
  7885 ;;  a               2    2[COMRAM] PTR const unsigned char 
  7886 ;;		 -> dbuf(32), main@tensaoBuffer(16), main@tempBuffer(16), 
  7887 ;; Return value:  Size  Location     Type
  7888 ;;                  2    0[COMRAM] unsigned int 
  7889 ;; Registers used:
  7890 ;;		wreg, fsr2l, fsr2h, status,2, status,0
  7891 ;; Tracked objects:
  7892 ;;		On entry : 0/0
  7893 ;;		On exit  : 0/0
  7894 ;;		Unchanged: 0/0
  7895 ;; Data sizes:     COMRAM   BANK0   BANK1   BANK2   BANK3   BANK4   BANK5   BANK6   BANK7   BANK8   BANK9  BANK10  BANK1
      +1  BANK12
  7896 ;;      Params:         2       0       0       0       0       0       0       0       0       0       0       0       
      +0       0
  7897 ;;      Locals:         2       0       0       0       0       0       0       0       0       0       0       0       
      +0       0
  7898 ;;      Temps:          0       0       0       0       0       0       0       0       0       0       0       0       
      +0       0
  7899 ;;      Totals:         4       0       0       0       0       0       0       0       0       0       0       0       
      +0       0
  7900 ;;Total ram usage:        4 bytes
  7901 ;; Hardware stack levels used: 1
  7902 ;; This function calls:
  7903 ;;		Nothing
  7904 ;; This function is called by:
  7905 ;;		_ftoa
  7906 ;;		_pad
  7907 ;; This function uses a non-reentrant model
  7908 ;;
  7909                           
  7910                           	psect	text15
  7911   0046DE                     __ptext15:
  7912                           	callstack 0
  7913   0046DE                     _strlen:
  7914                           	callstack 24
  7915   0046DE  C001  F003         	movff	strlen@s,strlen@a
  7916   0046E2  C002  F004         	movff	strlen@s+1,strlen@a+1
  7917   0046E6  EF77  F023         	goto	l4457
  7918   0046EA                     l4455:
  7919   0046EA  4A01               	infsnz	strlen@s^0,f,c
  7920   0046EC  2A02               	incf	(strlen@s+1)^0,f,c
  7921   0046EE                     l4457:
  7922   0046EE  C001  FFD9         	movff	strlen@s,fsr2l
  7923   0046F2  C002  FFDA         	movff	strlen@s+1,fsr2h
  7924   0046F6  50DF               	movf	indf2,w,c
  7925   0046F8  A4D8               	btfss	status,2,c
  7926   0046FA  EF81  F023         	goto	u5211
  7927   0046FE  EF83  F023         	goto	u5210
  7928   004702                     u5211:
  7929   004702  EF75  F023         	goto	l4455
  7930   004706                     u5210:
  7931   004706  5003               	movf	strlen@a^0,w,c
  7932   004708  5C01               	subwf	strlen@s^0,w,c
  7933   00470A  6E01               	movwf	?_strlen^0,c
  7934   00470C  5004               	movf	(strlen@a+1)^0,w,c
  7935   00470E  5802               	subwfb	(strlen@s+1)^0,w,c
  7936   004710  6E02               	movwf	(?_strlen+1)^0,c
  7937   004712  0012               	return		;funcret
  7938   004714                     __end_of_strlen:
  7939                           	callstack 0
  7940                           
  7941 ;; *************** function _fputs *****************
  7942 ;; Defined at:
  7943 ;;		line 8 in file "C:\Program Files\Microchip\xc8\v3.10\pic\sources\c99\common\nf_fputs.c"
  7944 ;; Parameters:    Size  Location     Type
  7945 ;;  s               2    8[COMRAM] PTR const unsigned char 
  7946 ;;		 -> dbuf(32), 
  7947 ;;  fp              1   10[COMRAM] PTR struct _IO_FILE
  7948 ;;		 -> sprintf@f(11), 
  7949 ;; Auto vars:     Size  Location     Type
  7950 ;;  i               2   12[COMRAM] int 
  7951 ;;  c               1   11[COMRAM] unsigned char 
  7952 ;; Return value:  Size  Location     Type
  7953 ;;                  2    8[COMRAM] int 
  7954 ;; Registers used:
  7955 ;;		wreg, fsr1l, fsr1h, fsr2l, fsr2h, status,2, status,0, cstack
  7956 ;; Tracked objects:
  7957 ;;		On entry : 0/0
  7958 ;;		On exit  : 0/0
  7959 ;;		Unchanged: 0/0
  7960 ;; Data sizes:     COMRAM   BANK0   BANK1   BANK2   BANK3   BANK4   BANK5   BANK6   BANK7   BANK8   BANK9  BANK10  BANK1
      +1  BANK12
  7961 ;;      Params:         3       0       0       0       0       0       0       0       0       0       0       0       
      +0       0
  7962 ;;      Locals:         3       0       0       0       0       0       0       0       0       0       0       0       
      +0       0
  7963 ;;      Temps:          0       0       0       0       0       0       0       0       0       0       0       0       
      +0       0
  7964 ;;      Totals:         6       0       0       0       0       0       0       0       0       0       0       0       
      +0       0
  7965 ;;Total ram usage:        6 bytes
  7966 ;; Hardware stack levels used: 1
  7967 ;; Hardware stack levels required when called: 1
  7968 ;; This function calls:
  7969 ;;		_fputc
  7970 ;; This function is called by:
  7971 ;;		_pad
  7972 ;; This function uses a non-reentrant model
  7973 ;;
  7974                           
  7975                           	psect	text16
  7976   0046A0                     __ptext16:
  7977                           	callstack 0
  7978   0046A0                     _fputs:
  7979                           	callstack 23
  7980   0046A0  6A0E               	clrf	(fputs@i+1)^0,c
  7981   0046A2  0E00               	movlw	0
  7982   0046A4  6E0D               	movwf	fputs@i^0,c
  7983   0046A6  EF5E  F023         	goto	l4469
  7984   0046AA                     l4465:
  7985   0046AA  C00C  F001         	movff	fputs@c,fputc@c
  7986   0046AE  6A02               	clrf	(fputc@c+1)^0,c
  7987   0046B0  C00B  F003         	movff	fputs@fp,fputc@fp
  7988   0046B4  EC48  F021         	call	_fputc	;wreg free
  7989   0046B8  4A0D               	infsnz	fputs@i^0,f,c
  7990   0046BA  2A0E               	incf	(fputs@i+1)^0,f,c
  7991   0046BC                     l4469:
  7992   0046BC  500D               	movf	fputs@i^0,w,c
  7993   0046BE  2409               	addwf	fputs@s^0,w,c
  7994   0046C0  6ED9               	movwf	fsr2l,c
  7995   0046C2  500E               	movf	(fputs@i+1)^0,w,c
  7996   0046C4  200A               	addwfc	(fputs@s+1)^0,w,c
  7997   0046C6  6EDA               	movwf	fsr2h,c
  7998   0046C8  50DF               	movf	indf2,w,c
  7999   0046CA  6E0C               	movwf	fputs@c^0,c
  8000   0046CC  500C               	movf	fputs@c^0,w,c
  8001   0046CE  A4D8               	btfss	status,2,c
  8002   0046D0  EF6C  F023         	goto	u5221
  8003   0046D4  EF6E  F023         	goto	u5220
  8004   0046D8                     u5221:
  8005   0046D8  EF55  F023         	goto	l4465
  8006   0046DC                     u5220:
  8007   0046DC  0012               	return		;funcret
  8008   0046DE                     __end_of_fputs:
  8009                           	callstack 0
  8010                           
  8011 ;; *************** function _abs *****************
  8012 ;; Defined at:
  8013 ;;		line 1 in file "C:\Program Files\Microchip\xc8\v3.10\pic\sources\c99\common\abs.c"
  8014 ;; Parameters:    Size  Location     Type
  8015 ;;  a               2    6[COMRAM] int 
  8016 ;; Auto vars:     Size  Location     Type
  8017 ;;		None
  8018 ;; Return value:  Size  Location     Type
  8019 ;;                  2    6[COMRAM] int 
  8020 ;; Registers used:
  8021 ;;		wreg, status,2, status,0
  8022 ;; Tracked objects:
  8023 ;;		On entry : 0/0
  8024 ;;		On exit  : 0/0
  8025 ;;		Unchanged: 0/0
  8026 ;; Data sizes:     COMRAM   BANK0   BANK1   BANK2   BANK3   BANK4   BANK5   BANK6   BANK7   BANK8   BANK9  BANK10  BANK1
      +1  BANK12
  8027 ;;      Params:         2       0       0       0       0       0       0       0       0       0       0       0       
      +0       0
  8028 ;;      Locals:         0       0       0       0       0       0       0       0       0       0       0       0       
      +0       0
  8029 ;;      Temps:          2       0       0       0       0       0       0       0       0       0       0       0       
      +0       0
  8030 ;;      Totals:         4       0       0       0       0       0       0       0       0       0       0       0       
      +0       0
  8031 ;;Total ram usage:        4 bytes
  8032 ;; Hardware stack levels used: 1
  8033 ;; This function calls:
  8034 ;;		Nothing
  8035 ;; This function is called by:
  8036 ;;		_dtoa
  8037 ;; This function uses a non-reentrant model
  8038 ;;
  8039                           
  8040                           	psect	text17
  8041   004748                     __ptext17:
  8042                           	callstack 0
  8043   004748                     _abs:
  8044                           	callstack 25
  8045   004748  BE08               	btfsc	(abs@a+1)^0,7,c
  8046   00474A  EFA9  F023         	goto	u2951
  8047   00474E  EFAB  F023         	goto	u2950
  8048   004752                     u2951:
  8049   004752  EFB1  F023         	goto	l1213
  8050   004756                     u2950:
  8051   004756  C007  F007         	movff	abs@a,?_abs
  8052   00475A  C008  F008         	movff	abs@a+1,?_abs+1
  8053   00475E  EFBD  F023         	goto	l1216
  8054   004762                     l1213:
  8055   004762  C007  F009         	movff	abs@a,??_abs
  8056   004766  C008  F00A         	movff	abs@a+1,??_abs+1
  8057   00476A  1E09               	comf	??_abs^0,f,c
  8058   00476C  1E0A               	comf	(??_abs+1)^0,f,c
  8059   00476E  4A09               	infsnz	??_abs^0,f,c
  8060   004770  2A0A               	incf	(??_abs+1)^0,f,c
  8061   004772  C009  F007         	movff	??_abs,?_abs
  8062   004776  C00A  F008         	movff	??_abs+1,?_abs+1
  8063   00477A                     l1216:
  8064   00477A  0012               	return		;funcret
  8065   00477C                     __end_of_abs:
  8066                           	callstack 0
  8067                           
  8068 ;; *************** function ___awmod *****************
  8069 ;; Defined at:
  8070 ;;		line 7 in file "C:\Program Files\Microchip\xc8\v3.10\pic\sources\c99\common\awmod.c"
  8071 ;; Parameters:    Size  Location     Type
  8072 ;;  dividend        2    0[COMRAM] int 
  8073 ;;  divisor         2    2[COMRAM] int 
  8074 ;; Auto vars:     Size  Location     Type
  8075 ;;  sign            1    5[COMRAM] unsigned char 
  8076 ;;  counter         1    4[COMRAM] unsigned char 
  8077 ;; Return value:  Size  Location     Type
  8078 ;;                  2    0[COMRAM] int 
  8079 ;; Registers used:
  8080 ;;		wreg, status,2, status,0
  8081 ;; Tracked objects:
  8082 ;;		On entry : 0/0
  8083 ;;		On exit  : 0/0
  8084 ;;		Unchanged: 0/0
  8085 ;; Data sizes:     COMRAM   BANK0   BANK1   BANK2   BANK3   BANK4   BANK5   BANK6   BANK7   BANK8   BANK9  BANK10  BANK1
      +1  BANK12
  8086 ;;      Params:         4       0       0       0       0       0       0       0       0       0       0       0       
      +0       0
  8087 ;;      Locals:         2       0       0       0       0       0       0       0       0       0       0       0       
      +0       0
  8088 ;;      Temps:          0       0       0       0       0       0       0       0       0       0       0       0       
      +0       0
  8089 ;;      Totals:         6       0       0       0       0       0       0       0       0       0       0       0       
      +0       0
  8090 ;;Total ram usage:        6 bytes
  8091 ;; Hardware stack levels used: 1
  8092 ;; This function calls:
  8093 ;;		Nothing
  8094 ;; This function is called by:
  8095 ;;		_dtoa
  8096 ;; This function uses a non-reentrant model
  8097 ;;
  8098                           
  8099                           	psect	text18
  8100   0041E2                     __ptext18:
  8101                           	callstack 0
  8102   0041E2                     ___awmod:
  8103                           	callstack 25
  8104   0041E2  6A06               	clrf	___awmod@sign^0,c
  8105   0041E4  BE02               	btfsc	(___awmod@dividend+1)^0,7,c
  8106   0041E6  EFF9  F020         	goto	u2790
  8107   0041EA  EFF7  F020         	goto	u2791
  8108   0041EE                     u2791:
  8109   0041EE  EFFF  F020         	goto	l2959
  8110   0041F2                     u2790:
  8111   0041F2  6C01               	negf	___awmod@dividend^0,c
  8112   0041F4  1E02               	comf	(___awmod@dividend+1)^0,f,c
  8113   0041F6  B0D8               	btfsc	status,0,c
  8114   0041F8  2A02               	incf	(___awmod@dividend+1)^0,f,c
  8115   0041FA  0E01               	movlw	1
  8116   0041FC  6E06               	movwf	___awmod@sign^0,c
  8117   0041FE                     l2959:
  8118   0041FE  BE04               	btfsc	(___awmod@divisor+1)^0,7,c
  8119   004200  EF06  F021         	goto	u2800
  8120   004204  EF04  F021         	goto	u2801
  8121   004208                     u2801:
  8122   004208  EF0A  F021         	goto	l2963
  8123   00420C                     u2800:
  8124   00420C  6C03               	negf	___awmod@divisor^0,c
  8125   00420E  1E04               	comf	(___awmod@divisor+1)^0,f,c
  8126   004210  B0D8               	btfsc	status,0,c
  8127   004212  2A04               	incf	(___awmod@divisor+1)^0,f,c
  8128   004214                     l2963:
  8129   004214  5003               	movf	___awmod@divisor^0,w,c
  8130   004216  1004               	iorwf	(___awmod@divisor+1)^0,w,c
  8131   004218  B4D8               	btfsc	status,2,c
  8132   00421A  EF11  F021         	goto	u2811
  8133   00421E  EF13  F021         	goto	u2810
  8134   004222                     u2811:
  8135   004222  EF37  F021         	goto	l2979
  8136   004226                     u2810:
  8137   004226  0E01               	movlw	1
  8138   004228  6E05               	movwf	___awmod@counter^0,c
  8139   00422A  EF1B  F021         	goto	l2969
  8140   00422E                     l2967:
  8141   00422E  90D8               	bcf	status,0,c
  8142   004230  3603               	rlcf	___awmod@divisor^0,f,c
  8143   004232  3604               	rlcf	(___awmod@divisor+1)^0,f,c
  8144   004234  2A05               	incf	___awmod@counter^0,f,c
  8145   004236                     l2969:
  8146   004236  AE04               	btfss	(___awmod@divisor+1)^0,7,c
  8147   004238  EF20  F021         	goto	u2821
  8148   00423C  EF22  F021         	goto	u2820
  8149   004240                     u2821:
  8150   004240  EF17  F021         	goto	l2967
  8151   004244                     u2820:
  8152   004244                     l2971:
  8153   004244  5003               	movf	___awmod@divisor^0,w,c
  8154   004246  5C01               	subwf	___awmod@dividend^0,w,c
  8155   004248  5004               	movf	(___awmod@divisor+1)^0,w,c
  8156   00424A  5802               	subwfb	(___awmod@dividend+1)^0,w,c
  8157   00424C  A0D8               	btfss	status,0,c
  8158   00424E  EF2B  F021         	goto	u2831
  8159   004252  EF2D  F021         	goto	u2830
  8160   004256                     u2831:
  8161   004256  EF31  F021         	goto	l2975
  8162   00425A                     u2830:
  8163   00425A  5003               	movf	___awmod@divisor^0,w,c
  8164   00425C  5E01               	subwf	___awmod@dividend^0,f,c
  8165   00425E  5004               	movf	(___awmod@divisor+1)^0,w,c
  8166   004260  5A02               	subwfb	(___awmod@dividend+1)^0,f,c
  8167   004262                     l2975:
  8168   004262  90D8               	bcf	status,0,c
  8169   004264  3204               	rrcf	(___awmod@divisor+1)^0,f,c
  8170   004266  3203               	rrcf	___awmod@divisor^0,f,c
  8171   004268  2E05               	decfsz	___awmod@counter^0,f,c
  8172   00426A  EF22  F021         	goto	l2971
  8173   00426E                     l2979:
  8174   00426E  5006               	movf	___awmod@sign^0,w,c
  8175   004270  B4D8               	btfsc	status,2,c
  8176   004272  EF3D  F021         	goto	u2841
  8177   004276  EF3F  F021         	goto	u2840
  8178   00427A                     u2841:
  8179   00427A  EF43  F021         	goto	l2983
  8180   00427E                     u2840:
  8181   00427E  6C01               	negf	___awmod@dividend^0,c
  8182   004280  1E02               	comf	(___awmod@dividend+1)^0,f,c
  8183   004282  B0D8               	btfsc	status,0,c
  8184   004284  2A02               	incf	(___awmod@dividend+1)^0,f,c
  8185   004286                     l2983:
  8186   004286  C001  F001         	movff	___awmod@dividend,?___awmod
  8187   00428A  C002  F002         	movff	___awmod@dividend+1,?___awmod+1
  8188   00428E  0012               	return		;funcret
  8189   004290                     __end_of___awmod:
  8190                           	callstack 0
  8191                           
  8192 ;; *************** function ___awdiv *****************
  8193 ;; Defined at:
  8194 ;;		line 7 in file "C:\Program Files\Microchip\xc8\v3.10\pic\sources\c99\common\awdiv.c"
  8195 ;; Parameters:    Size  Location     Type
  8196 ;;  dividend        2    0[COMRAM] int 
  8197 ;;  divisor         2    2[COMRAM] int 
  8198 ;; Auto vars:     Size  Location     Type
  8199 ;;  quotient        2    6[COMRAM] int 
  8200 ;;  sign            1    5[COMRAM] unsigned char 
  8201 ;;  counter         1    4[COMRAM] unsigned char 
  8202 ;; Return value:  Size  Location     Type
  8203 ;;                  2    0[COMRAM] int 
  8204 ;; Registers used:
  8205 ;;		wreg, status,2, status,0
  8206 ;; Tracked objects:
  8207 ;;		On entry : 0/0
  8208 ;;		On exit  : 0/0
  8209 ;;		Unchanged: 0/0
  8210 ;; Data sizes:     COMRAM   BANK0   BANK1   BANK2   BANK3   BANK4   BANK5   BANK6   BANK7   BANK8   BANK9  BANK10  BANK1
      +1  BANK12
  8211 ;;      Params:         4       0       0       0       0       0       0       0       0       0       0       0       
      +0       0
  8212 ;;      Locals:         4       0       0       0       0       0       0       0       0       0       0       0       
      +0       0
  8213 ;;      Temps:          0       0       0       0       0       0       0       0       0       0       0       0       
      +0       0
  8214 ;;      Totals:         8       0       0       0       0       0       0       0       0       0       0       0       
      +0       0
  8215 ;;Total ram usage:        8 bytes
  8216 ;; Hardware stack levels used: 1
  8217 ;; This function calls:
  8218 ;;		Nothing
  8219 ;; This function is called by:
  8220 ;;		_dtoa
  8221 ;; This function uses a non-reentrant model
  8222 ;;
  8223                           
  8224                           	psect	text19
  8225   004122                     __ptext19:
  8226                           	callstack 0
  8227   004122                     ___awdiv:
  8228                           	callstack 25
  8229   004122  6A06               	clrf	___awdiv@sign^0,c
  8230   004124  BE04               	btfsc	(___awdiv@divisor+1)^0,7,c
  8231   004126  EF99  F020         	goto	u2730
  8232   00412A  EF97  F020         	goto	u2731
  8233   00412E                     u2731:
  8234   00412E  EF9F  F020         	goto	l2915
  8235   004132                     u2730:
  8236   004132  6C03               	negf	___awdiv@divisor^0,c
  8237   004134  1E04               	comf	(___awdiv@divisor+1)^0,f,c
  8238   004136  B0D8               	btfsc	status,0,c
  8239   004138  2A04               	incf	(___awdiv@divisor+1)^0,f,c
  8240   00413A  0E01               	movlw	1
  8241   00413C  6E06               	movwf	___awdiv@sign^0,c
  8242   00413E                     l2915:
  8243   00413E  BE02               	btfsc	(___awdiv@dividend+1)^0,7,c
  8244   004140  EFA6  F020         	goto	u2740
  8245   004144  EFA4  F020         	goto	u2741
  8246   004148                     u2741:
  8247   004148  EFAC  F020         	goto	l2921
  8248   00414C                     u2740:
  8249   00414C  6C01               	negf	___awdiv@dividend^0,c
  8250   00414E  1E02               	comf	(___awdiv@dividend+1)^0,f,c
  8251   004150  B0D8               	btfsc	status,0,c
  8252   004152  2A02               	incf	(___awdiv@dividend+1)^0,f,c
  8253   004154  0E01               	movlw	1
  8254   004156  1A06               	xorwf	___awdiv@sign^0,f,c
  8255   004158                     l2921:
  8256   004158  6A08               	clrf	(___awdiv@quotient+1)^0,c
  8257   00415A  0E00               	movlw	0
  8258   00415C  6E07               	movwf	___awdiv@quotient^0,c
  8259   00415E  5003               	movf	___awdiv@divisor^0,w,c
  8260   004160  1004               	iorwf	(___awdiv@divisor+1)^0,w,c
  8261   004162  B4D8               	btfsc	status,2,c
  8262   004164  EFB6  F020         	goto	u2751
  8263   004168  EFB8  F020         	goto	u2750
  8264   00416C                     u2751:
  8265   00416C  EFE0  F020         	goto	l2943
  8266   004170                     u2750:
  8267   004170  0E01               	movlw	1
  8268   004172  6E05               	movwf	___awdiv@counter^0,c
  8269   004174  EFC0  F020         	goto	l2929
  8270   004178                     l2927:
  8271   004178  90D8               	bcf	status,0,c
  8272   00417A  3603               	rlcf	___awdiv@divisor^0,f,c
  8273   00417C  3604               	rlcf	(___awdiv@divisor+1)^0,f,c
  8274   00417E  2A05               	incf	___awdiv@counter^0,f,c
  8275   004180                     l2929:
  8276   004180  AE04               	btfss	(___awdiv@divisor+1)^0,7,c
  8277   004182  EFC5  F020         	goto	u2761
  8278   004186  EFC7  F020         	goto	u2760
  8279   00418A                     u2761:
  8280   00418A  EFBC  F020         	goto	l2927
  8281   00418E                     u2760:
  8282   00418E                     l2931:
  8283   00418E  90D8               	bcf	status,0,c
  8284   004190  3607               	rlcf	___awdiv@quotient^0,f,c
  8285   004192  3608               	rlcf	(___awdiv@quotient+1)^0,f,c
  8286   004194  5003               	movf	___awdiv@divisor^0,w,c
  8287   004196  5C01               	subwf	___awdiv@dividend^0,w,c
  8288   004198  5004               	movf	(___awdiv@divisor+1)^0,w,c
  8289   00419A  5802               	subwfb	(___awdiv@dividend+1)^0,w,c
  8290   00419C  A0D8               	btfss	status,0,c
  8291   00419E  EFD3  F020         	goto	u2771
  8292   0041A2  EFD5  F020         	goto	u2770
  8293   0041A6                     u2771:
  8294   0041A6  EFDA  F020         	goto	l2939
  8295   0041AA                     u2770:
  8296   0041AA  5003               	movf	___awdiv@divisor^0,w,c
  8297   0041AC  5E01               	subwf	___awdiv@dividend^0,f,c
  8298   0041AE  5004               	movf	(___awdiv@divisor+1)^0,w,c
  8299   0041B0  5A02               	subwfb	(___awdiv@dividend+1)^0,f,c
  8300   0041B2  8007               	bsf	___awdiv@quotient^0,0,c
  8301   0041B4                     l2939:
  8302   0041B4  90D8               	bcf	status,0,c
  8303   0041B6  3204               	rrcf	(___awdiv@divisor+1)^0,f,c
  8304   0041B8  3203               	rrcf	___awdiv@divisor^0,f,c
  8305   0041BA  2E05               	decfsz	___awdiv@counter^0,f,c
  8306   0041BC  EFC7  F020         	goto	l2931
  8307   0041C0                     l2943:
  8308   0041C0  5006               	movf	___awdiv@sign^0,w,c
  8309   0041C2  B4D8               	btfsc	status,2,c
  8310   0041C4  EFE6  F020         	goto	u2781
  8311   0041C8  EFE8  F020         	goto	u2780
  8312   0041CC                     u2781:
  8313   0041CC  EFEC  F020         	goto	l2947
  8314   0041D0                     u2780:
  8315   0041D0  6C07               	negf	___awdiv@quotient^0,c
  8316   0041D2  1E08               	comf	(___awdiv@quotient+1)^0,f,c
  8317   0041D4  B0D8               	btfsc	status,0,c
  8318   0041D6  2A08               	incf	(___awdiv@quotient+1)^0,f,c
  8319   0041D8                     l2947:
  8320   0041D8  C007  F001         	movff	___awdiv@quotient,?___awdiv
  8321   0041DC  C008  F002         	movff	___awdiv@quotient+1,?___awdiv+1
  8322   0041E0  0012               	return		;funcret
  8323   0041E2                     __end_of___awdiv:
  8324                           	callstack 0
  8325                           
  8326 ;; *************** function _ctoa *****************
  8327 ;; Defined at:
  8328 ;;		line 476 in file "C:\Program Files\Microchip\xc8\v3.10\pic\sources\c99\common\doprnt.c"
  8329 ;; Parameters:    Size  Location     Type
  8330 ;;  fp              1    8[COMRAM] PTR struct _IO_FILE
  8331 ;;		 -> sprintf@f(11), 
  8332 ;;  c               1    9[COMRAM] unsigned char 
  8333 ;; Auto vars:     Size  Location     Type
  8334 ;;  w               2   13[COMRAM] int 
  8335 ;;  l               2   11[COMRAM] int 
  8336 ;; Return value:  Size  Location     Type
  8337 ;;                  2    8[COMRAM] int 
  8338 ;; Registers used:
  8339 ;;		wreg, fsr1l, fsr1h, fsr2l, fsr2h, status,2, status,0, cstack
  8340 ;; Tracked objects:
  8341 ;;		On entry : 0/0
  8342 ;;		On exit  : 0/0
  8343 ;;		Unchanged: 0/0
  8344 ;; Data sizes:     COMRAM   BANK0   BANK1   BANK2   BANK3   BANK4   BANK5   BANK6   BANK7   BANK8   BANK9  BANK10  BANK1
      +1  BANK12
  8345 ;;      Params:         2       0       0       0       0       0       0       0       0       0       0       0       
      +0       0
  8346 ;;      Locals:         4       0       0       0       0       0       0       0       0       0       0       0       
      +0       0
  8347 ;;      Temps:          1       0       0       0       0       0       0       0       0       0       0       0       
      +0       0
  8348 ;;      Totals:         7       0       0       0       0       0       0       0       0       0       0       0       
      +0       0
  8349 ;;Total ram usage:        7 bytes
  8350 ;; Hardware stack levels used: 1
  8351 ;; Hardware stack levels required when called: 2
  8352 ;; This function calls:
  8353 ;;		_fputc
  8354 ;; This function is called by:
  8355 ;;		_vfpfcnvrt
  8356 ;; This function uses a non-reentrant model
  8357 ;;
  8358                           
  8359                           	psect	text20
  8360   00405E                     __ptext20:
  8361                           	callstack 0
  8362   00405E                     _ctoa:
  8363                           	callstack 24
  8364   00405E                     
  8365                           ;C:\Program Files\Microchip\xc8\v3.10\pic\sources\c99\common\doprnt.c: 476: static int c
      +                          toa(FILE *fp, char c);C:\Program Files\Microchip\xc8\v3.10\pic\sources\c99\common\doprnt
      +                          .c: 477: {;C:\Program Files\Microchip\xc8\v3.10\pic\sources\c99\common\doprnt.c: 478:   
      +                            int l,w;;C:\Program Files\Microchip\xc8\v3.10\pic\sources\c99\common\doprnt.c: 481:   
      +                            w = width ? width - 1 : width;
  8366   00405E  0100               	movlb	0	; () banked
  8367   004060  51F8               	movf	_width& (0+255),w,b
  8368   004062  11F9               	iorwf	(_width+1)& (0+255),w,b
  8369   004064  A4D8               	btfss	status,2,c
  8370   004066  EF37  F020         	goto	u2971
  8371   00406A  EF39  F020         	goto	u2970
  8372   00406E                     u2971:
  8373   00406E  EF3F  F020         	goto	l3067
  8374   004072                     u2970:
  8375   004072                     
  8376                           ; BSR set to: 0
  8377   004072  C0F8  F00E         	movff	_width,ctoa@w
  8378   004076  C0F9  F00F         	movff	_width+1,ctoa@w+1
  8379   00407A  EF45  F020         	goto	l3069
  8380   00407E                     l3067:
  8381                           
  8382                           ; BSR set to: 0
  8383   00407E  0EFF               	movlw	255
  8384   004080  25F8               	addwf	_width& (0+255),w,b
  8385   004082  6E0E               	movwf	ctoa@w^0,c
  8386   004084  0EFF               	movlw	255
  8387   004086  21F9               	addwfc	(_width+1)& (0+255),w,b
  8388   004088  6E0F               	movwf	(ctoa@w+1)^0,c
  8389   00408A                     l3069:
  8390                           
  8391                           ; BSR set to: 0
  8392                           ;C:\Program Files\Microchip\xc8\v3.10\pic\sources\c99\common\doprnt.c: 485:     if (flag
      +                          s & (1 << 0)) {
  8393   00408A  A05F               	btfss	_flags^0,0,c
  8394   00408C  EF4A  F020         	goto	u2981
  8395   004090  EF4C  F020         	goto	u2980
  8396   004094                     u2981:
  8397   004094  EF53  F020         	goto	l3073
  8398   004098                     u2980:
  8399   004098                     
  8400                           ; BSR set to: 0
  8401                           ;C:\Program Files\Microchip\xc8\v3.10\pic\sources\c99\common\doprnt.c: 486:         fput
      +                          c(c, fp);
  8402   004098  C00A  F001         	movff	ctoa@c,fputc@c
  8403   00409C  6A02               	clrf	(fputc@c+1)^0,c
  8404   00409E  C009  F003         	movff	ctoa@fp,fputc@fp
  8405   0040A2  EC48  F021         	call	_fputc	;wreg free
  8406   0040A6                     l3073:
  8407                           
  8408                           ;C:\Program Files\Microchip\xc8\v3.10\pic\sources\c99\common\doprnt.c: 491:     w = (w <
      +                           0) ? 0 : w;
  8409   0040A6  BE0F               	btfsc	(ctoa@w+1)^0,7,c
  8410   0040A8  EF58  F020         	goto	u2991
  8411   0040AC  EF5A  F020         	goto	u2990
  8412   0040B0                     u2991:
  8413   0040B0  EF5C  F020         	goto	l3077
  8414   0040B4                     u2990:
  8415   0040B4  EF5F  F020         	goto	l1041
  8416   0040B8                     l3077:
  8417   0040B8  6A0F               	clrf	(ctoa@w+1)^0,c
  8418   0040BA  0E00               	movlw	0
  8419   0040BC  6E0E               	movwf	ctoa@w^0,c
  8420   0040BE                     l1041:
  8421                           
  8422                           ;C:\Program Files\Microchip\xc8\v3.10\pic\sources\c99\common\doprnt.c: 492:     l = 0;
  8423   0040BE  6A0D               	clrf	(ctoa@l+1)^0,c
  8424   0040C0  0E00               	movlw	0
  8425   0040C2  6E0C               	movwf	ctoa@l^0,c
  8426                           
  8427                           ;C:\Program Files\Microchip\xc8\v3.10\pic\sources\c99\common\doprnt.c: 493:     while (l
      +                           < w) {
  8428   0040C4  EF6D  F020         	goto	l3083
  8429   0040C8                     l3079:
  8430                           
  8431                           ;C:\Program Files\Microchip\xc8\v3.10\pic\sources\c99\common\doprnt.c: 494:         fput
      +                          c(' ', fp);
  8432   0040C8  6A02               	clrf	(fputc@c+1)^0,c
  8433   0040CA  0E20               	movlw	32
  8434   0040CC  6E01               	movwf	fputc@c^0,c
  8435   0040CE  C009  F003         	movff	ctoa@fp,fputc@fp
  8436   0040D2  EC48  F021         	call	_fputc	;wreg free
  8437   0040D6                     
  8438                           ;C:\Program Files\Microchip\xc8\v3.10\pic\sources\c99\common\doprnt.c: 495:         ++l;
  8439   0040D6  4A0C               	infsnz	ctoa@l^0,f,c
  8440   0040D8  2A0D               	incf	(ctoa@l+1)^0,f,c
  8441   0040DA                     l3083:
  8442                           
  8443                           ;C:\Program Files\Microchip\xc8\v3.10\pic\sources\c99\common\doprnt.c: 493:     while (l
      +                           < w) {
  8444   0040DA  500E               	movf	ctoa@w^0,w,c
  8445   0040DC  5C0C               	subwf	ctoa@l^0,w,c
  8446   0040DE  500D               	movf	(ctoa@l+1)^0,w,c
  8447   0040E0  0A80               	xorlw	128
  8448   0040E2  6E0B               	movwf	??_ctoa^0,c
  8449   0040E4  500F               	movf	(ctoa@w+1)^0,w,c
  8450   0040E6  0A80               	xorlw	128
  8451   0040E8  580B               	subwfb	??_ctoa^0,w,c
  8452   0040EA  A0D8               	btfss	status,0,c
  8453   0040EC  EF7A  F020         	goto	u3001
  8454   0040F0  EF7C  F020         	goto	u3000
  8455   0040F4                     u3001:
  8456   0040F4  EF64  F020         	goto	l3079
  8457   0040F8                     u3000:
  8458   0040F8                     
  8459                           ;C:\Program Files\Microchip\xc8\v3.10\pic\sources\c99\common\doprnt.c: 499:     if (!(fl
      +                          ags & (1 << 0))) {
  8460   0040F8  B05F               	btfsc	_flags^0,0,c
  8461   0040FA  EF81  F020         	goto	u3011
  8462   0040FE  EF83  F020         	goto	u3010
  8463   004102                     u3011:
  8464   004102  EF8A  F020         	goto	l3087
  8465   004106                     u3010:
  8466   004106                     
  8467                           ;C:\Program Files\Microchip\xc8\v3.10\pic\sources\c99\common\doprnt.c: 501:         fput
      +                          c(c, fp);
  8468   004106  C00A  F001         	movff	ctoa@c,fputc@c
  8469   00410A  6A02               	clrf	(fputc@c+1)^0,c
  8470   00410C  C009  F003         	movff	ctoa@fp,fputc@fp
  8471   004110  EC48  F021         	call	_fputc	;wreg free
  8472   004114                     l3087:
  8473                           
  8474                           ;C:\Program Files\Microchip\xc8\v3.10\pic\sources\c99\common\doprnt.c: 507:     return l
      +                          +1;
  8475   004114  0E01               	movlw	1
  8476   004116  240C               	addwf	ctoa@l^0,w,c
  8477   004118  6E09               	movwf	?_ctoa^0,c
  8478   00411A  0E00               	movlw	0
  8479   00411C  200D               	addwfc	(ctoa@l+1)^0,w,c
  8480   00411E  6E0A               	movwf	(?_ctoa+1)^0,c
  8481   004120  0012               	return		;funcret
  8482   004122                     __end_of_ctoa:
  8483                           	callstack 0
  8484                           
  8485 ;; *************** function _fputc *****************
  8486 ;; Defined at:
  8487 ;;		line 8 in file "C:\Program Files\Microchip\xc8\v3.10\pic\sources\c99\common\nf_fputc.c"
  8488 ;; Parameters:    Size  Location     Type
  8489 ;;  c               2    0[COMRAM] int 
  8490 ;;  fp              1    2[COMRAM] PTR struct _IO_FILE
  8491 ;;		 -> sprintf@f(11), 
  8492 ;; Auto vars:     Size  Location     Type
  8493 ;;		None
  8494 ;; Return value:  Size  Location     Type
  8495 ;;                  2    0[COMRAM] int 
  8496 ;; Registers used:
  8497 ;;		wreg, fsr1l, fsr1h, fsr2l, fsr2h, status,2, status,0, cstack
  8498 ;; Tracked objects:
  8499 ;;		On entry : 0/0
  8500 ;;		On exit  : 0/0
  8501 ;;		Unchanged: 0/0
  8502 ;; Data sizes:     COMRAM   BANK0   BANK1   BANK2   BANK3   BANK4   BANK5   BANK6   BANK7   BANK8   BANK9  BANK10  BANK1
      +1  BANK12
  8503 ;;      Params:         3       0       0       0       0       0       0       0       0       0       0       0       
      +0       0
  8504 ;;      Locals:         0       0       0       0       0       0       0       0       0       0       0       0       
      +0       0
  8505 ;;      Temps:          5       0       0       0       0       0       0       0       0       0       0       0       
      +0       0
  8506 ;;      Totals:         8       0       0       0       0       0       0       0       0       0       0       0       
      +0       0
  8507 ;;Total ram usage:        8 bytes
  8508 ;; Hardware stack levels used: 1
  8509 ;; This function calls:
  8510 ;;		_putch
  8511 ;; This function is called by:
  8512 ;;		_pad
  8513 ;;		_ctoa
  8514 ;;		_vfpfcnvrt
  8515 ;;		_fputs
  8516 ;; This function uses a non-reentrant model
  8517 ;;
  8518                           
  8519                           	psect	text21
  8520   004290                     __ptext21:
  8521                           	callstack 0
  8522   004290                     _fputc:
  8523                           	callstack 23
  8524   004290  5003               	movf	fputc@fp^0,w,c
  8525   004292  B4D8               	btfsc	status,2,c
  8526   004294  EF4E  F021         	goto	u2611
  8527   004298  EF50  F021         	goto	u2610
  8528   00429C                     u2611:
  8529   00429C  EF58  F021         	goto	l2855
  8530   0042A0                     u2610:
  8531   0042A0  5003               	movf	fputc@fp^0,w,c
  8532   0042A2  A4D8               	btfss	status,2,c
  8533   0042A4  EF56  F021         	goto	u2621
  8534   0042A8  EF58  F021         	goto	u2620
  8535   0042AC                     u2621:
  8536   0042AC  EF5D  F021         	goto	l2857
  8537   0042B0                     u2620:
  8538   0042B0                     l2855:
  8539   0042B0  5001               	movf	fputc@c^0,w,c
  8540   0042B2  ECB6  F024         	call	_putch
  8541   0042B6  EF9C  F021         	goto	l1228
  8542   0042BA                     l2857:
  8543   0042BA  5003               	movf	fputc@fp^0,w,c
  8544   0042BC  6ED9               	movwf	fsr2l,c
  8545   0042BE  6ADA               	clrf	fsr2h,c
  8546   0042C0  0E09               	movlw	9
  8547   0042C2  26D9               	addwf	fsr2l,f,c
  8548   0042C4  50DE               	movf	postinc2,w,c
  8549   0042C6  10DE               	iorwf	postinc2,w,c
  8550   0042C8  B4D8               	btfsc	status,2,c
  8551   0042CA  EF69  F021         	goto	u2631
  8552   0042CE  EF6B  F021         	goto	u2630
  8553   0042D2                     u2631:
  8554   0042D2  EF84  F021         	goto	l2861
  8555   0042D6                     u2630:
  8556   0042D6  5003               	movf	fputc@fp^0,w,c
  8557   0042D8  6ED9               	movwf	fsr2l,c
  8558   0042DA  6ADA               	clrf	fsr2h,c
  8559   0042DC  0E09               	movlw	9
  8560   0042DE  26D9               	addwf	fsr2l,f,c
  8561   0042E0  5003               	movf	fputc@fp^0,w,c
  8562   0042E2  6EE1               	movwf	fsr1l,c
  8563   0042E4  6AE2               	clrf	fsr1h,c
  8564   0042E6  0E02               	movlw	2
  8565   0042E8  26E1               	addwf	fsr1l,f,c
  8566   0042EA  50DE               	movf	postinc2,w,c
  8567   0042EC  5CE6               	subwf	postinc1,w,c
  8568   0042EE  50E6               	movf	postinc1,w,c
  8569   0042F0  0A80               	xorlw	128
  8570   0042F2  6E08               	movwf	(??_fputc+4)^0,c
  8571   0042F4  50DE               	movf	postinc2,w,c
  8572   0042F6  0A80               	xorlw	128
  8573   0042F8  5808               	subwfb	(??_fputc+4)^0,w,c
  8574   0042FA  B0D8               	btfsc	status,0,c
  8575   0042FC  EF82  F021         	goto	u2641
  8576   004300  EF84  F021         	goto	u2640
  8577   004304                     u2641:
  8578   004304  EF9C  F021         	goto	l1228
  8579   004308                     u2640:
  8580   004308                     l2861:
  8581   004308  5003               	movf	fputc@fp^0,w,c
  8582   00430A  6ED9               	movwf	fsr2l,c
  8583   00430C  6ADA               	clrf	fsr2h,c
  8584   00430E  0E02               	movlw	2
  8585   004310  26D9               	addwf	fsr2l,f,c
  8586   004312  50DF               	movf	indf2,w,c
  8587   004314  6E04               	movwf	??_fputc^0,c
  8588   004316  5003               	movf	fputc@fp^0,w,c
  8589   004318  6ED9               	movwf	fsr2l,c
  8590   00431A  6ADA               	clrf	fsr2h,c
  8591   00431C  50DF               	movf	indf2,w,c
  8592   00431E  2404               	addwf	??_fputc^0,w,c
  8593   004320  6ED9               	movwf	fsr2l,c
  8594   004322  6ADA               	clrf	fsr2h,c
  8595   004324  C001  FFDF         	movff	fputc@c,indf2
  8596   004328  5003               	movf	fputc@fp^0,w,c
  8597   00432A  6ED9               	movwf	fsr2l,c
  8598   00432C  6ADA               	clrf	fsr2h,c
  8599   00432E  0E02               	movlw	2
  8600   004330  26D9               	addwf	fsr2l,f,c
  8601   004332  2ADE               	incf	postinc2,f,c
  8602   004334  0E00               	movlw	0
  8603   004336  22DD               	addwfc	postdec2,f,c
  8604   004338                     l1228:
  8605   004338  0012               	return		;funcret
  8606   00433A                     __end_of_fputc:
  8607                           	callstack 0
  8608                           
  8609 ;; *************** function _putch *****************
  8610 ;; Defined at:
  8611 ;;		line 7 in file "C:\Program Files\Microchip\xc8\v3.10\pic\sources\c99\common\putch.c"
  8612 ;; Parameters:    Size  Location     Type
  8613 ;;  c               1    wreg     unsigned char 
  8614 ;; Auto vars:     Size  Location     Type
  8615 ;;  c               1    0[COMRAM] unsigned char 
  8616 ;; Return value:  Size  Location     Type
  8617 ;;                  1    wreg      void 
  8618 ;; Registers used:
  8619 ;;		wreg
  8620 ;; Tracked objects:
  8621 ;;		On entry : 0/0
  8622 ;;		On exit  : 0/0
  8623 ;;		Unchanged: 0/0
  8624 ;; Data sizes:     COMRAM   BANK0   BANK1   BANK2   BANK3   BANK4   BANK5   BANK6   BANK7   BANK8   BANK9  BANK10  BANK1
      +1  BANK12
  8625 ;;      Params:         0       0       0       0       0       0       0       0       0       0       0       0       
      +0       0
  8626 ;;      Locals:         0       0       0       0       0       0       0       0       0       0       0       0       
      +0       0
  8627 ;;      Temps:          0       0       0       0       0       0       0       0       0       0       0       0       
      +0       0
  8628 ;;      Totals:         0       0       0       0       0       0       0       0       0       0       0       0       
      +0       0
  8629 ;;Total ram usage:        0 bytes
  8630 ;; Hardware stack levels used: 1
  8631 ;; This function calls:
  8632 ;;		Nothing
  8633 ;; This function is called by:
  8634 ;;		_fputc
  8635 ;; This function uses a non-reentrant model
  8636 ;;
  8637                           
  8638                           	psect	text22
  8639   00496C                     __ptext22:
  8640                           	callstack 0
  8641   00496C                     _putch:
  8642                           	callstack 22
  8643   00496C  0012               	return		;funcret
  8644   00496E                     __end_of_putch:
  8645                           	callstack 0
  8646                           
  8647 ;; *************** function _fabsf *****************
  8648 ;; Defined at:
  8649 ;;		line 4 in file "C:\Program Files\Microchip\xc8\v3.10\pic\sources\c99\common\fabsf.c"
  8650 ;; Parameters:    Size  Location     Type
  8651 ;;  x               4    0[COMRAM] float 
  8652 ;; Auto vars:     Size  Location     Type
  8653 ;;  u               4    4[COMRAM] struct .
  8654 ;; Return value:  Size  Location     Type
  8655 ;;                  4    0[COMRAM] float 
  8656 ;; Registers used:
  8657 ;;		status,2, status,0
  8658 ;; Tracked objects:
  8659 ;;		On entry : 0/0
  8660 ;;		On exit  : 0/0
  8661 ;;		Unchanged: 0/0
  8662 ;; Data sizes:     COMRAM   BANK0   BANK1   BANK2   BANK3   BANK4   BANK5   BANK6   BANK7   BANK8   BANK9  BANK10  BANK1
      +1  BANK12
  8663 ;;      Params:         4       0       0       0       0       0       0       0       0       0       0       0       
      +0       0
  8664 ;;      Locals:         4       0       0       0       0       0       0       0       0       0       0       0       
      +0       0
  8665 ;;      Temps:          0       0       0       0       0       0       0       0       0       0       0       0       
      +0       0
  8666 ;;      Totals:         8       0       0       0       0       0       0       0       0       0       0       0       
      +0       0
  8667 ;;Total ram usage:        8 bytes
  8668 ;; Hardware stack levels used: 1
  8669 ;; This function calls:
  8670 ;;		Nothing
  8671 ;; This function is called by:
  8672 ;;		_ftoa
  8673 ;; This function uses a non-reentrant model
  8674 ;;
  8675                           
  8676                           	psect	text23
  8677   00477C                     __ptext23:
  8678                           	callstack 0
  8679   00477C                     _fabsf:
  8680                           	callstack 29
  8681   00477C  C0F2  F005         	movff	fabsf@F465,fabsf@u
  8682   004780  C0F3  F006         	movff	fabsf@F465+1,fabsf@u+1
  8683   004784  C0F4  F007         	movff	fabsf@F465+2,fabsf@u+2
  8684   004788  C0F5  F008         	movff	fabsf@F465+3,fabsf@u+3
  8685   00478C  C001  F005         	movff	fabsf@x,fabsf@u
  8686   004790  C002  F006         	movff	fabsf@x+1,fabsf@u+1
  8687   004794  C003  F007         	movff	fabsf@x+2,fabsf@u+2
  8688   004798  C004  F008         	movff	fabsf@x+3,fabsf@u+3
  8689   00479C  9E08               	bcf	(fabsf@u+3)^0,7,c
  8690   00479E  C005  F001         	movff	fabsf@u,?_fabsf
  8691   0047A2  C006  F002         	movff	fabsf@u+1,?_fabsf+1
  8692   0047A6  C007  F003         	movff	fabsf@u+2,?_fabsf+2
  8693   0047AA  C008  F004         	movff	fabsf@u+3,?_fabsf+3
  8694   0047AE  0012               	return		;funcret
  8695   0047B0                     __end_of_fabsf:
  8696                           	callstack 0
  8697                           
  8698 ;; *************** function ___xxtofl *****************
  8699 ;; Defined at:
  8700 ;;		line 10 in file "C:\Program Files\Microchip\xc8\v3.10\pic\sources\c99\common\xxtofl.c"
  8701 ;; Parameters:    Size  Location     Type
  8702 ;;  sign            1    wreg     unsigned char 
  8703 ;;  val             4    0[COMRAM] long 
  8704 ;; Auto vars:     Size  Location     Type
  8705 ;;  sign            1    8[COMRAM] unsigned char 
  8706 ;;  arg             4   10[COMRAM] unsigned long 
  8707 ;;  exp             1    9[COMRAM] unsigned char 
  8708 ;; Return value:  Size  Location     Type
  8709 ;;                  4    0[COMRAM] unsigned char 
  8710 ;; Registers used:
  8711 ;;		wreg, status,2, status,0
  8712 ;; Tracked objects:
  8713 ;;		On entry : 0/0
  8714 ;;		On exit  : 0/0
  8715 ;;		Unchanged: 0/0
  8716 ;; Data sizes:     COMRAM   BANK0   BANK1   BANK2   BANK3   BANK4   BANK5   BANK6   BANK7   BANK8   BANK9  BANK10  BANK1
      +1  BANK12
  8717 ;;      Params:         4       0       0       0       0       0       0       0       0       0       0       0       
      +0       0
  8718 ;;      Locals:         6       0       0       0       0       0       0       0       0       0       0       0       
      +0       0
  8719 ;;      Temps:          4       0       0       0       0       0       0       0       0       0       0       0       
      +0       0
  8720 ;;      Totals:        14       0       0       0       0       0       0       0       0       0       0       0       
      +0       0
  8721 ;;Total ram usage:       14 bytes
  8722 ;; Hardware stack levels used: 1
  8723 ;; This function calls:
  8724 ;;		Nothing
  8725 ;; This function is called by:
  8726 ;;		_ftoa
  8727 ;;		_main
  8728 ;;		_logf
  8729 ;; This function uses a non-reentrant model
  8730 ;;
  8731                           
  8732                           	psect	text24
  8733   00369C                     __ptext24:
  8734                           	callstack 0
  8735   00369C                     ___xxtofl:
  8736                           	callstack 29
  8737                           
  8738                           ;incstack = 0
  8739                           ;___xxtofl@sign stored from wreg
  8740   00369C  6E09               	movwf	___xxtofl@sign^0,c
  8741   00369E  5009               	movf	___xxtofl@sign^0,w,c
  8742   0036A0  B4D8               	btfsc	status,2,c
  8743   0036A2  EF55  F01B         	goto	u4761
  8744   0036A6  EF57  F01B         	goto	u4760
  8745   0036AA                     u4761:
  8746   0036AA  EF79  F01B         	goto	l943
  8747   0036AE                     u4760:
  8748   0036AE  BE04               	btfsc	(___xxtofl@val+3)^0,7,c
  8749   0036B0  EF5E  F01B         	goto	u4770
  8750   0036B4  EF5C  F01B         	goto	u4771
  8751   0036B8                     u4771:
  8752   0036B8  EF79  F01B         	goto	l943
  8753   0036BC                     u4770:
  8754   0036BC  C001  F005         	movff	___xxtofl@val,??___xxtofl
  8755   0036C0  C002  F006         	movff	___xxtofl@val+1,??___xxtofl+1
  8756   0036C4  C003  F007         	movff	___xxtofl@val+2,??___xxtofl+2
  8757   0036C8  C004  F008         	movff	___xxtofl@val+3,??___xxtofl+3
  8758   0036CC  1E05               	comf	??___xxtofl^0,f,c
  8759   0036CE  1E06               	comf	(??___xxtofl+1)^0,f,c
  8760   0036D0  1E07               	comf	(??___xxtofl+2)^0,f,c
  8761   0036D2  1E08               	comf	(??___xxtofl+3)^0,f,c
  8762   0036D4  2A05               	incf	??___xxtofl^0,f,c
  8763   0036D6  0E00               	movlw	0
  8764   0036D8  2206               	addwfc	(??___xxtofl+1)^0,f,c
  8765   0036DA  2207               	addwfc	(??___xxtofl+2)^0,f,c
  8766   0036DC  2208               	addwfc	(??___xxtofl+3)^0,f,c
  8767   0036DE  C005  F00B         	movff	??___xxtofl,___xxtofl@arg
  8768   0036E2  C006  F00C         	movff	??___xxtofl+1,___xxtofl@arg+1
  8769   0036E6  C007  F00D         	movff	??___xxtofl+2,___xxtofl@arg+2
  8770   0036EA  C008  F00E         	movff	??___xxtofl+3,___xxtofl@arg+3
  8771   0036EE  EF81  F01B         	goto	l4081
  8772   0036F2                     l943:
  8773   0036F2  C001  F00B         	movff	___xxtofl@val,___xxtofl@arg
  8774   0036F6  C002  F00C         	movff	___xxtofl@val+1,___xxtofl@arg+1
  8775   0036FA  C003  F00D         	movff	___xxtofl@val+2,___xxtofl@arg+2
  8776   0036FE  C004  F00E         	movff	___xxtofl@val+3,___xxtofl@arg+3
  8777   003702                     l4081:
  8778   003702  5001               	movf	___xxtofl@val^0,w,c
  8779   003704  1002               	iorwf	(___xxtofl@val+1)^0,w,c
  8780   003706  1003               	iorwf	(___xxtofl@val+2)^0,w,c
  8781   003708  1004               	iorwf	(___xxtofl@val+3)^0,w,c
  8782   00370A  A4D8               	btfss	status,2,c
  8783   00370C  EF8A  F01B         	goto	u4781
  8784   003710  EF8C  F01B         	goto	u4780
  8785   003714                     u4781:
  8786   003714  EF96  F01B         	goto	l4087
  8787   003718                     u4780:
  8788   003718  0E00               	movlw	0
  8789   00371A  6E01               	movwf	?___xxtofl^0,c
  8790   00371C  0E00               	movlw	0
  8791   00371E  6E02               	movwf	(?___xxtofl+1)^0,c
  8792   003720  0E00               	movlw	0
  8793   003722  6E03               	movwf	(?___xxtofl+2)^0,c
  8794   003724  0E00               	movlw	0
  8795   003726  6E04               	movwf	(?___xxtofl+3)^0,c
  8796   003728  EF27  F01C         	goto	l946
  8797   00372C                     l4087:
  8798   00372C  0E96               	movlw	150
  8799   00372E  6E0A               	movwf	___xxtofl@exp^0,c
  8800   003730  EFA0  F01B         	goto	l4091
  8801   003734                     l4089:
  8802   003734  2A0A               	incf	___xxtofl@exp^0,f,c
  8803   003736  90D8               	bcf	status,0,c
  8804   003738  320E               	rrcf	(___xxtofl@arg+3)^0,f,c
  8805   00373A  320D               	rrcf	(___xxtofl@arg+2)^0,f,c
  8806   00373C  320C               	rrcf	(___xxtofl@arg+1)^0,f,c
  8807   00373E  320B               	rrcf	___xxtofl@arg^0,f,c
  8808   003740                     l4091:
  8809   003740  0E00               	movlw	0
  8810   003742  140B               	andwf	___xxtofl@arg^0,w,c
  8811   003744  6E05               	movwf	??___xxtofl^0,c
  8812   003746  0E00               	movlw	0
  8813   003748  140C               	andwf	(___xxtofl@arg+1)^0,w,c
  8814   00374A  6E06               	movwf	(??___xxtofl+1)^0,c
  8815   00374C  0E00               	movlw	0
  8816   00374E  140D               	andwf	(___xxtofl@arg+2)^0,w,c
  8817   003750  6E07               	movwf	(??___xxtofl+2)^0,c
  8818   003752  0EFE               	movlw	254
  8819   003754  140E               	andwf	(___xxtofl@arg+3)^0,w,c
  8820   003756  6E08               	movwf	(??___xxtofl+3)^0,c
  8821   003758  5005               	movf	??___xxtofl^0,w,c
  8822   00375A  1006               	iorwf	(??___xxtofl+1)^0,w,c
  8823   00375C  1007               	iorwf	(??___xxtofl+2)^0,w,c
  8824   00375E  1008               	iorwf	(??___xxtofl+3)^0,w,c
  8825   003760  A4D8               	btfss	status,2,c
  8826   003762  EFB5  F01B         	goto	u4791
  8827   003766  EFB7  F01B         	goto	u4790
  8828   00376A                     u4791:
  8829   00376A  EF9A  F01B         	goto	l4089
  8830   00376E                     u4790:
  8831   00376E  EFC5  F01B         	goto	l950
  8832   003772                     l4093:
  8833   003772  2A0A               	incf	___xxtofl@exp^0,f,c
  8834   003774  0E01               	movlw	1
  8835   003776  260B               	addwf	___xxtofl@arg^0,f,c
  8836   003778  0E00               	movlw	0
  8837   00377A  220C               	addwfc	(___xxtofl@arg+1)^0,f,c
  8838   00377C  220D               	addwfc	(___xxtofl@arg+2)^0,f,c
  8839   00377E  220E               	addwfc	(___xxtofl@arg+3)^0,f,c
  8840   003780  90D8               	bcf	status,0,c
  8841   003782  320E               	rrcf	(___xxtofl@arg+3)^0,f,c
  8842   003784  320D               	rrcf	(___xxtofl@arg+2)^0,f,c
  8843   003786  320C               	rrcf	(___xxtofl@arg+1)^0,f,c
  8844   003788  320B               	rrcf	___xxtofl@arg^0,f,c
  8845   00378A                     l950:
  8846   00378A  0E00               	movlw	0
  8847   00378C  140B               	andwf	___xxtofl@arg^0,w,c
  8848   00378E  6E05               	movwf	??___xxtofl^0,c
  8849   003790  0E00               	movlw	0
  8850   003792  140C               	andwf	(___xxtofl@arg+1)^0,w,c
  8851   003794  6E06               	movwf	(??___xxtofl+1)^0,c
  8852   003796  0E00               	movlw	0
  8853   003798  140D               	andwf	(___xxtofl@arg+2)^0,w,c
  8854   00379A  6E07               	movwf	(??___xxtofl+2)^0,c
  8855   00379C  0EFF               	movlw	255
  8856   00379E  140E               	andwf	(___xxtofl@arg+3)^0,w,c
  8857   0037A0  6E08               	movwf	(??___xxtofl+3)^0,c
  8858   0037A2  5005               	movf	??___xxtofl^0,w,c
  8859   0037A4  1006               	iorwf	(??___xxtofl+1)^0,w,c
  8860   0037A6  1007               	iorwf	(??___xxtofl+2)^0,w,c
  8861   0037A8  1008               	iorwf	(??___xxtofl+3)^0,w,c
  8862   0037AA  A4D8               	btfss	status,2,c
  8863   0037AC  EFDA  F01B         	goto	u4801
  8864   0037B0  EFDC  F01B         	goto	u4800
  8865   0037B4                     u4801:
  8866   0037B4  EFB9  F01B         	goto	l4093
  8867   0037B8                     u4800:
  8868   0037B8  EFE4  F01B         	goto	l4101
  8869   0037BC                     l4099:
  8870   0037BC  060A               	decf	___xxtofl@exp^0,f,c
  8871   0037BE  90D8               	bcf	status,0,c
  8872   0037C0  360B               	rlcf	___xxtofl@arg^0,f,c
  8873   0037C2  360C               	rlcf	(___xxtofl@arg+1)^0,f,c
  8874   0037C4  360D               	rlcf	(___xxtofl@arg+2)^0,f,c
  8875   0037C6  360E               	rlcf	(___xxtofl@arg+3)^0,f,c
  8876   0037C8                     l4101:
  8877   0037C8  BE0D               	btfsc	(___xxtofl@arg+2)^0,7,c
  8878   0037CA  EFE9  F01B         	goto	u4811
  8879   0037CE  EFEB  F01B         	goto	u4810
  8880   0037D2                     u4811:
  8881   0037D2  EFF3  F01B         	goto	l957
  8882   0037D6                     u4810:
  8883   0037D6  0E02               	movlw	2
  8884   0037D8  600A               	cpfslt	___xxtofl@exp^0,c
  8885   0037DA  EFF1  F01B         	goto	u4821
  8886   0037DE  EFF3  F01B         	goto	u4820
  8887   0037E2                     u4821:
  8888   0037E2  EFDE  F01B         	goto	l4099
  8889   0037E6                     u4820:
  8890   0037E6                     l957:
  8891   0037E6  B00A               	btfsc	___xxtofl@exp^0,0,c
  8892   0037E8  EFF8  F01B         	goto	u4831
  8893   0037EC  EFFA  F01B         	goto	u4830
  8894   0037F0                     u4831:
  8895   0037F0  EFFB  F01B         	goto	l4107
  8896   0037F4                     u4830:
  8897   0037F4  9E0D               	bcf	(___xxtofl@arg+2)^0,7,c
  8898   0037F6                     l4107:
  8899   0037F6  90D8               	bcf	status,0,c
  8900   0037F8  320A               	rrcf	___xxtofl@exp^0,f,c
  8901   0037FA  C00A  F005         	movff	___xxtofl@exp,??___xxtofl
  8902   0037FE  6A06               	clrf	(??___xxtofl+1)^0,c
  8903   003800  6A07               	clrf	(??___xxtofl+2)^0,c
  8904   003802  6A08               	clrf	(??___xxtofl+3)^0,c
  8905   003804  C005  F008         	movff	??___xxtofl,??___xxtofl+3
  8906   003808  6A07               	clrf	(??___xxtofl+2)^0,c
  8907   00380A  6A06               	clrf	(??___xxtofl+1)^0,c
  8908   00380C  6A05               	clrf	??___xxtofl^0,c
  8909   00380E  5005               	movf	??___xxtofl^0,w,c
  8910   003810  120B               	iorwf	___xxtofl@arg^0,f,c
  8911   003812  5006               	movf	(??___xxtofl+1)^0,w,c
  8912   003814  120C               	iorwf	(___xxtofl@arg+1)^0,f,c
  8913   003816  5007               	movf	(??___xxtofl+2)^0,w,c
  8914   003818  120D               	iorwf	(___xxtofl@arg+2)^0,f,c
  8915   00381A  5008               	movf	(??___xxtofl+3)^0,w,c
  8916   00381C  120E               	iorwf	(___xxtofl@arg+3)^0,f,c
  8917   00381E  5009               	movf	___xxtofl@sign^0,w,c
  8918   003820  B4D8               	btfsc	status,2,c
  8919   003822  EF15  F01C         	goto	u4841
  8920   003826  EF17  F01C         	goto	u4840
  8921   00382A                     u4841:
  8922   00382A  EF1F  F01C         	goto	l4117
  8923   00382E                     u4840:
  8924   00382E  BE04               	btfsc	(___xxtofl@val+3)^0,7,c
  8925   003830  EF1E  F01C         	goto	u4850
  8926   003834  EF1C  F01C         	goto	u4851
  8927   003838                     u4851:
  8928   003838  EF1F  F01C         	goto	l4117
  8929   00383C                     u4850:
  8930   00383C  8E0E               	bsf	(___xxtofl@arg+3)^0,7,c
  8931   00383E                     l4117:
  8932   00383E  C00B  F001         	movff	___xxtofl@arg,?___xxtofl
  8933   003842  C00C  F002         	movff	___xxtofl@arg+1,?___xxtofl+1
  8934   003846  C00D  F003         	movff	___xxtofl@arg+2,?___xxtofl+2
  8935   00384A  C00E  F004         	movff	___xxtofl@arg+3,?___xxtofl+3
  8936   00384E                     l946:
  8937   00384E  0012               	return		;funcret
  8938   003850                     __end_of___xxtofl:
  8939                           	callstack 0
  8940                           
  8941 ;; *************** function ___fltol *****************
  8942 ;; Defined at:
  8943 ;;		line 43 in file "C:\Program Files\Microchip\xc8\v3.10\pic\sources\c99\common\fltol.c"
  8944 ;; Parameters:    Size  Location     Type
  8945 ;;  f1              4    8[COMRAM] unsigned char 
  8946 ;; Auto vars:     Size  Location     Type
  8947 ;;  exp1            1   17[COMRAM] unsigned char 
  8948 ;;  sign1           1   16[COMRAM] unsigned char 
  8949 ;; Return value:  Size  Location     Type
  8950 ;;                  4    8[COMRAM] long 
  8951 ;; Registers used:
  8952 ;;		wreg, status,2, status,0
  8953 ;; Tracked objects:
  8954 ;;		On entry : 0/0
  8955 ;;		On exit  : 0/0
  8956 ;;		Unchanged: 0/0
  8957 ;; Data sizes:     COMRAM   BANK0   BANK1   BANK2   BANK3   BANK4   BANK5   BANK6   BANK7   BANK8   BANK9  BANK10  BANK1
      +1  BANK12
  8958 ;;      Params:         4       0       0       0       0       0       0       0       0       0       0       0       
      +0       0
  8959 ;;      Locals:         2       0       0       0       0       0       0       0       0       0       0       0       
      +0       0
  8960 ;;      Temps:          4       0       0       0       0       0       0       0       0       0       0       0       
      +0       0
  8961 ;;      Totals:        10       0       0       0       0       0       0       0       0       0       0       0       
      +0       0
  8962 ;;Total ram usage:       10 bytes
  8963 ;; Hardware stack levels used: 1
  8964 ;; This function calls:
  8965 ;;		Nothing
  8966 ;; This function is called by:
  8967 ;;		_ftoa
  8968 ;; This function uses a non-reentrant model
  8969 ;;
  8970                           
  8971                           	psect	text25
  8972   003D6E                     __ptext25:
  8973                           	callstack 0
  8974   003D6E                     ___fltol:
  8975                           	callstack 29
  8976   003D6E  340B               	rlcf	(___fltol@f1+2)^0,w,c
  8977   003D70  340C               	rlcf	(___fltol@f1+3)^0,w,c
  8978   003D72  6E12               	movwf	___fltol@exp1^0,c
  8979   003D74  5012               	movf	___fltol@exp1^0,w,c
  8980   003D76  A4D8               	btfss	status,2,c
  8981   003D78  EFC0  F01E         	goto	u4691
  8982   003D7C  EFC2  F01E         	goto	u4690
  8983   003D80                     u4691:
  8984   003D80  EFCC  F01E         	goto	l4037
  8985   003D84                     u4690:
  8986   003D84                     l4033:
  8987   003D84  0E00               	movlw	0
  8988   003D86  6E09               	movwf	?___fltol^0,c
  8989   003D88  0E00               	movlw	0
  8990   003D8A  6E0A               	movwf	(?___fltol+1)^0,c
  8991   003D8C  0E00               	movlw	0
  8992   003D8E  6E0B               	movwf	(?___fltol+2)^0,c
  8993   003D90  0E00               	movlw	0
  8994   003D92  6E0C               	movwf	(?___fltol+3)^0,c
  8995   003D94  EF39  F01F         	goto	l585
  8996   003D98                     l4037:
  8997   003D98  C009  F00D         	movff	___fltol@f1,??___fltol
  8998   003D9C  C00A  F00E         	movff	___fltol@f1+1,??___fltol+1
  8999   003DA0  C00B  F00F         	movff	___fltol@f1+2,??___fltol+2
  9000   003DA4  C00C  F010         	movff	___fltol@f1+3,??___fltol+3
  9001   003DA8  0E20               	movlw	32
  9002   003DAA  EFDC  F01E         	goto	u4700
  9003   003DAE                     u4705:
  9004   003DAE  90D8               	bcf	status,0,c
  9005   003DB0  3210               	rrcf	(??___fltol+3)^0,f,c
  9006   003DB2  320F               	rrcf	(??___fltol+2)^0,f,c
  9007   003DB4  320E               	rrcf	(??___fltol+1)^0,f,c
  9008   003DB6  320D               	rrcf	??___fltol^0,f,c
  9009   003DB8                     u4700:
  9010   003DB8  2EE8               	decfsz	wreg,f,c
  9011   003DBA  EFD7  F01E         	goto	u4705
  9012   003DBE  500D               	movf	??___fltol^0,w,c
  9013   003DC0  6E11               	movwf	___fltol@sign1^0,c
  9014   003DC2  8E0B               	bsf	(___fltol@f1+2)^0,7,c
  9015   003DC4  0EFF               	movlw	255
  9016   003DC6  1609               	andwf	___fltol@f1^0,f,c
  9017   003DC8  0EFF               	movlw	255
  9018   003DCA  160A               	andwf	(___fltol@f1+1)^0,f,c
  9019   003DCC  0EFF               	movlw	255
  9020   003DCE  160B               	andwf	(___fltol@f1+2)^0,f,c
  9021   003DD0  0E00               	movlw	0
  9022   003DD2  160C               	andwf	(___fltol@f1+3)^0,f,c
  9023   003DD4  0E96               	movlw	150
  9024   003DD6  5E12               	subwf	___fltol@exp1^0,f,c
  9025   003DD8  BE12               	btfsc	___fltol@exp1^0,7,c
  9026   003DDA  EFF3  F01E         	goto	u4710
  9027   003DDE  EFF1  F01E         	goto	u4711
  9028   003DE2                     u4711:
  9029   003DE2  EF09  F01F         	goto	l4057
  9030   003DE6                     u4710:
  9031   003DE6  5012               	movf	___fltol@exp1^0,w,c
  9032   003DE8  0A80               	xorlw	128
  9033   003DEA  0F97               	addlw	151
  9034   003DEC  B0D8               	btfsc	status,0,c
  9035   003DEE  EFFB  F01E         	goto	u4721
  9036   003DF2  EFFD  F01E         	goto	u4720
  9037   003DF6                     u4721:
  9038   003DF6  EFFF  F01E         	goto	l4053
  9039   003DFA                     u4720:
  9040   003DFA  EFC2  F01E         	goto	l4033
  9041   003DFE                     l4053:
  9042   003DFE  90D8               	bcf	status,0,c
  9043   003E00  320C               	rrcf	(___fltol@f1+3)^0,f,c
  9044   003E02  320B               	rrcf	(___fltol@f1+2)^0,f,c
  9045   003E04  320A               	rrcf	(___fltol@f1+1)^0,f,c
  9046   003E06  3209               	rrcf	___fltol@f1^0,f,c
  9047   003E08  3E12               	incfsz	___fltol@exp1^0,f,c
  9048   003E0A  EFFF  F01E         	goto	l4053
  9049   003E0E  EF21  F01F         	goto	l4067
  9050   003E12                     l4057:
  9051   003E12  0E1F               	movlw	31
  9052   003E14  6412               	cpfsgt	___fltol@exp1^0,c
  9053   003E16  EF0F  F01F         	goto	u4731
  9054   003E1A  EF11  F01F         	goto	u4730
  9055   003E1E                     u4731:
  9056   003E1E  EF19  F01F         	goto	l4065
  9057   003E22                     u4730:
  9058   003E22  EFC2  F01E         	goto	l4033
  9059   003E26                     l4063:
  9060   003E26  90D8               	bcf	status,0,c
  9061   003E28  3609               	rlcf	___fltol@f1^0,f,c
  9062   003E2A  360A               	rlcf	(___fltol@f1+1)^0,f,c
  9063   003E2C  360B               	rlcf	(___fltol@f1+2)^0,f,c
  9064   003E2E  360C               	rlcf	(___fltol@f1+3)^0,f,c
  9065   003E30  0612               	decf	___fltol@exp1^0,f,c
  9066   003E32                     l4065:
  9067   003E32  5012               	movf	___fltol@exp1^0,w,c
  9068   003E34  A4D8               	btfss	status,2,c
  9069   003E36  EF1F  F01F         	goto	u4741
  9070   003E3A  EF21  F01F         	goto	u4740
  9071   003E3E                     u4741:
  9072   003E3E  EF13  F01F         	goto	l4063
  9073   003E42                     u4740:
  9074   003E42                     l4067:
  9075   003E42  5011               	movf	___fltol@sign1^0,w,c
  9076   003E44  B4D8               	btfsc	status,2,c
  9077   003E46  EF27  F01F         	goto	u4751
  9078   003E4A  EF29  F01F         	goto	u4750
  9079   003E4E                     u4751:
  9080   003E4E  EF31  F01F         	goto	l4071
  9081   003E52                     u4750:
  9082   003E52  1E0C               	comf	(___fltol@f1+3)^0,f,c
  9083   003E54  1E0B               	comf	(___fltol@f1+2)^0,f,c
  9084   003E56  1E0A               	comf	(___fltol@f1+1)^0,f,c
  9085   003E58  6C09               	negf	___fltol@f1^0,c
  9086   003E5A  0E00               	movlw	0
  9087   003E5C  220A               	addwfc	(___fltol@f1+1)^0,f,c
  9088   003E5E  220B               	addwfc	(___fltol@f1+2)^0,f,c
  9089   003E60  220C               	addwfc	(___fltol@f1+3)^0,f,c
  9090   003E62                     l4071:
  9091   003E62  C009  F009         	movff	___fltol@f1,?___fltol
  9092   003E66  C00A  F00A         	movff	___fltol@f1+1,?___fltol+1
  9093   003E6A  C00B  F00B         	movff	___fltol@f1+2,?___fltol+2
  9094   003E6E  C00C  F00C         	movff	___fltol@f1+3,?___fltol+3
  9095   003E72                     l585:
  9096   003E72  0012               	return		;funcret
  9097   003E74                     __end_of___fltol:
  9098                           	callstack 0
  9099                           
  9100 ;; *************** function ___flsub *****************
  9101 ;; Defined at:
  9102 ;;		line 245 in file "C:\Program Files\Microchip\xc8\v3.10\pic\sources\c99\common\sprcadd.c"
  9103 ;; Parameters:    Size  Location     Type
  9104 ;;  b               4   55[COMRAM] long 
  9105 ;;  a               4   59[COMRAM] long 
  9106 ;; Auto vars:     Size  Location     Type
  9107 ;;		None
  9108 ;; Return value:  Size  Location     Type
  9109 ;;                  4   55[COMRAM] long 
  9110 ;; Registers used:
  9111 ;;		wreg, status,2, status,0, cstack
  9112 ;; Tracked objects:
  9113 ;;		On entry : 0/0
  9114 ;;		On exit  : 0/0
  9115 ;;		Unchanged: 0/0
  9116 ;; Data sizes:     COMRAM   BANK0   BANK1   BANK2   BANK3   BANK4   BANK5   BANK6   BANK7   BANK8   BANK9  BANK10  BANK1
      +1  BANK12
  9117 ;;      Params:         8       0       0       0       0       0       0       0       0       0       0       0       
      +0       0
  9118 ;;      Locals:         0       0       0       0       0       0       0       0       0       0       0       0       
      +0       0
  9119 ;;      Temps:          0       0       0       0       0       0       0       0       0       0       0       0       
      +0       0
  9120 ;;      Totals:         8       0       0       0       0       0       0       0       0       0       0       0       
      +0       0
  9121 ;;Total ram usage:        8 bytes
  9122 ;; Hardware stack levels used: 1
  9123 ;; This function calls:
  9124 ;;		___fladd
  9125 ;; This function is called by:
  9126 ;;		_ftoa
  9127 ;;		_main
  9128 ;;		_logf
  9129 ;; This function uses a non-reentrant model
  9130 ;;
  9131                           
  9132                           	psect	text26
  9133   004618                     __ptext26:
  9134                           	callstack 0
  9135   004618                     ___flsub:
  9136                           	callstack 29
  9137   004618  0E00               	movlw	0
  9138   00461A  1A3C               	xorwf	___flsub@a^0,f,c
  9139   00461C  0E00               	movlw	0
  9140   00461E  1A3D               	xorwf	(___flsub@a+1)^0,f,c
  9141   004620  0E00               	movlw	0
  9142   004622  1A3E               	xorwf	(___flsub@a+2)^0,f,c
  9143   004624  0E80               	movlw	128
  9144   004626  1A3F               	xorwf	(___flsub@a+3)^0,f,c
  9145   004628  C038  F028         	movff	___flsub@b,___fladd@b
  9146   00462C  C039  F029         	movff	___flsub@b+1,___fladd@b+1
  9147   004630  C03A  F02A         	movff	___flsub@b+2,___fladd@b+2
  9148   004634  C03B  F02B         	movff	___flsub@b+3,___fladd@b+3
  9149   004638  C03C  F02C         	movff	___flsub@a,___fladd@a
  9150   00463C  C03D  F02D         	movff	___flsub@a+1,___fladd@a+1
  9151   004640  C03E  F02E         	movff	___flsub@a+2,___fladd@a+2
  9152   004644  C03F  F02F         	movff	___flsub@a+3,___fladd@a+3
  9153   004648  EC2B  F013         	call	___fladd	;wreg free
  9154   00464C  C028  F038         	movff	?___fladd,?___flsub
  9155   004650  C029  F039         	movff	?___fladd+1,?___flsub+1
  9156   004654  C02A  F03A         	movff	?___fladd+2,?___flsub+2
  9157   004658  C02B  F03B         	movff	?___fladd+3,?___flsub+3
  9158   00465C  0012               	return		;funcret
  9159   00465E                     __end_of___flsub:
  9160                           	callstack 0
  9161                           
  9162 ;; *************** function ___fladd *****************
  9163 ;; Defined at:
  9164 ;;		line 10 in file "C:\Program Files\Microchip\xc8\v3.10\pic\sources\c99\common\sprcadd.c"
  9165 ;; Parameters:    Size  Location     Type
  9166 ;;  b               4   39[COMRAM] long 
  9167 ;;  a               4   43[COMRAM] long 
  9168 ;; Auto vars:     Size  Location     Type
  9169 ;;  grs             1   54[COMRAM] unsigned char 
  9170 ;;  bexp            1   53[COMRAM] unsigned char 
  9171 ;;  aexp            1   52[COMRAM] unsigned char 
  9172 ;;  signs           1   51[COMRAM] unsigned char 
  9173 ;; Return value:  Size  Location     Type
  9174 ;;                  4   39[COMRAM] unsigned char 
  9175 ;; Registers used:
  9176 ;;		wreg, status,2, status,0
  9177 ;; Tracked objects:
  9178 ;;		On entry : 0/0
  9179 ;;		On exit  : 0/0
  9180 ;;		Unchanged: 0/0
  9181 ;; Data sizes:     COMRAM   BANK0   BANK1   BANK2   BANK3   BANK4   BANK5   BANK6   BANK7   BANK8   BANK9  BANK10  BANK1
      +1  BANK12
  9182 ;;      Params:         8       0       0       0       0       0       0       0       0       0       0       0       
      +0       0
  9183 ;;      Locals:         4       0       0       0       0       0       0       0       0       0       0       0       
      +0       0
  9184 ;;      Temps:          4       0       0       0       0       0       0       0       0       0       0       0       
      +0       0
  9185 ;;      Totals:        16       0       0       0       0       0       0       0       0       0       0       0       
      +0       0
  9186 ;;Total ram usage:       16 bytes
  9187 ;; Hardware stack levels used: 1
  9188 ;; This function calls:
  9189 ;;		Nothing
  9190 ;; This function is called by:
  9191 ;;		_main
  9192 ;;		___flsub
  9193 ;;		_logf
  9194 ;; This function uses a non-reentrant model
  9195 ;;
  9196                           
  9197                           	psect	text27
  9198   002656                     __ptext27:
  9199                           	callstack 0
  9200   002656                     ___fladd:
  9201                           	callstack 28
  9202   002656  502B               	movf	(___fladd@b+3)^0,w,c
  9203   002658  0B80               	andlw	128
  9204   00265A  6E34               	movwf	___fladd@signs^0,c
  9205   00265C  502B               	movf	(___fladd@b+3)^0,w,c
  9206   00265E  242B               	addwf	(___fladd@b+3)^0,w,c
  9207   002660  6E36               	movwf	___fladd@bexp^0,c
  9208   002662  AE2A               	btfss	(___fladd@b+2)^0,7,c
  9209   002664  EF36  F013         	goto	u3861
  9210   002668  EF38  F013         	goto	u3860
  9211   00266C                     u3861:
  9212   00266C  EF39  F013         	goto	l3531
  9213   002670                     u3860:
  9214   002670  8036               	bsf	___fladd@bexp^0,0,c
  9215   002672                     l3531:
  9216   002672  5036               	movf	___fladd@bexp^0,w,c
  9217   002674  B4D8               	btfsc	status,2,c
  9218   002676  EF3F  F013         	goto	u3871
  9219   00267A  EF41  F013         	goto	u3870
  9220   00267E                     u3871:
  9221   00267E  EF55  F013         	goto	l3541
  9222   002682                     u3870:
  9223   002682  2836               	incf	___fladd@bexp^0,w,c
  9224   002684  A4D8               	btfss	status,2,c
  9225   002686  EF47  F013         	goto	u3881
  9226   00268A  EF49  F013         	goto	u3880
  9227   00268E                     u3881:
  9228   00268E  EF51  F013         	goto	l3537
  9229   002692                     u3880:
  9230   002692  0E00               	movlw	0
  9231   002694  6E28               	movwf	___fladd@b^0,c
  9232   002696  0E00               	movlw	0
  9233   002698  6E29               	movwf	(___fladd@b+1)^0,c
  9234   00269A  0E00               	movlw	0
  9235   00269C  6E2A               	movwf	(___fladd@b+2)^0,c
  9236   00269E  0E00               	movlw	0
  9237   0026A0  6E2B               	movwf	(___fladd@b+3)^0,c
  9238   0026A2                     l3537:
  9239   0026A2  8E2A               	bsf	(___fladd@b+2)^0,7,c
  9240   0026A4  6A2B               	clrf	(___fladd@b+3)^0,c
  9241   0026A6  EF5D  F013         	goto	l3543
  9242   0026AA                     l3541:
  9243   0026AA  0E00               	movlw	0
  9244   0026AC  6E28               	movwf	___fladd@b^0,c
  9245   0026AE  0E00               	movlw	0
  9246   0026B0  6E29               	movwf	(___fladd@b+1)^0,c
  9247   0026B2  0E00               	movlw	0
  9248   0026B4  6E2A               	movwf	(___fladd@b+2)^0,c
  9249   0026B6  0E00               	movlw	0
  9250   0026B8  6E2B               	movwf	(___fladd@b+3)^0,c
  9251   0026BA                     l3543:
  9252   0026BA  502F               	movf	(___fladd@a+3)^0,w,c
  9253   0026BC  0B80               	andlw	128
  9254   0026BE  6E35               	movwf	___fladd@aexp^0,c
  9255   0026C0  5034               	movf	___fladd@signs^0,w,c
  9256   0026C2  1835               	xorwf	___fladd@aexp^0,w,c
  9257   0026C4  B4D8               	btfsc	status,2,c
  9258   0026C6  EF67  F013         	goto	u3891
  9259   0026CA  EF69  F013         	goto	u3890
  9260   0026CE                     u3891:
  9261   0026CE  EF6A  F013         	goto	l3549
  9262   0026D2                     u3890:
  9263   0026D2  8C34               	bsf	___fladd@signs^0,6,c
  9264   0026D4                     l3549:
  9265   0026D4  502F               	movf	(___fladd@a+3)^0,w,c
  9266   0026D6  242F               	addwf	(___fladd@a+3)^0,w,c
  9267   0026D8  6E35               	movwf	___fladd@aexp^0,c
  9268   0026DA  AE2E               	btfss	(___fladd@a+2)^0,7,c
  9269   0026DC  EF72  F013         	goto	u3901
  9270   0026E0  EF74  F013         	goto	u3900
  9271   0026E4                     u3901:
  9272   0026E4  EF75  F013         	goto	l3555
  9273   0026E8                     u3900:
  9274   0026E8  8035               	bsf	___fladd@aexp^0,0,c
  9275   0026EA                     l3555:
  9276   0026EA  5035               	movf	___fladd@aexp^0,w,c
  9277   0026EC  B4D8               	btfsc	status,2,c
  9278   0026EE  EF7B  F013         	goto	u3911
  9279   0026F2  EF7D  F013         	goto	u3910
  9280   0026F6                     u3911:
  9281   0026F6  EF91  F013         	goto	l3565
  9282   0026FA                     u3910:
  9283   0026FA  2835               	incf	___fladd@aexp^0,w,c
  9284   0026FC  A4D8               	btfss	status,2,c
  9285   0026FE  EF83  F013         	goto	u3921
  9286   002702  EF85  F013         	goto	u3920
  9287   002706                     u3921:
  9288   002706  EF8D  F013         	goto	l3561
  9289   00270A                     u3920:
  9290   00270A  0E00               	movlw	0
  9291   00270C  6E2C               	movwf	___fladd@a^0,c
  9292   00270E  0E00               	movlw	0
  9293   002710  6E2D               	movwf	(___fladd@a+1)^0,c
  9294   002712  0E00               	movlw	0
  9295   002714  6E2E               	movwf	(___fladd@a+2)^0,c
  9296   002716  0E00               	movlw	0
  9297   002718  6E2F               	movwf	(___fladd@a+3)^0,c
  9298   00271A                     l3561:
  9299   00271A  8E2E               	bsf	(___fladd@a+2)^0,7,c
  9300   00271C  6A2F               	clrf	(___fladd@a+3)^0,c
  9301   00271E  EF99  F013         	goto	l3567
  9302   002722                     l3565:
  9303   002722  0E00               	movlw	0
  9304   002724  6E2C               	movwf	___fladd@a^0,c
  9305   002726  0E00               	movlw	0
  9306   002728  6E2D               	movwf	(___fladd@a+1)^0,c
  9307   00272A  0E00               	movlw	0
  9308   00272C  6E2E               	movwf	(___fladd@a+2)^0,c
  9309   00272E  0E00               	movlw	0
  9310   002730  6E2F               	movwf	(___fladd@a+3)^0,c
  9311   002732                     l3567:
  9312   002732  5036               	movf	___fladd@bexp^0,w,c
  9313   002734  5C35               	subwf	___fladd@aexp^0,w,c
  9314   002736  B0D8               	btfsc	status,0,c
  9315   002738  EFA0  F013         	goto	u3931
  9316   00273C  EFA2  F013         	goto	u3930
  9317   002740                     u3931:
  9318   002740  EFC9  F013         	goto	l3603
  9319   002744                     u3930:
  9320   002744  AC34               	btfss	___fladd@signs^0,6,c
  9321   002746  EFA7  F013         	goto	u3941
  9322   00274A  EFA9  F013         	goto	u3940
  9323   00274E                     u3941:
  9324   00274E  EFAB  F013         	goto	l3573
  9325   002752                     u3940:
  9326   002752  0E80               	movlw	128
  9327   002754  1A34               	xorwf	___fladd@signs^0,f,c
  9328   002756                     l3573:
  9329   002756  C036  F037         	movff	___fladd@bexp,___fladd@grs
  9330   00275A  C035  F036         	movff	___fladd@aexp,___fladd@bexp
  9331   00275E  C037  F035         	movff	___fladd@grs,___fladd@aexp
  9332   002762  C028  F037         	movff	___fladd@b,___fladd@grs
  9333   002766  C02C  F028         	movff	___fladd@a,___fladd@b
  9334   00276A  C037  F02C         	movff	___fladd@grs,___fladd@a
  9335   00276E  C029  F037         	movff	___fladd@b+1,___fladd@grs
  9336   002772  C02D  F029         	movff	___fladd@a+1,___fladd@b+1
  9337   002776  C037  F02D         	movff	___fladd@grs,___fladd@a+1
  9338   00277A  C02A  F037         	movff	___fladd@b+2,___fladd@grs
  9339   00277E  C02E  F02A         	movff	___fladd@a+2,___fladd@b+2
  9340   002782  C037  F02E         	movff	___fladd@grs,___fladd@a+2
  9341   002786  C02B  F037         	movff	___fladd@b+3,___fladd@grs
  9342   00278A  C02F  F02B         	movff	___fladd@a+3,___fladd@b+3
  9343   00278E  C037  F02F         	movff	___fladd@grs,___fladd@a+3
  9344   002792                     l3603:
  9345   002792  6A37               	clrf	___fladd@grs^0,c
  9346   002794  5036               	movf	___fladd@bexp^0,w,c
  9347   002796  C035  F030         	movff	___fladd@aexp,??___fladd
  9348   00279A  6A31               	clrf	(??___fladd+1)^0,c
  9349   00279C  5E30               	subwf	??___fladd^0,f,c
  9350   00279E  0E00               	movlw	0
  9351   0027A0  5A31               	subwfb	(??___fladd+1)^0,f,c
  9352   0027A2  BE31               	btfsc	(??___fladd+1)^0,7,c
  9353   0027A4  EFDD  F013         	goto	u3951
  9354   0027A8  5031               	movf	(??___fladd+1)^0,w,c
  9355   0027AA  E109               	bnz	u3950
  9356   0027AC  0E1A               	movlw	26
  9357   0027AE  5C30               	subwf	??___fladd^0,w,c
  9358   0027B0  A0D8               	btfss	status,0,c
  9359   0027B2  EFDD  F013         	goto	u3951
  9360   0027B6  EFDF  F013         	goto	u3950
  9361   0027BA                     u3951:
  9362   0027BA  EF16  F014         	goto	l817
  9363   0027BE                     u3950:
  9364   0027BE  5028               	movf	___fladd@b^0,w,c
  9365   0027C0  1029               	iorwf	(___fladd@b+1)^0,w,c
  9366   0027C2  102A               	iorwf	(___fladd@b+2)^0,w,c
  9367   0027C4  102B               	iorwf	(___fladd@b+3)^0,w,c
  9368   0027C6  A4D8               	btfss	status,2,c
  9369   0027C8  EFE8  F013         	goto	u3961
  9370   0027CC  EFEB  F013         	goto	u3960
  9371   0027D0                     u3961:
  9372   0027D0  0E01               	movlw	1
  9373   0027D2  EFEC  F013         	goto	u3970
  9374   0027D6                     u3960:
  9375   0027D6  0E00               	movlw	0
  9376   0027D8                     u3970:
  9377   0027D8  6E37               	movwf	___fladd@grs^0,c
  9378   0027DA  0E00               	movlw	0
  9379   0027DC  6E28               	movwf	___fladd@b^0,c
  9380   0027DE  0E00               	movlw	0
  9381   0027E0  6E29               	movwf	(___fladd@b+1)^0,c
  9382   0027E2  0E00               	movlw	0
  9383   0027E4  6E2A               	movwf	(___fladd@b+2)^0,c
  9384   0027E6  0E00               	movlw	0
  9385   0027E8  6E2B               	movwf	(___fladd@b+3)^0,c
  9386   0027EA  C035  F036         	movff	___fladd@aexp,___fladd@bexp
  9387   0027EE  EF1F  F014         	goto	l816
  9388   0027F2                     l818:
  9389   0027F2  A037               	btfss	___fladd@grs^0,0,c
  9390   0027F4  EFFE  F013         	goto	u3981
  9391   0027F8  EF00  F014         	goto	u3980
  9392   0027FC                     u3981:
  9393   0027FC  EF06  F014         	goto	l3613
  9394   002800                     u3980:
  9395   002800  90D8               	bcf	status,0,c
  9396   002802  3037               	rrcf	___fladd@grs^0,w,c
  9397   002804  0901               	iorlw	1
  9398   002806  6E37               	movwf	___fladd@grs^0,c
  9399   002808  EF08  F014         	goto	l3615
  9400   00280C                     l3613:
  9401   00280C  90D8               	bcf	status,0,c
  9402   00280E  3237               	rrcf	___fladd@grs^0,f,c
  9403   002810                     l3615:
  9404   002810  A028               	btfss	___fladd@b^0,0,c
  9405   002812  EF0D  F014         	goto	u3991
  9406   002816  EF0F  F014         	goto	u3990
  9407   00281A                     u3991:
  9408   00281A  EF10  F014         	goto	l3619
  9409   00281E                     u3990:
  9410   00281E  8E37               	bsf	___fladd@grs^0,7,c
  9411   002820                     l3619:
  9412   002820  342B               	rlcf	(___fladd@b+3)^0,w,c
  9413   002822  322B               	rrcf	(___fladd@b+3)^0,f,c
  9414   002824  322A               	rrcf	(___fladd@b+2)^0,f,c
  9415   002826  3229               	rrcf	(___fladd@b+1)^0,f,c
  9416   002828  3228               	rrcf	___fladd@b^0,f,c
  9417   00282A  2A36               	incf	___fladd@bexp^0,f,c
  9418   00282C                     l817:
  9419   00282C  5035               	movf	___fladd@aexp^0,w,c
  9420   00282E  5C36               	subwf	___fladd@bexp^0,w,c
  9421   002830  A0D8               	btfss	status,0,c
  9422   002832  EF1D  F014         	goto	u4001
  9423   002836  EF1F  F014         	goto	u4000
  9424   00283A                     u4001:
  9425   00283A  EFF9  F013         	goto	l818
  9426   00283E                     u4000:
  9427   00283E                     l816:
  9428   00283E  BC34               	btfsc	___fladd@signs^0,6,c
  9429   002840  EF24  F014         	goto	u4011
  9430   002844  EF26  F014         	goto	u4010
  9431   002848                     u4011:
  9432   002848  EF66  F014         	goto	l3647
  9433   00284C                     u4010:
  9434   00284C  5036               	movf	___fladd@bexp^0,w,c
  9435   00284E  A4D8               	btfss	status,2,c
  9436   002850  EF2C  F014         	goto	u4021
  9437   002854  EF2E  F014         	goto	u4020
  9438   002858                     u4021:
  9439   002858  EF38  F014         	goto	l3629
  9440   00285C                     u4020:
  9441   00285C  0E00               	movlw	0
  9442   00285E  6E28               	movwf	?___fladd^0,c
  9443   002860  0E00               	movlw	0
  9444   002862  6E29               	movwf	(?___fladd+1)^0,c
  9445   002864  0E00               	movlw	0
  9446   002866  6E2A               	movwf	(?___fladd+2)^0,c
  9447   002868  0E00               	movlw	0
  9448   00286A  6E2B               	movwf	(?___fladd+3)^0,c
  9449   00286C  EF85  F015         	goto	l825
  9450   002870                     l3629:
  9451   002870  502C               	movf	___fladd@a^0,w,c
  9452   002872  2628               	addwf	___fladd@b^0,f,c
  9453   002874  502D               	movf	(___fladd@a+1)^0,w,c
  9454   002876  2229               	addwfc	(___fladd@b+1)^0,f,c
  9455   002878  502E               	movf	(___fladd@a+2)^0,w,c
  9456   00287A  222A               	addwfc	(___fladd@b+2)^0,f,c
  9457   00287C  502F               	movf	(___fladd@a+3)^0,w,c
  9458   00287E  222B               	addwfc	(___fladd@b+3)^0,f,c
  9459   002880  A02B               	btfss	(___fladd@b+3)^0,0,c
  9460   002882  EF45  F014         	goto	u4031
  9461   002886  EF47  F014         	goto	u4030
  9462   00288A                     u4031:
  9463   00288A  EFF3  F014         	goto	l830
  9464   00288E                     u4030:
  9465   00288E  A037               	btfss	___fladd@grs^0,0,c
  9466   002890  EF4C  F014         	goto	u4041
  9467   002894  EF4E  F014         	goto	u4040
  9468   002898                     u4041:
  9469   002898  EF54  F014         	goto	l3637
  9470   00289C                     u4040:
  9471   00289C  90D8               	bcf	status,0,c
  9472   00289E  3037               	rrcf	___fladd@grs^0,w,c
  9473   0028A0  0901               	iorlw	1
  9474   0028A2  6E37               	movwf	___fladd@grs^0,c
  9475   0028A4  EF56  F014         	goto	l3639
  9476   0028A8                     l3637:
  9477   0028A8  90D8               	bcf	status,0,c
  9478   0028AA  3237               	rrcf	___fladd@grs^0,f,c
  9479   0028AC                     l3639:
  9480   0028AC  A028               	btfss	___fladd@b^0,0,c
  9481   0028AE  EF5B  F014         	goto	u4051
  9482   0028B2  EF5D  F014         	goto	u4050
  9483   0028B6                     u4051:
  9484   0028B6  EF5E  F014         	goto	l3643
  9485   0028BA                     u4050:
  9486   0028BA  8E37               	bsf	___fladd@grs^0,7,c
  9487   0028BC                     l3643:
  9488   0028BC  342B               	rlcf	(___fladd@b+3)^0,w,c
  9489   0028BE  322B               	rrcf	(___fladd@b+3)^0,f,c
  9490   0028C0  322A               	rrcf	(___fladd@b+2)^0,f,c
  9491   0028C2  3229               	rrcf	(___fladd@b+1)^0,f,c
  9492   0028C4  3228               	rrcf	___fladd@b^0,f,c
  9493   0028C6  2A36               	incf	___fladd@bexp^0,f,c
  9494   0028C8  EFF3  F014         	goto	l830
  9495   0028CC                     l3647:
  9496   0028CC  502C               	movf	___fladd@a^0,w,c
  9497   0028CE  5C28               	subwf	___fladd@b^0,w,c
  9498   0028D0  502D               	movf	(___fladd@a+1)^0,w,c
  9499   0028D2  5829               	subwfb	(___fladd@b+1)^0,w,c
  9500   0028D4  502E               	movf	(___fladd@a+2)^0,w,c
  9501   0028D6  582A               	subwfb	(___fladd@b+2)^0,w,c
  9502   0028D8  502B               	movf	(___fladd@b+3)^0,w,c
  9503   0028DA  0A80               	xorlw	128
  9504   0028DC  6E30               	movwf	??___fladd^0,c
  9505   0028DE  502F               	movf	(___fladd@a+3)^0,w,c
  9506   0028E0  0A80               	xorlw	128
  9507   0028E2  5830               	subwfb	??___fladd^0,w,c
  9508   0028E4  B0D8               	btfsc	status,0,c
  9509   0028E6  EF77  F014         	goto	u4061
  9510   0028EA  EF79  F014         	goto	u4060
  9511   0028EE                     u4061:
  9512   0028EE  EFA4  F014         	goto	l3657
  9513   0028F2                     u4060:
  9514   0028F2  5028               	movf	___fladd@b^0,w,c
  9515   0028F4  5C2C               	subwf	___fladd@a^0,w,c
  9516   0028F6  6E30               	movwf	??___fladd^0,c
  9517   0028F8  5029               	movf	(___fladd@b+1)^0,w,c
  9518   0028FA  582D               	subwfb	(___fladd@a+1)^0,w,c
  9519   0028FC  6E31               	movwf	(??___fladd+1)^0,c
  9520   0028FE  502A               	movf	(___fladd@b+2)^0,w,c
  9521   002900  582E               	subwfb	(___fladd@a+2)^0,w,c
  9522   002902  6E32               	movwf	(??___fladd+2)^0,c
  9523   002904  502B               	movf	(___fladd@b+3)^0,w,c
  9524   002906  582F               	subwfb	(___fladd@a+3)^0,w,c
  9525   002908  6E33               	movwf	(??___fladd+3)^0,c
  9526   00290A  0EFF               	movlw	255
  9527   00290C  2430               	addwf	??___fladd^0,w,c
  9528   00290E  6E28               	movwf	___fladd@b^0,c
  9529   002910  0EFF               	movlw	255
  9530   002912  2031               	addwfc	(??___fladd+1)^0,w,c
  9531   002914  6E29               	movwf	(___fladd@b+1)^0,c
  9532   002916  0EFF               	movlw	255
  9533   002918  2032               	addwfc	(??___fladd+2)^0,w,c
  9534   00291A  6E2A               	movwf	(___fladd@b+2)^0,c
  9535   00291C  0EFF               	movlw	255
  9536   00291E  2033               	addwfc	(??___fladd+3)^0,w,c
  9537   002920  6E2B               	movwf	(___fladd@b+3)^0,c
  9538   002922  0E80               	movlw	128
  9539   002924  1A34               	xorwf	___fladd@signs^0,f,c
  9540   002926  6C37               	negf	___fladd@grs^0,c
  9541   002928  5037               	movf	___fladd@grs^0,w,c
  9542   00292A  A4D8               	btfss	status,2,c
  9543   00292C  EF9A  F014         	goto	u4071
  9544   002930  EF9C  F014         	goto	u4070
  9545   002934                     u4071:
  9546   002934  EFAC  F014         	goto	l833
  9547   002938                     u4070:
  9548   002938  0E01               	movlw	1
  9549   00293A  2628               	addwf	___fladd@b^0,f,c
  9550   00293C  0E00               	movlw	0
  9551   00293E  2229               	addwfc	(___fladd@b+1)^0,f,c
  9552   002940  222A               	addwfc	(___fladd@b+2)^0,f,c
  9553   002942  222B               	addwfc	(___fladd@b+3)^0,f,c
  9554   002944  EFAC  F014         	goto	l833
  9555   002948                     l3657:
  9556   002948  502C               	movf	___fladd@a^0,w,c
  9557   00294A  5E28               	subwf	___fladd@b^0,f,c
  9558   00294C  502D               	movf	(___fladd@a+1)^0,w,c
  9559   00294E  5A29               	subwfb	(___fladd@b+1)^0,f,c
  9560   002950  502E               	movf	(___fladd@a+2)^0,w,c
  9561   002952  5A2A               	subwfb	(___fladd@b+2)^0,f,c
  9562   002954  502F               	movf	(___fladd@a+3)^0,w,c
  9563   002956  5A2B               	subwfb	(___fladd@b+3)^0,f,c
  9564   002958                     l833:
  9565   002958  5028               	movf	___fladd@b^0,w,c
  9566   00295A  1029               	iorwf	(___fladd@b+1)^0,w,c
  9567   00295C  102A               	iorwf	(___fladd@b+2)^0,w,c
  9568   00295E  102B               	iorwf	(___fladd@b+3)^0,w,c
  9569   002960  A4D8               	btfss	status,2,c
  9570   002962  EFB5  F014         	goto	u4081
  9571   002966  EFB7  F014         	goto	u4080
  9572   00296A                     u4081:
  9573   00296A  EFEC  F014         	goto	l3681
  9574   00296E                     u4080:
  9575   00296E  5037               	movf	___fladd@grs^0,w,c
  9576   002970  A4D8               	btfss	status,2,c
  9577   002972  EFBD  F014         	goto	u4091
  9578   002976  EFBF  F014         	goto	u4090
  9579   00297A                     u4091:
  9580   00297A  EFEC  F014         	goto	l3681
  9581   00297E                     u4090:
  9582   00297E  0E00               	movlw	0
  9583   002980  6E28               	movwf	?___fladd^0,c
  9584   002982  0E00               	movlw	0
  9585   002984  6E29               	movwf	(?___fladd+1)^0,c
  9586   002986  0E00               	movlw	0
  9587   002988  6E2A               	movwf	(?___fladd+2)^0,c
  9588   00298A  0E00               	movlw	0
  9589   00298C  6E2B               	movwf	(?___fladd+3)^0,c
  9590   00298E  EF85  F015         	goto	l825
  9591   002992                     l3665:
  9592   002992  90D8               	bcf	status,0,c
  9593   002994  3628               	rlcf	___fladd@b^0,f,c
  9594   002996  3629               	rlcf	(___fladd@b+1)^0,f,c
  9595   002998  362A               	rlcf	(___fladd@b+2)^0,f,c
  9596   00299A  362B               	rlcf	(___fladd@b+3)^0,f,c
  9597   00299C  AE37               	btfss	___fladd@grs^0,7,c
  9598   00299E  EFD3  F014         	goto	u4101
  9599   0029A2  EFD5  F014         	goto	u4100
  9600   0029A6                     u4101:
  9601   0029A6  EFD6  F014         	goto	l3671
  9602   0029AA                     u4100:
  9603   0029AA  8028               	bsf	___fladd@b^0,0,c
  9604   0029AC                     l3671:
  9605   0029AC  A037               	btfss	___fladd@grs^0,0,c
  9606   0029AE  EFDB  F014         	goto	u4111
  9607   0029B2  EFDD  F014         	goto	u4110
  9608   0029B6                     u4111:
  9609   0029B6  EFE1  F014         	goto	l3675
  9610   0029BA                     u4110:
  9611   0029BA  80D8               	bsf	status,0,c
  9612   0029BC  3637               	rlcf	___fladd@grs^0,f,c
  9613   0029BE  EFE3  F014         	goto	l3677
  9614   0029C2                     l3675:
  9615   0029C2  90D8               	bcf	status,0,c
  9616   0029C4  3637               	rlcf	___fladd@grs^0,f,c
  9617   0029C6                     l3677:
  9618   0029C6  5036               	movf	___fladd@bexp^0,w,c
  9619   0029C8  B4D8               	btfsc	status,2,c
  9620   0029CA  EFE9  F014         	goto	u4121
  9621   0029CE  EFEB  F014         	goto	u4120
  9622   0029D2                     u4121:
  9623   0029D2  EFEC  F014         	goto	l3681
  9624   0029D6                     u4120:
  9625   0029D6  0636               	decf	___fladd@bexp^0,f,c
  9626   0029D8                     l3681:
  9627   0029D8  AE2A               	btfss	(___fladd@b+2)^0,7,c
  9628   0029DA  EFF1  F014         	goto	u4131
  9629   0029DE  EFF3  F014         	goto	u4130
  9630   0029E2                     u4131:
  9631   0029E2  EFC9  F014         	goto	l3665
  9632   0029E6                     u4130:
  9633   0029E6                     l830:
  9634   0029E6  6A35               	clrf	___fladd@aexp^0,c
  9635   0029E8  AE37               	btfss	___fladd@grs^0,7,c
  9636   0029EA  EFF9  F014         	goto	u4141
  9637   0029EE  EFFB  F014         	goto	u4140
  9638   0029F2                     u4141:
  9639   0029F2  EF13  F015         	goto	l842
  9640   0029F6                     u4140:
  9641   0029F6  C037  F030         	movff	___fladd@grs,??___fladd
  9642   0029FA  0E7F               	movlw	127
  9643   0029FC  1630               	andwf	??___fladd^0,f,c
  9644   0029FE  B4D8               	btfsc	status,2,c
  9645   002A00  EF04  F015         	goto	u4151
  9646   002A04  EF06  F015         	goto	u4150
  9647   002A08                     u4151:
  9648   002A08  EF0A  F015         	goto	l843
  9649   002A0C                     u4150:
  9650   002A0C                     l3685:
  9651   002A0C  0E01               	movlw	1
  9652   002A0E  6E35               	movwf	___fladd@aexp^0,c
  9653   002A10  EF13  F015         	goto	l842
  9654   002A14                     l843:
  9655   002A14  A028               	btfss	___fladd@b^0,0,c
  9656   002A16  EF0F  F015         	goto	u4161
  9657   002A1A  EF11  F015         	goto	u4160
  9658   002A1E                     u4161:
  9659   002A1E  EF13  F015         	goto	l842
  9660   002A22                     u4160:
  9661   002A22  EF06  F015         	goto	l3685
  9662   002A26                     l842:
  9663   002A26  5035               	movf	___fladd@aexp^0,w,c
  9664   002A28  B4D8               	btfsc	status,2,c
  9665   002A2A  EF19  F015         	goto	u4171
  9666   002A2E  EF1B  F015         	goto	u4170
  9667   002A32                     u4171:
  9668   002A32  EF46  F015         	goto	l3697
  9669   002A36                     u4170:
  9670   002A36  0E01               	movlw	1
  9671   002A38  2628               	addwf	___fladd@b^0,f,c
  9672   002A3A  0E00               	movlw	0
  9673   002A3C  2229               	addwfc	(___fladd@b+1)^0,f,c
  9674   002A3E  222A               	addwfc	(___fladd@b+2)^0,f,c
  9675   002A40  222B               	addwfc	(___fladd@b+3)^0,f,c
  9676   002A42  A02B               	btfss	(___fladd@b+3)^0,0,c
  9677   002A44  EF26  F015         	goto	u4181
  9678   002A48  EF28  F015         	goto	u4180
  9679   002A4C                     u4181:
  9680   002A4C  EF46  F015         	goto	l3697
  9681   002A50                     u4180:
  9682   002A50  C028  F030         	movff	___fladd@b,??___fladd
  9683   002A54  C029  F031         	movff	___fladd@b+1,??___fladd+1
  9684   002A58  C02A  F032         	movff	___fladd@b+2,??___fladd+2
  9685   002A5C  C02B  F033         	movff	___fladd@b+3,??___fladd+3
  9686   002A60  3433               	rlcf	(??___fladd+3)^0,w,c
  9687   002A62  3233               	rrcf	(??___fladd+3)^0,f,c
  9688   002A64  3232               	rrcf	(??___fladd+2)^0,f,c
  9689   002A66  3231               	rrcf	(??___fladd+1)^0,f,c
  9690   002A68  3230               	rrcf	??___fladd^0,f,c
  9691   002A6A  C030  F028         	movff	??___fladd,___fladd@b
  9692   002A6E  C031  F029         	movff	??___fladd+1,___fladd@b+1
  9693   002A72  C032  F02A         	movff	??___fladd+2,___fladd@b+2
  9694   002A76  C033  F02B         	movff	??___fladd+3,___fladd@b+3
  9695   002A7A  2836               	incf	___fladd@bexp^0,w,c
  9696   002A7C  B4D8               	btfsc	status,2,c
  9697   002A7E  EF43  F015         	goto	u4191
  9698   002A82  EF45  F015         	goto	u4190
  9699   002A86                     u4191:
  9700   002A86  EF46  F015         	goto	l3697
  9701   002A8A                     u4190:
  9702   002A8A  2A36               	incf	___fladd@bexp^0,f,c
  9703   002A8C                     l3697:
  9704   002A8C  2836               	incf	___fladd@bexp^0,w,c
  9705   002A8E  B4D8               	btfsc	status,2,c
  9706   002A90  EF4C  F015         	goto	u4201
  9707   002A94  EF4E  F015         	goto	u4200
  9708   002A98                     u4201:
  9709   002A98  EF56  F015         	goto	l3701
  9710   002A9C                     u4200:
  9711   002A9C  5036               	movf	___fladd@bexp^0,w,c
  9712   002A9E  A4D8               	btfss	status,2,c
  9713   002AA0  EF54  F015         	goto	u4211
  9714   002AA4  EF56  F015         	goto	u4210
  9715   002AA8                     u4211:
  9716   002AA8  EF67  F015         	goto	l849
  9717   002AAC                     u4210:
  9718   002AAC                     l3701:
  9719   002AAC  0E00               	movlw	0
  9720   002AAE  6E28               	movwf	___fladd@b^0,c
  9721   002AB0  0E00               	movlw	0
  9722   002AB2  6E29               	movwf	(___fladd@b+1)^0,c
  9723   002AB4  0E00               	movlw	0
  9724   002AB6  6E2A               	movwf	(___fladd@b+2)^0,c
  9725   002AB8  0E00               	movlw	0
  9726   002ABA  6E2B               	movwf	(___fladd@b+3)^0,c
  9727   002ABC  5036               	movf	___fladd@bexp^0,w,c
  9728   002ABE  A4D8               	btfss	status,2,c
  9729   002AC0  EF64  F015         	goto	u4221
  9730   002AC4  EF66  F015         	goto	u4220
  9731   002AC8                     u4221:
  9732   002AC8  EF67  F015         	goto	l849
  9733   002ACC                     u4220:
  9734   002ACC  6A34               	clrf	___fladd@signs^0,c
  9735   002ACE                     l849:
  9736   002ACE  A036               	btfss	___fladd@bexp^0,0,c
  9737   002AD0  EF6C  F015         	goto	u4231
  9738   002AD4  EF6E  F015         	goto	u4230
  9739   002AD8                     u4231:
  9740   002AD8  EF71  F015         	goto	l3707
  9741   002ADC                     u4230:
  9742   002ADC  8E2A               	bsf	(___fladd@b+2)^0,7,c
  9743   002ADE  EF72  F015         	goto	l3709
  9744   002AE2                     l3707:
  9745   002AE2  9E2A               	bcf	(___fladd@b+2)^0,7,c
  9746   002AE4                     l3709:
  9747   002AE4  90D8               	bcf	status,0,c
  9748   002AE6  3036               	rrcf	___fladd@bexp^0,w,c
  9749   002AE8  6E2B               	movwf	(___fladd@b+3)^0,c
  9750   002AEA  AE34               	btfss	___fladd@signs^0,7,c
  9751   002AEC  EF7A  F015         	goto	u4241
  9752   002AF0  EF7C  F015         	goto	u4240
  9753   002AF4                     u4241:
  9754   002AF4  EF7D  F015         	goto	l3715
  9755   002AF8                     u4240:
  9756   002AF8  8E2B               	bsf	(___fladd@b+3)^0,7,c
  9757   002AFA                     l3715:
  9758   002AFA  C028  F028         	movff	___fladd@b,?___fladd
  9759   002AFE  C029  F029         	movff	___fladd@b+1,?___fladd+1
  9760   002B02  C02A  F02A         	movff	___fladd@b+2,?___fladd+2
  9761   002B06  C02B  F02B         	movff	___fladd@b+3,?___fladd+3
  9762   002B0A                     l825:
  9763   002B0A  0012               	return		;funcret
  9764   002B0C                     __end_of___fladd:
  9765                           	callstack 0
  9766                           
  9767 ;; *************** function ___flmul *****************
  9768 ;; Defined at:
  9769 ;;		line 8 in file "C:\Program Files\Microchip\xc8\v3.10\pic\sources\c99\common\sprcmul.c"
  9770 ;; Parameters:    Size  Location     Type
  9771 ;;  b               4   14[COMRAM] unsigned char 
  9772 ;;  a               4   18[COMRAM] unsigned char 
  9773 ;; Auto vars:     Size  Location     Type
  9774 ;;  prod            4   33[COMRAM] struct .
  9775 ;;  grs             4   27[COMRAM] unsigned long 
  9776 ;;  temp            2   37[COMRAM] struct .
  9777 ;;  bexp            1   32[COMRAM] unsigned char 
  9778 ;;  aexp            1   31[COMRAM] unsigned char 
  9779 ;;  sign            1   26[COMRAM] unsigned char 
  9780 ;; Return value:  Size  Location     Type
  9781 ;;                  4   14[COMRAM] unsigned char 
  9782 ;; Registers used:
  9783 ;;		wreg, status,2, status,0, prodl, prodh
  9784 ;; Tracked objects:
  9785 ;;		On entry : 0/0
  9786 ;;		On exit  : 0/0
  9787 ;;		Unchanged: 0/0
  9788 ;; Data sizes:     COMRAM   BANK0   BANK1   BANK2   BANK3   BANK4   BANK5   BANK6   BANK7   BANK8   BANK9  BANK10  BANK1
      +1  BANK12
  9789 ;;      Params:         8       0       0       0       0       0       0       0       0       0       0       0       
      +0       0
  9790 ;;      Locals:        13       0       0       0       0       0       0       0       0       0       0       0       
      +0       0
  9791 ;;      Temps:          4       0       0       0       0       0       0       0       0       0       0       0       
      +0       0
  9792 ;;      Totals:        25       0       0       0       0       0       0       0       0       0       0       0       
      +0       0
  9793 ;;Total ram usage:       25 bytes
  9794 ;; Hardware stack levels used: 1
  9795 ;; This function calls:
  9796 ;;		Nothing
  9797 ;; This function is called by:
  9798 ;;		_ftoa
  9799 ;;		_main
  9800 ;;		_logf
  9801 ;; This function uses a non-reentrant model
  9802 ;;
  9803                           
  9804                           	psect	text28
  9805   002B0C                     __ptext28:
  9806                           	callstack 0
  9807   002B0C                     ___flmul:
  9808                           	callstack 29
  9809   002B0C  5012               	movf	(___flmul@b+3)^0,w,c
  9810   002B0E  0B80               	andlw	128
  9811   002B10  6E1B               	movwf	___flmul@sign^0,c
  9812   002B12  5012               	movf	(___flmul@b+3)^0,w,c
  9813   002B14  2412               	addwf	(___flmul@b+3)^0,w,c
  9814   002B16  6E21               	movwf	___flmul@bexp^0,c
  9815   002B18  AE11               	btfss	(___flmul@b+2)^0,7,c
  9816   002B1A  EF91  F015         	goto	u4501
  9817   002B1E  EF93  F015         	goto	u4500
  9818   002B22                     u4501:
  9819   002B22  EF94  F015         	goto	l3903
  9820   002B26                     u4500:
  9821   002B26  8021               	bsf	___flmul@bexp^0,0,c
  9822   002B28                     l3903:
  9823   002B28  5021               	movf	___flmul@bexp^0,w,c
  9824   002B2A  B4D8               	btfsc	status,2,c
  9825   002B2C  EF9A  F015         	goto	u4511
  9826   002B30  EF9C  F015         	goto	u4510
  9827   002B34                     u4511:
  9828   002B34  EFAF  F015         	goto	l3911
  9829   002B38                     u4510:
  9830   002B38  2821               	incf	___flmul@bexp^0,w,c
  9831   002B3A  A4D8               	btfss	status,2,c
  9832   002B3C  EFA2  F015         	goto	u4521
  9833   002B40  EFA4  F015         	goto	u4520
  9834   002B44                     u4521:
  9835   002B44  EFAC  F015         	goto	l3909
  9836   002B48                     u4520:
  9837   002B48  0E00               	movlw	0
  9838   002B4A  6E0F               	movwf	___flmul@b^0,c
  9839   002B4C  0E00               	movlw	0
  9840   002B4E  6E10               	movwf	(___flmul@b+1)^0,c
  9841   002B50  0E00               	movlw	0
  9842   002B52  6E11               	movwf	(___flmul@b+2)^0,c
  9843   002B54  0E00               	movlw	0
  9844   002B56  6E12               	movwf	(___flmul@b+3)^0,c
  9845   002B58                     l3909:
  9846   002B58  8E11               	bsf	(___flmul@b+2)^0,7,c
  9847   002B5A  EFB7  F015         	goto	l3913
  9848   002B5E                     l3911:
  9849   002B5E  0E00               	movlw	0
  9850   002B60  6E0F               	movwf	___flmul@b^0,c
  9851   002B62  0E00               	movlw	0
  9852   002B64  6E10               	movwf	(___flmul@b+1)^0,c
  9853   002B66  0E00               	movlw	0
  9854   002B68  6E11               	movwf	(___flmul@b+2)^0,c
  9855   002B6A  0E00               	movlw	0
  9856   002B6C  6E12               	movwf	(___flmul@b+3)^0,c
  9857   002B6E                     l3913:
  9858   002B6E  5016               	movf	(___flmul@a+3)^0,w,c
  9859   002B70  0B80               	andlw	128
  9860   002B72  1A1B               	xorwf	___flmul@sign^0,f,c
  9861   002B74  5016               	movf	(___flmul@a+3)^0,w,c
  9862   002B76  2416               	addwf	(___flmul@a+3)^0,w,c
  9863   002B78  6E20               	movwf	___flmul@aexp^0,c
  9864   002B7A  AE15               	btfss	(___flmul@a+2)^0,7,c
  9865   002B7C  EFC2  F015         	goto	u4531
  9866   002B80  EFC4  F015         	goto	u4530
  9867   002B84                     u4531:
  9868   002B84  EFC5  F015         	goto	l3921
  9869   002B88                     u4530:
  9870   002B88  8020               	bsf	___flmul@aexp^0,0,c
  9871   002B8A                     l3921:
  9872   002B8A  5020               	movf	___flmul@aexp^0,w,c
  9873   002B8C  B4D8               	btfsc	status,2,c
  9874   002B8E  EFCB  F015         	goto	u4541
  9875   002B92  EFCD  F015         	goto	u4540
  9876   002B96                     u4541:
  9877   002B96  EFE0  F015         	goto	l3929
  9878   002B9A                     u4540:
  9879   002B9A  2820               	incf	___flmul@aexp^0,w,c
  9880   002B9C  A4D8               	btfss	status,2,c
  9881   002B9E  EFD3  F015         	goto	u4551
  9882   002BA2  EFD5  F015         	goto	u4550
  9883   002BA6                     u4551:
  9884   002BA6  EFDD  F015         	goto	l3927
  9885   002BAA                     u4550:
  9886   002BAA  0E00               	movlw	0
  9887   002BAC  6E13               	movwf	___flmul@a^0,c
  9888   002BAE  0E00               	movlw	0
  9889   002BB0  6E14               	movwf	(___flmul@a+1)^0,c
  9890   002BB2  0E00               	movlw	0
  9891   002BB4  6E15               	movwf	(___flmul@a+2)^0,c
  9892   002BB6  0E00               	movlw	0
  9893   002BB8  6E16               	movwf	(___flmul@a+3)^0,c
  9894   002BBA                     l3927:
  9895   002BBA  8E15               	bsf	(___flmul@a+2)^0,7,c
  9896   002BBC  EFE8  F015         	goto	l902
  9897   002BC0                     l3929:
  9898   002BC0  0E00               	movlw	0
  9899   002BC2  6E13               	movwf	___flmul@a^0,c
  9900   002BC4  0E00               	movlw	0
  9901   002BC6  6E14               	movwf	(___flmul@a+1)^0,c
  9902   002BC8  0E00               	movlw	0
  9903   002BCA  6E15               	movwf	(___flmul@a+2)^0,c
  9904   002BCC  0E00               	movlw	0
  9905   002BCE  6E16               	movwf	(___flmul@a+3)^0,c
  9906   002BD0                     l902:
  9907   002BD0  5020               	movf	___flmul@aexp^0,w,c
  9908   002BD2  B4D8               	btfsc	status,2,c
  9909   002BD4  EFEE  F015         	goto	u4561
  9910   002BD8  EFF0  F015         	goto	u4560
  9911   002BDC                     u4561:
  9912   002BDC  EFF8  F015         	goto	l3933
  9913   002BE0                     u4560:
  9914   002BE0  5021               	movf	___flmul@bexp^0,w,c
  9915   002BE2  A4D8               	btfss	status,2,c
  9916   002BE4  EFF6  F015         	goto	u4571
  9917   002BE8  EFF8  F015         	goto	u4570
  9918   002BEC                     u4571:
  9919   002BEC  EF02  F016         	goto	l3937
  9920   002BF0                     u4570:
  9921   002BF0                     l3933:
  9922   002BF0  0E00               	movlw	0
  9923   002BF2  6E0F               	movwf	?___flmul^0,c
  9924   002BF4  0E00               	movlw	0
  9925   002BF6  6E10               	movwf	(?___flmul+1)^0,c
  9926   002BF8  0E00               	movlw	0
  9927   002BFA  6E11               	movwf	(?___flmul+2)^0,c
  9928   002BFC  0E00               	movlw	0
  9929   002BFE  6E12               	movwf	(?___flmul+3)^0,c
  9930   002C00  EF98  F017         	goto	l906
  9931   002C04                     l3937:
  9932   002C04  5015               	movf	(___flmul@a+2)^0,w,c
  9933   002C06  020F               	mulwf	___flmul@b^0,c
  9934   002C08  CFF3 F026          	movff	prodl,___flmul@temp
  9935   002C0C  CFF4 F027          	movff	prodh,___flmul@temp+1
  9936   002C10  5026               	movf	___flmul@temp^0,w,c
  9937   002C12  6E1C               	movwf	___flmul@grs^0,c
  9938   002C14  6A1D               	clrf	(___flmul@grs+1)^0,c
  9939   002C16  6A1E               	clrf	(___flmul@grs+2)^0,c
  9940   002C18  6A1F               	clrf	(___flmul@grs+3)^0,c
  9941   002C1A  5027               	movf	(___flmul@temp+1)^0,w,c
  9942   002C1C  6E22               	movwf	___flmul@prod^0,c
  9943   002C1E  6A23               	clrf	(___flmul@prod+1)^0,c
  9944   002C20  6A24               	clrf	(___flmul@prod+2)^0,c
  9945   002C22  6A25               	clrf	(___flmul@prod+3)^0,c
  9946   002C24  5014               	movf	(___flmul@a+1)^0,w,c
  9947   002C26  0210               	mulwf	(___flmul@b+1)^0,c
  9948   002C28  CFF3 F026          	movff	prodl,___flmul@temp
  9949   002C2C  CFF4 F027          	movff	prodh,___flmul@temp+1
  9950   002C30  5026               	movf	___flmul@temp^0,w,c
  9951   002C32  261C               	addwf	___flmul@grs^0,f,c
  9952   002C34  0E00               	movlw	0
  9953   002C36  221D               	addwfc	(___flmul@grs+1)^0,f,c
  9954   002C38  221E               	addwfc	(___flmul@grs+2)^0,f,c
  9955   002C3A  221F               	addwfc	(___flmul@grs+3)^0,f,c
  9956   002C3C  5027               	movf	(___flmul@temp+1)^0,w,c
  9957   002C3E  2622               	addwf	___flmul@prod^0,f,c
  9958   002C40  0E00               	movlw	0
  9959   002C42  2223               	addwfc	(___flmul@prod+1)^0,f,c
  9960   002C44  2224               	addwfc	(___flmul@prod+2)^0,f,c
  9961   002C46  2225               	addwfc	(___flmul@prod+3)^0,f,c
  9962   002C48  5013               	movf	___flmul@a^0,w,c
  9963   002C4A  0211               	mulwf	(___flmul@b+2)^0,c
  9964   002C4C  CFF3 F026          	movff	prodl,___flmul@temp
  9965   002C50  CFF4 F027          	movff	prodh,___flmul@temp+1
  9966   002C54  5026               	movf	___flmul@temp^0,w,c
  9967   002C56  261C               	addwf	___flmul@grs^0,f,c
  9968   002C58  0E00               	movlw	0
  9969   002C5A  221D               	addwfc	(___flmul@grs+1)^0,f,c
  9970   002C5C  221E               	addwfc	(___flmul@grs+2)^0,f,c
  9971   002C5E  221F               	addwfc	(___flmul@grs+3)^0,f,c
  9972   002C60  5027               	movf	(___flmul@temp+1)^0,w,c
  9973   002C62  2622               	addwf	___flmul@prod^0,f,c
  9974   002C64  0E00               	movlw	0
  9975   002C66  2223               	addwfc	(___flmul@prod+1)^0,f,c
  9976   002C68  2224               	addwfc	(___flmul@prod+2)^0,f,c
  9977   002C6A  2225               	addwfc	(___flmul@prod+3)^0,f,c
  9978   002C6C  C01E  F01F         	movff	___flmul@grs+2,___flmul@grs+3
  9979   002C70  C01D  F01E         	movff	___flmul@grs+1,___flmul@grs+2
  9980   002C74  C01C  F01D         	movff	___flmul@grs,___flmul@grs+1
  9981   002C78  6A1C               	clrf	___flmul@grs^0,c
  9982   002C7A  5013               	movf	___flmul@a^0,w,c
  9983   002C7C  0210               	mulwf	(___flmul@b+1)^0,c
  9984   002C7E  CFF3 F026          	movff	prodl,___flmul@temp
  9985   002C82  CFF4 F027          	movff	prodh,___flmul@temp+1
  9986   002C86  5026               	movf	___flmul@temp^0,w,c
  9987   002C88  261C               	addwf	___flmul@grs^0,f,c
  9988   002C8A  5027               	movf	(___flmul@temp+1)^0,w,c
  9989   002C8C  221D               	addwfc	(___flmul@grs+1)^0,f,c
  9990   002C8E  0E00               	movlw	0
  9991   002C90  221E               	addwfc	(___flmul@grs+2)^0,f,c
  9992   002C92  0E00               	movlw	0
  9993   002C94  221F               	addwfc	(___flmul@grs+3)^0,f,c
  9994   002C96  5014               	movf	(___flmul@a+1)^0,w,c
  9995   002C98  020F               	mulwf	___flmul@b^0,c
  9996   002C9A  CFF3 F026          	movff	prodl,___flmul@temp
  9997   002C9E  CFF4 F027          	movff	prodh,___flmul@temp+1
  9998   002CA2  5026               	movf	___flmul@temp^0,w,c
  9999   002CA4  261C               	addwf	___flmul@grs^0,f,c
 10000   002CA6  5027               	movf	(___flmul@temp+1)^0,w,c
 10001   002CA8  221D               	addwfc	(___flmul@grs+1)^0,f,c
 10002   002CAA  0E00               	movlw	0
 10003   002CAC  221E               	addwfc	(___flmul@grs+2)^0,f,c
 10004   002CAE  0E00               	movlw	0
 10005   002CB0  221F               	addwfc	(___flmul@grs+3)^0,f,c
 10006   002CB2  C01E  F01F         	movff	___flmul@grs+2,___flmul@grs+3
 10007   002CB6  C01D  F01E         	movff	___flmul@grs+1,___flmul@grs+2
 10008   002CBA  C01C  F01D         	movff	___flmul@grs,___flmul@grs+1
 10009   002CBE  6A1C               	clrf	___flmul@grs^0,c
 10010   002CC0  5013               	movf	___flmul@a^0,w,c
 10011   002CC2  020F               	mulwf	___flmul@b^0,c
 10012   002CC4  CFF3 F026          	movff	prodl,___flmul@temp
 10013   002CC8  CFF4 F027          	movff	prodh,___flmul@temp+1
 10014   002CCC  5026               	movf	___flmul@temp^0,w,c
 10015   002CCE  261C               	addwf	___flmul@grs^0,f,c
 10016   002CD0  5027               	movf	(___flmul@temp+1)^0,w,c
 10017   002CD2  221D               	addwfc	(___flmul@grs+1)^0,f,c
 10018   002CD4  0E00               	movlw	0
 10019   002CD6  221E               	addwfc	(___flmul@grs+2)^0,f,c
 10020   002CD8  0E00               	movlw	0
 10021   002CDA  221F               	addwfc	(___flmul@grs+3)^0,f,c
 10022   002CDC  5015               	movf	(___flmul@a+2)^0,w,c
 10023   002CDE  0210               	mulwf	(___flmul@b+1)^0,c
 10024   002CE0  CFF3 F026          	movff	prodl,___flmul@temp
 10025   002CE4  CFF4 F027          	movff	prodh,___flmul@temp+1
 10026   002CE8  5026               	movf	___flmul@temp^0,w,c
 10027   002CEA  2622               	addwf	___flmul@prod^0,f,c
 10028   002CEC  5027               	movf	(___flmul@temp+1)^0,w,c
 10029   002CEE  2223               	addwfc	(___flmul@prod+1)^0,f,c
 10030   002CF0  0E00               	movlw	0
 10031   002CF2  2224               	addwfc	(___flmul@prod+2)^0,f,c
 10032   002CF4  0E00               	movlw	0
 10033   002CF6  2225               	addwfc	(___flmul@prod+3)^0,f,c
 10034   002CF8  5014               	movf	(___flmul@a+1)^0,w,c
 10035   002CFA  0211               	mulwf	(___flmul@b+2)^0,c
 10036   002CFC  CFF3 F026          	movff	prodl,___flmul@temp
 10037   002D00  CFF4 F027          	movff	prodh,___flmul@temp+1
 10038   002D04  5026               	movf	___flmul@temp^0,w,c
 10039   002D06  2622               	addwf	___flmul@prod^0,f,c
 10040   002D08  5027               	movf	(___flmul@temp+1)^0,w,c
 10041   002D0A  2223               	addwfc	(___flmul@prod+1)^0,f,c
 10042   002D0C  0E00               	movlw	0
 10043   002D0E  2224               	addwfc	(___flmul@prod+2)^0,f,c
 10044   002D10  0E00               	movlw	0
 10045   002D12  2225               	addwfc	(___flmul@prod+3)^0,f,c
 10046   002D14  5015               	movf	(___flmul@a+2)^0,w,c
 10047   002D16  0211               	mulwf	(___flmul@b+2)^0,c
 10048   002D18  CFF3 F026          	movff	prodl,___flmul@temp
 10049   002D1C  CFF4 F027          	movff	prodh,___flmul@temp+1
 10050   002D20  5026               	movf	___flmul@temp^0,w,c
 10051   002D22  6E17               	movwf	??___flmul^0,c
 10052   002D24  5027               	movf	(___flmul@temp+1)^0,w,c
 10053   002D26  6E18               	movwf	(??___flmul+1)^0,c
 10054   002D28  6A19               	clrf	(??___flmul+2)^0,c
 10055   002D2A  6A1A               	clrf	(??___flmul+3)^0,c
 10056   002D2C  C019  F01A         	movff	??___flmul+2,??___flmul+3
 10057   002D30  C018  F019         	movff	??___flmul+1,??___flmul+2
 10058   002D34  C017  F018         	movff	??___flmul,??___flmul+1
 10059   002D38  6A17               	clrf	??___flmul^0,c
 10060   002D3A  5017               	movf	??___flmul^0,w,c
 10061   002D3C  2622               	addwf	___flmul@prod^0,f,c
 10062   002D3E  5018               	movf	(??___flmul+1)^0,w,c
 10063   002D40  2223               	addwfc	(___flmul@prod+1)^0,f,c
 10064   002D42  5019               	movf	(??___flmul+2)^0,w,c
 10065   002D44  2224               	addwfc	(___flmul@prod+2)^0,f,c
 10066   002D46  501A               	movf	(??___flmul+3)^0,w,c
 10067   002D48  2225               	addwfc	(___flmul@prod+3)^0,f,c
 10068   002D4A  C01C  F017         	movff	___flmul@grs,??___flmul
 10069   002D4E  C01D  F018         	movff	___flmul@grs+1,??___flmul+1
 10070   002D52  C01E  F019         	movff	___flmul@grs+2,??___flmul+2
 10071   002D56  C01F  F01A         	movff	___flmul@grs+3,??___flmul+3
 10072   002D5A  0E19               	movlw	25
 10073   002D5C  EFB5  F016         	goto	u4580
 10074   002D60                     u4585:
 10075   002D60  90D8               	bcf	status,0,c
 10076   002D62  321A               	rrcf	(??___flmul+3)^0,f,c
 10077   002D64  3219               	rrcf	(??___flmul+2)^0,f,c
 10078   002D66  3218               	rrcf	(??___flmul+1)^0,f,c
 10079   002D68  3217               	rrcf	??___flmul^0,f,c
 10080   002D6A                     u4580:
 10081   002D6A  2EE8               	decfsz	wreg,f,c
 10082   002D6C  EFB0  F016         	goto	u4585
 10083   002D70  5017               	movf	??___flmul^0,w,c
 10084   002D72  2622               	addwf	___flmul@prod^0,f,c
 10085   002D74  5018               	movf	(??___flmul+1)^0,w,c
 10086   002D76  2223               	addwfc	(___flmul@prod+1)^0,f,c
 10087   002D78  5019               	movf	(??___flmul+2)^0,w,c
 10088   002D7A  2224               	addwfc	(___flmul@prod+2)^0,f,c
 10089   002D7C  501A               	movf	(??___flmul+3)^0,w,c
 10090   002D7E  2225               	addwfc	(___flmul@prod+3)^0,f,c
 10091   002D80  C01E  F01F         	movff	___flmul@grs+2,___flmul@grs+3
 10092   002D84  C01D  F01E         	movff	___flmul@grs+1,___flmul@grs+2
 10093   002D88  C01C  F01D         	movff	___flmul@grs,___flmul@grs+1
 10094   002D8C  6A1C               	clrf	___flmul@grs^0,c
 10095   002D8E  5020               	movf	___flmul@aexp^0,w,c
 10096   002D90  C021  F017         	movff	___flmul@bexp,??___flmul
 10097   002D94  6A18               	clrf	(??___flmul+1)^0,c
 10098   002D96  2617               	addwf	??___flmul^0,f,c
 10099   002D98  0E00               	movlw	0
 10100   002D9A  2218               	addwfc	(??___flmul+1)^0,f,c
 10101   002D9C  0E82               	movlw	130
 10102   002D9E  2417               	addwf	??___flmul^0,w,c
 10103   002DA0  6E26               	movwf	___flmul@temp^0,c
 10104   002DA2  0EFF               	movlw	255
 10105   002DA4  2018               	addwfc	(??___flmul+1)^0,w,c
 10106   002DA6  6E27               	movwf	(___flmul@temp+1)^0,c
 10107   002DA8  EFEB  F016         	goto	l3985
 10108   002DAC                     l3979:
 10109   002DAC  90D8               	bcf	status,0,c
 10110   002DAE  3622               	rlcf	___flmul@prod^0,f,c
 10111   002DB0  3623               	rlcf	(___flmul@prod+1)^0,f,c
 10112   002DB2  3624               	rlcf	(___flmul@prod+2)^0,f,c
 10113   002DB4  3625               	rlcf	(___flmul@prod+3)^0,f,c
 10114   002DB6  AE1F               	btfss	(___flmul@grs+3)^0,7,c
 10115   002DB8  EFE0  F016         	goto	u4591
 10116   002DBC  EFE2  F016         	goto	u4590
 10117   002DC0                     u4591:
 10118   002DC0  EFE3  F016         	goto	l909
 10119   002DC4                     u4590:
 10120   002DC4  8022               	bsf	___flmul@prod^0,0,c
 10121   002DC6                     l909:
 10122   002DC6  90D8               	bcf	status,0,c
 10123   002DC8  361C               	rlcf	___flmul@grs^0,f,c
 10124   002DCA  361D               	rlcf	(___flmul@grs+1)^0,f,c
 10125   002DCC  361E               	rlcf	(___flmul@grs+2)^0,f,c
 10126   002DCE  361F               	rlcf	(___flmul@grs+3)^0,f,c
 10127   002DD0  0626               	decf	___flmul@temp^0,f,c
 10128   002DD2  A0D8               	btfss	status,0,c
 10129   002DD4  0627               	decf	(___flmul@temp+1)^0,f,c
 10130   002DD6                     l3985:
 10131   002DD6  AE24               	btfss	(___flmul@prod+2)^0,7,c
 10132   002DD8  EFF0  F016         	goto	u4601
 10133   002DDC  EFF2  F016         	goto	u4600
 10134   002DE0                     u4601:
 10135   002DE0  EFD6  F016         	goto	l3979
 10136   002DE4                     u4600:
 10137   002DE4  6A20               	clrf	___flmul@aexp^0,c
 10138   002DE6  AE1F               	btfss	(___flmul@grs+3)^0,7,c
 10139   002DE8  EFF8  F016         	goto	u4611
 10140   002DEC  EFFA  F016         	goto	u4610
 10141   002DF0                     u4611:
 10142   002DF0  EF1E  F017         	goto	l911
 10143   002DF4                     u4610:
 10144   002DF4  0EFF               	movlw	255
 10145   002DF6  141C               	andwf	___flmul@grs^0,w,c
 10146   002DF8  6E17               	movwf	??___flmul^0,c
 10147   002DFA  0EFF               	movlw	255
 10148   002DFC  141D               	andwf	(___flmul@grs+1)^0,w,c
 10149   002DFE  6E18               	movwf	(??___flmul+1)^0,c
 10150   002E00  0EFF               	movlw	255
 10151   002E02  141E               	andwf	(___flmul@grs+2)^0,w,c
 10152   002E04  6E19               	movwf	(??___flmul+2)^0,c
 10153   002E06  0E7F               	movlw	127
 10154   002E08  141F               	andwf	(___flmul@grs+3)^0,w,c
 10155   002E0A  6E1A               	movwf	(??___flmul+3)^0,c
 10156   002E0C  5017               	movf	??___flmul^0,w,c
 10157   002E0E  1018               	iorwf	(??___flmul+1)^0,w,c
 10158   002E10  1019               	iorwf	(??___flmul+2)^0,w,c
 10159   002E12  101A               	iorwf	(??___flmul+3)^0,w,c
 10160   002E14  B4D8               	btfsc	status,2,c
 10161   002E16  EF0F  F017         	goto	u4621
 10162   002E1A  EF11  F017         	goto	u4620
 10163   002E1E                     u4621:
 10164   002E1E  EF15  F017         	goto	l912
 10165   002E22                     u4620:
 10166   002E22                     l3989:
 10167   002E22  0E01               	movlw	1
 10168   002E24  6E20               	movwf	___flmul@aexp^0,c
 10169   002E26  EF1E  F017         	goto	l911
 10170   002E2A                     l912:
 10171   002E2A  A022               	btfss	___flmul@prod^0,0,c
 10172   002E2C  EF1A  F017         	goto	u4631
 10173   002E30  EF1C  F017         	goto	u4630
 10174   002E34                     u4631:
 10175   002E34  EF1E  F017         	goto	l911
 10176   002E38                     u4630:
 10177   002E38  EF11  F017         	goto	l3989
 10178   002E3C                     l911:
 10179   002E3C  5020               	movf	___flmul@aexp^0,w,c
 10180   002E3E  B4D8               	btfsc	status,2,c
 10181   002E40  EF24  F017         	goto	u4641
 10182   002E44  EF26  F017         	goto	u4640
 10183   002E48                     u4641:
 10184   002E48  EF4A  F017         	goto	l4001
 10185   002E4C                     u4640:
 10186   002E4C  0E01               	movlw	1
 10187   002E4E  2622               	addwf	___flmul@prod^0,f,c
 10188   002E50  0E00               	movlw	0
 10189   002E52  2223               	addwfc	(___flmul@prod+1)^0,f,c
 10190   002E54  2224               	addwfc	(___flmul@prod+2)^0,f,c
 10191   002E56  2225               	addwfc	(___flmul@prod+3)^0,f,c
 10192   002E58  A025               	btfss	(___flmul@prod+3)^0,0,c
 10193   002E5A  EF31  F017         	goto	u4651
 10194   002E5E  EF33  F017         	goto	u4650
 10195   002E62                     u4651:
 10196   002E62  EF4A  F017         	goto	l4001
 10197   002E66                     u4650:
 10198   002E66  C022  F017         	movff	___flmul@prod,??___flmul
 10199   002E6A  C023  F018         	movff	___flmul@prod+1,??___flmul+1
 10200   002E6E  C024  F019         	movff	___flmul@prod+2,??___flmul+2
 10201   002E72  C025  F01A         	movff	___flmul@prod+3,??___flmul+3
 10202   002E76  341A               	rlcf	(??___flmul+3)^0,w,c
 10203   002E78  321A               	rrcf	(??___flmul+3)^0,f,c
 10204   002E7A  3219               	rrcf	(??___flmul+2)^0,f,c
 10205   002E7C  3218               	rrcf	(??___flmul+1)^0,f,c
 10206   002E7E  3217               	rrcf	??___flmul^0,f,c
 10207   002E80  C017  F022         	movff	??___flmul,___flmul@prod
 10208   002E84  C018  F023         	movff	??___flmul+1,___flmul@prod+1
 10209   002E88  C019  F024         	movff	??___flmul+2,___flmul@prod+2
 10210   002E8C  C01A  F025         	movff	??___flmul+3,___flmul@prod+3
 10211   002E90  4A26               	infsnz	___flmul@temp^0,f,c
 10212   002E92  2A27               	incf	(___flmul@temp+1)^0,f,c
 10213   002E94                     l4001:
 10214   002E94  BE27               	btfsc	(___flmul@temp+1)^0,7,c
 10215   002E96  EF55  F017         	goto	u4661
 10216   002E9A  5027               	movf	(___flmul@temp+1)^0,w,c
 10217   002E9C  E108               	bnz	u4660
 10218   002E9E  2826               	incf	___flmul@temp^0,w,c
 10219   002EA0  A0D8               	btfss	status,0,c
 10220   002EA2  EF55  F017         	goto	u4661
 10221   002EA6  EF57  F017         	goto	u4660
 10222   002EAA                     u4661:
 10223   002EAA  EF61  F017         	goto	l4005
 10224   002EAE                     u4660:
 10225   002EAE  0E00               	movlw	0
 10226   002EB0  6E22               	movwf	___flmul@prod^0,c
 10227   002EB2  0E00               	movlw	0
 10228   002EB4  6E23               	movwf	(___flmul@prod+1)^0,c
 10229   002EB6  0E80               	movlw	128
 10230   002EB8  6E24               	movwf	(___flmul@prod+2)^0,c
 10231   002EBA  0E7F               	movlw	127
 10232   002EBC  6E25               	movwf	(___flmul@prod+3)^0,c
 10233   002EBE  EF8E  F017         	goto	l4019
 10234   002EC2                     l4005:
 10235   002EC2  BE27               	btfsc	(___flmul@temp+1)^0,7,c
 10236   002EC4  EF6E  F017         	goto	u4670
 10237   002EC8  5027               	movf	(___flmul@temp+1)^0,w,c
 10238   002ECA  E106               	bnz	u4671
 10239   002ECC  0426               	decf	___flmul@temp^0,w,c
 10240   002ECE  B0D8               	btfsc	status,0,c
 10241   002ED0  EF6C  F017         	goto	u4671
 10242   002ED4  EF6E  F017         	goto	u4670
 10243   002ED8                     u4671:
 10244   002ED8  EF79  F017         	goto	l919
 10245   002EDC                     u4670:
 10246   002EDC  0E00               	movlw	0
 10247   002EDE  6E22               	movwf	___flmul@prod^0,c
 10248   002EE0  0E00               	movlw	0
 10249   002EE2  6E23               	movwf	(___flmul@prod+1)^0,c
 10250   002EE4  0E00               	movlw	0
 10251   002EE6  6E24               	movwf	(___flmul@prod+2)^0,c
 10252   002EE8  0E00               	movlw	0
 10253   002EEA  6E25               	movwf	(___flmul@prod+3)^0,c
 10254   002EEC  6A1B               	clrf	___flmul@sign^0,c
 10255   002EEE  EF8E  F017         	goto	l4019
 10256   002EF2                     l919:
 10257   002EF2  C026  F021         	movff	___flmul@temp,___flmul@bexp
 10258   002EF6  0EFF               	movlw	255
 10259   002EF8  1622               	andwf	___flmul@prod^0,f,c
 10260   002EFA  0EFF               	movlw	255
 10261   002EFC  1623               	andwf	(___flmul@prod+1)^0,f,c
 10262   002EFE  0E7F               	movlw	127
 10263   002F00  1624               	andwf	(___flmul@prod+2)^0,f,c
 10264   002F02  0E00               	movlw	0
 10265   002F04  1625               	andwf	(___flmul@prod+3)^0,f,c
 10266   002F06  A021               	btfss	___flmul@bexp^0,0,c
 10267   002F08  EF88  F017         	goto	u4681
 10268   002F0C  EF8A  F017         	goto	u4680
 10269   002F10                     u4681:
 10270   002F10  EF8B  F017         	goto	l4017
 10271   002F14                     u4680:
 10272   002F14  8E24               	bsf	(___flmul@prod+2)^0,7,c
 10273   002F16                     l4017:
 10274   002F16  90D8               	bcf	status,0,c
 10275   002F18  3021               	rrcf	___flmul@bexp^0,w,c
 10276   002F1A  6E25               	movwf	(___flmul@prod+3)^0,c
 10277   002F1C                     l4019:
 10278   002F1C  501B               	movf	___flmul@sign^0,w,c
 10279   002F1E  1225               	iorwf	(___flmul@prod+3)^0,f,c
 10280   002F20  C022  F00F         	movff	___flmul@prod,?___flmul
 10281   002F24  C023  F010         	movff	___flmul@prod+1,?___flmul+1
 10282   002F28  C024  F011         	movff	___flmul@prod+2,?___flmul+2
 10283   002F2C  C025  F012         	movff	___flmul@prod+3,?___flmul+3
 10284   002F30                     l906:
 10285   002F30  0012               	return		;funcret
 10286   002F32                     __end_of___flmul:
 10287                           	callstack 0
 10288                           
 10289 ;; *************** function ___flge *****************
 10290 ;; Defined at:
 10291 ;;		line 4 in file "C:\Program Files\Microchip\xc8\v3.10\pic\sources\c99\common\flge.c"
 10292 ;; Parameters:    Size  Location     Type
 10293 ;;  ff1             4   63[COMRAM] unsigned char 
 10294 ;;  ff2             4   67[COMRAM] unsigned char 
 10295 ;; Auto vars:     Size  Location     Type
 10296 ;;		None
 10297 ;; Return value:  Size  Location     Type
 10298 ;;		None               void
 10299 ;; Registers used:
 10300 ;;		wreg, status,2, status,0
 10301 ;; Tracked objects:
 10302 ;;		On entry : 0/0
 10303 ;;		On exit  : 0/0
 10304 ;;		Unchanged: 0/0
 10305 ;; Data sizes:     COMRAM   BANK0   BANK1   BANK2   BANK3   BANK4   BANK5   BANK6   BANK7   BANK8   BANK9  BANK10  BANK1
      +1  BANK12
 10306 ;;      Params:         8       0       0       0       0       0       0       0       0       0       0       0       
      +0       0
 10307 ;;      Locals:         0       0       0       0       0       0       0       0       0       0       0       0       
      +0       0
 10308 ;;      Temps:          4       0       0       0       0       0       0       0       0       0       0       0       
      +0       0
 10309 ;;      Totals:        12       0       0       0       0       0       0       0       0       0       0       0       
      +0       0
 10310 ;;Total ram usage:       12 bytes
 10311 ;; Hardware stack levels used: 1
 10312 ;; This function calls:
 10313 ;;		Nothing
 10314 ;; This function is called by:
 10315 ;;		_main
 10316 ;; This function uses a non-reentrant model
 10317 ;;
 10318                           
 10319                           	psect	text29
 10320   003E74                     __ptext29:
 10321                           	callstack 0
 10322   003E74                     ___flge:
 10323                           	callstack 30
 10324   003E74  0E00               	movlw	0
 10325   003E76  1440               	andwf	___flge@ff1^0,w,c
 10326   003E78  6E48               	movwf	??___flge^0,c
 10327   003E7A  0E00               	movlw	0
 10328   003E7C  1441               	andwf	(___flge@ff1+1)^0,w,c
 10329   003E7E  6E49               	movwf	(??___flge+1)^0,c
 10330   003E80  0E80               	movlw	128
 10331   003E82  1442               	andwf	(___flge@ff1+2)^0,w,c
 10332   003E84  6E4A               	movwf	(??___flge+2)^0,c
 10333   003E86  0E7F               	movlw	127
 10334   003E88  1443               	andwf	(___flge@ff1+3)^0,w,c
 10335   003E8A  6E4B               	movwf	(??___flge+3)^0,c
 10336   003E8C  5048               	movf	??___flge^0,w,c
 10337   003E8E  1049               	iorwf	(??___flge+1)^0,w,c
 10338   003E90  104A               	iorwf	(??___flge+2)^0,w,c
 10339   003E92  104B               	iorwf	(??___flge+3)^0,w,c
 10340   003E94  A4D8               	btfss	status,2,c
 10341   003E96  EF4F  F01F         	goto	u5061
 10342   003E9A  EF51  F01F         	goto	u5060
 10343   003E9E                     u5061:
 10344   003E9E  EF59  F01F         	goto	l4331
 10345   003EA2                     u5060:
 10346   003EA2  0E00               	movlw	0
 10347   003EA4  6E40               	movwf	___flge@ff1^0,c
 10348   003EA6  0E00               	movlw	0
 10349   003EA8  6E41               	movwf	(___flge@ff1+1)^0,c
 10350   003EAA  0E00               	movlw	0
 10351   003EAC  6E42               	movwf	(___flge@ff1+2)^0,c
 10352   003EAE  0E00               	movlw	0
 10353   003EB0  6E43               	movwf	(___flge@ff1+3)^0,c
 10354   003EB2                     l4331:
 10355   003EB2  0E00               	movlw	0
 10356   003EB4  1444               	andwf	___flge@ff2^0,w,c
 10357   003EB6  6E48               	movwf	??___flge^0,c
 10358   003EB8  0E00               	movlw	0
 10359   003EBA  1445               	andwf	(___flge@ff2+1)^0,w,c
 10360   003EBC  6E49               	movwf	(??___flge+1)^0,c
 10361   003EBE  0E80               	movlw	128
 10362   003EC0  1446               	andwf	(___flge@ff2+2)^0,w,c
 10363   003EC2  6E4A               	movwf	(??___flge+2)^0,c
 10364   003EC4  0E7F               	movlw	127
 10365   003EC6  1447               	andwf	(___flge@ff2+3)^0,w,c
 10366   003EC8  6E4B               	movwf	(??___flge+3)^0,c
 10367   003ECA  5048               	movf	??___flge^0,w,c
 10368   003ECC  1049               	iorwf	(??___flge+1)^0,w,c
 10369   003ECE  104A               	iorwf	(??___flge+2)^0,w,c
 10370   003ED0  104B               	iorwf	(??___flge+3)^0,w,c
 10371   003ED2  A4D8               	btfss	status,2,c
 10372   003ED4  EF6E  F01F         	goto	u5071
 10373   003ED8  EF70  F01F         	goto	u5070
 10374   003EDC                     u5071:
 10375   003EDC  EF78  F01F         	goto	l4335
 10376   003EE0                     u5070:
 10377   003EE0  0E00               	movlw	0
 10378   003EE2  6E44               	movwf	___flge@ff2^0,c
 10379   003EE4  0E00               	movlw	0
 10380   003EE6  6E45               	movwf	(___flge@ff2+1)^0,c
 10381   003EE8  0E00               	movlw	0
 10382   003EEA  6E46               	movwf	(___flge@ff2+2)^0,c
 10383   003EEC  0E00               	movlw	0
 10384   003EEE  6E47               	movwf	(___flge@ff2+3)^0,c
 10385   003EF0                     l4335:
 10386   003EF0  AE43               	btfss	(___flge@ff1+3)^0,7,c
 10387   003EF2  EF7D  F01F         	goto	u5081
 10388   003EF6  EF7F  F01F         	goto	u5080
 10389   003EFA                     u5081:
 10390   003EFA  EF88  F01F         	goto	l4339
 10391   003EFE                     u5080:
 10392   003EFE  6C40               	negf	___flge@ff1^0,c
 10393   003F00  1E41               	comf	(___flge@ff1+1)^0,f,c
 10394   003F02  B0D8               	btfsc	status,0,c
 10395   003F04  2A41               	incf	(___flge@ff1+1)^0,f,c
 10396   003F06  1E42               	comf	(___flge@ff1+2)^0,f,c
 10397   003F08  B0D8               	btfsc	status,0,c
 10398   003F0A  2A42               	incf	(___flge@ff1+2)^0,f,c
 10399   003F0C  0E80               	movlw	128
 10400   003F0E  5643               	subfwb	(___flge@ff1+3)^0,f,c
 10401   003F10                     l4339:
 10402   003F10  AE47               	btfss	(___flge@ff2+3)^0,7,c
 10403   003F12  EF8D  F01F         	goto	u5091
 10404   003F16  EF8F  F01F         	goto	u5090
 10405   003F1A                     u5091:
 10406   003F1A  EF98  F01F         	goto	l553
 10407   003F1E                     u5090:
 10408   003F1E  6C44               	negf	___flge@ff2^0,c
 10409   003F20  1E45               	comf	(___flge@ff2+1)^0,f,c
 10410   003F22  B0D8               	btfsc	status,0,c
 10411   003F24  2A45               	incf	(___flge@ff2+1)^0,f,c
 10412   003F26  1E46               	comf	(___flge@ff2+2)^0,f,c
 10413   003F28  B0D8               	btfsc	status,0,c
 10414   003F2A  2A46               	incf	(___flge@ff2+2)^0,f,c
 10415   003F2C  0E80               	movlw	128
 10416   003F2E  5647               	subfwb	(___flge@ff2+3)^0,f,c
 10417   003F30                     l553:
 10418   003F30  0E00               	movlw	0
 10419   003F32  1A40               	xorwf	___flge@ff1^0,f,c
 10420   003F34  0E00               	movlw	0
 10421   003F36  1A41               	xorwf	(___flge@ff1+1)^0,f,c
 10422   003F38  0E00               	movlw	0
 10423   003F3A  1A42               	xorwf	(___flge@ff1+2)^0,f,c
 10424   003F3C  0E80               	movlw	128
 10425   003F3E  1A43               	xorwf	(___flge@ff1+3)^0,f,c
 10426   003F40  0E00               	movlw	0
 10427   003F42  1A44               	xorwf	___flge@ff2^0,f,c
 10428   003F44  0E00               	movlw	0
 10429   003F46  1A45               	xorwf	(___flge@ff2+1)^0,f,c
 10430   003F48  0E00               	movlw	0
 10431   003F4A  1A46               	xorwf	(___flge@ff2+2)^0,f,c
 10432   003F4C  0E80               	movlw	128
 10433   003F4E  1A47               	xorwf	(___flge@ff2+3)^0,f,c
 10434   003F50  5044               	movf	___flge@ff2^0,w,c
 10435   003F52  5C40               	subwf	___flge@ff1^0,w,c
 10436   003F54  5045               	movf	(___flge@ff2+1)^0,w,c
 10437   003F56  5841               	subwfb	(___flge@ff1+1)^0,w,c
 10438   003F58  5046               	movf	(___flge@ff2+2)^0,w,c
 10439   003F5A  5842               	subwfb	(___flge@ff1+2)^0,w,c
 10440   003F5C  5047               	movf	(___flge@ff2+3)^0,w,c
 10441   003F5E  5843               	subwfb	(___flge@ff1+3)^0,w,c
 10442   003F60  B0D8               	btfsc	status,0,c
 10443   003F62  EFB5  F01F         	goto	u5101
 10444   003F66  EFB7  F01F         	goto	u5100
 10445   003F6A                     u5101:
 10446   003F6A  EFBA  F01F         	goto	l4345
 10447   003F6E                     u5100:
 10448   003F6E  90D8               	bcf	status,0,c
 10449   003F70  EFBB  F01F         	goto	l558
 10450   003F74                     l4345:
 10451   003F74  80D8               	bsf	status,0,c
 10452   003F76                     l558:
 10453   003F76  0012               	return		;funcret
 10454   003F78                     __end_of___flge:
 10455                           	callstack 0
 10456                           
 10457 ;; *************** function ___aldiv *****************
 10458 ;; Defined at:
 10459 ;;		line 7 in file "C:\Program Files\Microchip\xc8\v3.10\pic\sources\c99\common\aldiv.c"
 10460 ;; Parameters:    Size  Location     Type
 10461 ;;  dividend        4    0[COMRAM] long 
 10462 ;;  divisor         4    4[COMRAM] long 
 10463 ;; Auto vars:     Size  Location     Type
 10464 ;;  quotient        4   10[COMRAM] long 
 10465 ;;  sign            1    9[COMRAM] unsigned char 
 10466 ;;  counter         1    8[COMRAM] unsigned char 
 10467 ;; Return value:  Size  Location     Type
 10468 ;;                  4    0[COMRAM] long 
 10469 ;; Registers used:
 10470 ;;		wreg, status,2, status,0
 10471 ;; Tracked objects:
 10472 ;;		On entry : 0/0
 10473 ;;		On exit  : 0/0
 10474 ;;		Unchanged: 0/0
 10475 ;; Data sizes:     COMRAM   BANK0   BANK1   BANK2   BANK3   BANK4   BANK5   BANK6   BANK7   BANK8   BANK9  BANK10  BANK1
      +1  BANK12
 10476 ;;      Params:         8       0       0       0       0       0       0       0       0       0       0       0       
      +0       0
 10477 ;;      Locals:         6       0       0       0       0       0       0       0       0       0       0       0       
      +0       0
 10478 ;;      Temps:          0       0       0       0       0       0       0       0       0       0       0       0       
      +0       0
 10479 ;;      Totals:        14       0       0       0       0       0       0       0       0       0       0       0       
      +0       0
 10480 ;;Total ram usage:       14 bytes
 10481 ;; Hardware stack levels used: 1
 10482 ;; This function calls:
 10483 ;;		Nothing
 10484 ;; This function is called by:
 10485 ;;		_main
 10486 ;; This function uses a non-reentrant model
 10487 ;;
 10488                           
 10489                           	psect	text30
 10490   003C64                     __ptext30:
 10491                           	callstack 0
 10492   003C64                     ___aldiv:
 10493                           	callstack 30
 10494   003C64  6A0A               	clrf	___aldiv@sign^0,c
 10495   003C66  BE08               	btfsc	(___aldiv@divisor+3)^0,7,c
 10496   003C68  EF3A  F01E         	goto	u5000
 10497   003C6C  EF38  F01E         	goto	u5001
 10498   003C70                     u5001:
 10499   003C70  EF44  F01E         	goto	l4291
 10500   003C74                     u5000:
 10501   003C74  1E08               	comf	(___aldiv@divisor+3)^0,f,c
 10502   003C76  1E07               	comf	(___aldiv@divisor+2)^0,f,c
 10503   003C78  1E06               	comf	(___aldiv@divisor+1)^0,f,c
 10504   003C7A  6C05               	negf	___aldiv@divisor^0,c
 10505   003C7C  0E00               	movlw	0
 10506   003C7E  2206               	addwfc	(___aldiv@divisor+1)^0,f,c
 10507   003C80  2207               	addwfc	(___aldiv@divisor+2)^0,f,c
 10508   003C82  2208               	addwfc	(___aldiv@divisor+3)^0,f,c
 10509   003C84  0E01               	movlw	1
 10510   003C86  6E0A               	movwf	___aldiv@sign^0,c
 10511   003C88                     l4291:
 10512   003C88  BE04               	btfsc	(___aldiv@dividend+3)^0,7,c
 10513   003C8A  EF4B  F01E         	goto	u5010
 10514   003C8E  EF49  F01E         	goto	u5011
 10515   003C92                     u5011:
 10516   003C92  EF55  F01E         	goto	l4297
 10517   003C96                     u5010:
 10518   003C96  1E04               	comf	(___aldiv@dividend+3)^0,f,c
 10519   003C98  1E03               	comf	(___aldiv@dividend+2)^0,f,c
 10520   003C9A  1E02               	comf	(___aldiv@dividend+1)^0,f,c
 10521   003C9C  6C01               	negf	___aldiv@dividend^0,c
 10522   003C9E  0E00               	movlw	0
 10523   003CA0  2202               	addwfc	(___aldiv@dividend+1)^0,f,c
 10524   003CA2  2203               	addwfc	(___aldiv@dividend+2)^0,f,c
 10525   003CA4  2204               	addwfc	(___aldiv@dividend+3)^0,f,c
 10526   003CA6  0E01               	movlw	1
 10527   003CA8  1A0A               	xorwf	___aldiv@sign^0,f,c
 10528   003CAA                     l4297:
 10529   003CAA  0E00               	movlw	0
 10530   003CAC  6E0B               	movwf	___aldiv@quotient^0,c
 10531   003CAE  0E00               	movlw	0
 10532   003CB0  6E0C               	movwf	(___aldiv@quotient+1)^0,c
 10533   003CB2  0E00               	movlw	0
 10534   003CB4  6E0D               	movwf	(___aldiv@quotient+2)^0,c
 10535   003CB6  0E00               	movlw	0
 10536   003CB8  6E0E               	movwf	(___aldiv@quotient+3)^0,c
 10537   003CBA  5005               	movf	___aldiv@divisor^0,w,c
 10538   003CBC  1006               	iorwf	(___aldiv@divisor+1)^0,w,c
 10539   003CBE  1007               	iorwf	(___aldiv@divisor+2)^0,w,c
 10540   003CC0  1008               	iorwf	(___aldiv@divisor+3)^0,w,c
 10541   003CC2  B4D8               	btfsc	status,2,c
 10542   003CC4  EF66  F01E         	goto	u5021
 10543   003CC8  EF68  F01E         	goto	u5020
 10544   003CCC                     u5021:
 10545   003CCC  EF9E  F01E         	goto	l4319
 10546   003CD0                     u5020:
 10547   003CD0  0E01               	movlw	1
 10548   003CD2  6E09               	movwf	___aldiv@counter^0,c
 10549   003CD4  EF72  F01E         	goto	l4305
 10550   003CD8                     l4303:
 10551   003CD8  90D8               	bcf	status,0,c
 10552   003CDA  3605               	rlcf	___aldiv@divisor^0,f,c
 10553   003CDC  3606               	rlcf	(___aldiv@divisor+1)^0,f,c
 10554   003CDE  3607               	rlcf	(___aldiv@divisor+2)^0,f,c
 10555   003CE0  3608               	rlcf	(___aldiv@divisor+3)^0,f,c
 10556   003CE2  2A09               	incf	___aldiv@counter^0,f,c
 10557   003CE4                     l4305:
 10558   003CE4  AE08               	btfss	(___aldiv@divisor+3)^0,7,c
 10559   003CE6  EF77  F01E         	goto	u5031
 10560   003CEA  EF79  F01E         	goto	u5030
 10561   003CEE                     u5031:
 10562   003CEE  EF6C  F01E         	goto	l4303
 10563   003CF2                     u5030:
 10564   003CF2                     l4307:
 10565   003CF2  90D8               	bcf	status,0,c
 10566   003CF4  360B               	rlcf	___aldiv@quotient^0,f,c
 10567   003CF6  360C               	rlcf	(___aldiv@quotient+1)^0,f,c
 10568   003CF8  360D               	rlcf	(___aldiv@quotient+2)^0,f,c
 10569   003CFA  360E               	rlcf	(___aldiv@quotient+3)^0,f,c
 10570   003CFC  5005               	movf	___aldiv@divisor^0,w,c
 10571   003CFE  5C01               	subwf	___aldiv@dividend^0,w,c
 10572   003D00  5006               	movf	(___aldiv@divisor+1)^0,w,c
 10573   003D02  5802               	subwfb	(___aldiv@dividend+1)^0,w,c
 10574   003D04  5007               	movf	(___aldiv@divisor+2)^0,w,c
 10575   003D06  5803               	subwfb	(___aldiv@dividend+2)^0,w,c
 10576   003D08  5008               	movf	(___aldiv@divisor+3)^0,w,c
 10577   003D0A  5804               	subwfb	(___aldiv@dividend+3)^0,w,c
 10578   003D0C  A0D8               	btfss	status,0,c
 10579   003D0E  EF8B  F01E         	goto	u5041
 10580   003D12  EF8D  F01E         	goto	u5040
 10581   003D16                     u5041:
 10582   003D16  EF96  F01E         	goto	l4315
 10583   003D1A                     u5040:
 10584   003D1A  5005               	movf	___aldiv@divisor^0,w,c
 10585   003D1C  5E01               	subwf	___aldiv@dividend^0,f,c
 10586   003D1E  5006               	movf	(___aldiv@divisor+1)^0,w,c
 10587   003D20  5A02               	subwfb	(___aldiv@dividend+1)^0,f,c
 10588   003D22  5007               	movf	(___aldiv@divisor+2)^0,w,c
 10589   003D24  5A03               	subwfb	(___aldiv@dividend+2)^0,f,c
 10590   003D26  5008               	movf	(___aldiv@divisor+3)^0,w,c
 10591   003D28  5A04               	subwfb	(___aldiv@dividend+3)^0,f,c
 10592   003D2A  800B               	bsf	___aldiv@quotient^0,0,c
 10593   003D2C                     l4315:
 10594   003D2C  90D8               	bcf	status,0,c
 10595   003D2E  3208               	rrcf	(___aldiv@divisor+3)^0,f,c
 10596   003D30  3207               	rrcf	(___aldiv@divisor+2)^0,f,c
 10597   003D32  3206               	rrcf	(___aldiv@divisor+1)^0,f,c
 10598   003D34  3205               	rrcf	___aldiv@divisor^0,f,c
 10599   003D36  2E09               	decfsz	___aldiv@counter^0,f,c
 10600   003D38  EF79  F01E         	goto	l4307
 10601   003D3C                     l4319:
 10602   003D3C  500A               	movf	___aldiv@sign^0,w,c
 10603   003D3E  B4D8               	btfsc	status,2,c
 10604   003D40  EFA4  F01E         	goto	u5051
 10605   003D44  EFA6  F01E         	goto	u5050
 10606   003D48                     u5051:
 10607   003D48  EFAE  F01E         	goto	l4323
 10608   003D4C                     u5050:
 10609   003D4C  1E0E               	comf	(___aldiv@quotient+3)^0,f,c
 10610   003D4E  1E0D               	comf	(___aldiv@quotient+2)^0,f,c
 10611   003D50  1E0C               	comf	(___aldiv@quotient+1)^0,f,c
 10612   003D52  6C0B               	negf	___aldiv@quotient^0,c
 10613   003D54  0E00               	movlw	0
 10614   003D56  220C               	addwfc	(___aldiv@quotient+1)^0,f,c
 10615   003D58  220D               	addwfc	(___aldiv@quotient+2)^0,f,c
 10616   003D5A  220E               	addwfc	(___aldiv@quotient+3)^0,f,c
 10617   003D5C                     l4323:
 10618   003D5C  C00B  F001         	movff	___aldiv@quotient,?___aldiv
 10619   003D60  C00C  F002         	movff	___aldiv@quotient+1,?___aldiv+1
 10620   003D64  C00D  F003         	movff	___aldiv@quotient+2,?___aldiv+2
 10621   003D68  C00E  F004         	movff	___aldiv@quotient+3,?___aldiv+3
 10622   003D6C  0012               	return		;funcret
 10623   003D6E                     __end_of___aldiv:
 10624                           	callstack 0
 10625                           
 10626 ;; *************** function _LCD_SetCursor *****************
 10627 ;; Defined at:
 10628 ;;		line 88 in file "lcd_i2c.c"
 10629 ;; Parameters:    Size  Location     Type
 10630 ;;  col             1    wreg     unsigned char 
 10631 ;;  row             1    8[COMRAM] unsigned char 
 10632 ;; Auto vars:     Size  Location     Type
 10633 ;;  col             1   10[COMRAM] unsigned char 
 10634 ;;  address         1    9[COMRAM] unsigned char 
 10635 ;; Return value:  Size  Location     Type
 10636 ;;                  1    wreg      void 
 10637 ;; Registers used:
 10638 ;;		wreg, status,2, status,0, cstack
 10639 ;; Tracked objects:
 10640 ;;		On entry : 0/0
 10641 ;;		On exit  : 0/0
 10642 ;;		Unchanged: 0/0
 10643 ;; Data sizes:     COMRAM   BANK0   BANK1   BANK2   BANK3   BANK4   BANK5   BANK6   BANK7   BANK8   BANK9  BANK10  BANK1
      +1  BANK12
 10644 ;;      Params:         1       0       0       0       0       0       0       0       0       0       0       0       
      +0       0
 10645 ;;      Locals:         2       0       0       0       0       0       0       0       0       0       0       0       
      +0       0
 10646 ;;      Temps:          0       0       0       0       0       0       0       0       0       0       0       0       
      +0       0
 10647 ;;      Totals:         3       0       0       0       0       0       0       0       0       0       0       0       
      +0       0
 10648 ;;Total ram usage:        3 bytes
 10649 ;; Hardware stack levels used: 1
 10650 ;; Hardware stack levels required when called: 1
 10651 ;; This function calls:
 10652 ;;		_LCD_SendCommand
 10653 ;; This function is called by:
 10654 ;;		_main
 10655 ;; This function uses a non-reentrant model
 10656 ;;
 10657                           
 10658                           	psect	text31
 10659   004846                     __ptext31:
 10660                           	callstack 0
 10661   004846                     _LCD_SetCursor:
 10662                           	callstack 29
 10663                           
 10664                           ;incstack = 0
 10665                           ;LCD_SetCursor@col stored from wreg
 10666   004846  6E0B               	movwf	LCD_SetCursor@col^0,c
 10667   004848                     
 10668                           ;lcd_i2c.c: 89:     uint8_t address;;lcd_i2c.c: 90:     if (row == 0) {
 10669   004848  5009               	movf	LCD_SetCursor@row^0,w,c
 10670   00484A  A4D8               	btfss	status,2,c
 10671   00484C  EF2A  F024         	goto	u4911
 10672   004850  EF2C  F024         	goto	u4910
 10673   004854                     u4911:
 10674   004854  EF31  F024         	goto	l4191
 10675   004858                     u4910:
 10676   004858                     
 10677                           ;lcd_i2c.c: 91:         address = 0x80 + col;
 10678   004858  500B               	movf	LCD_SetCursor@col^0,w,c
 10679   00485A  0F80               	addlw	128
 10680   00485C  6E0A               	movwf	LCD_SetCursor@address^0,c
 10681                           
 10682                           ;lcd_i2c.c: 92:     } else {
 10683   00485E  EF34  F024         	goto	l4193
 10684   004862                     l4191:
 10685                           
 10686                           ;lcd_i2c.c: 93:         address = 0xC0 + col;
 10687   004862  500B               	movf	LCD_SetCursor@col^0,w,c
 10688   004864  0FC0               	addlw	192
 10689   004866  6E0A               	movwf	LCD_SetCursor@address^0,c
 10690   004868                     l4193:
 10691                           
 10692                           ;lcd_i2c.c: 95:     LCD_SendCommand(address);
 10693   004868  500A               	movf	LCD_SetCursor@address^0,w,c
 10694   00486A  EC5A  F024         	call	_LCD_SendCommand
 10695   00486E  0012               	return		;funcret
 10696   004870                     __end_of_LCD_SetCursor:
 10697                           	callstack 0
 10698                           
 10699 ;; *************** function _LCD_PrintString *****************
 10700 ;; Defined at:
 10701 ;;		line 98 in file "lcd_i2c.c"
 10702 ;; Parameters:    Size  Location     Type
 10703 ;;  str             2    8[COMRAM] PTR const unsigned char 
 10704 ;;		 -> STR_10(6), STR_9(8), main@tensaoBuffer(16), STR_8(6), 
 10705 ;;		 -> STR_7(7), main@tempBuffer(16), STR_6(18), STR_5(17), 
 10706 ;;		 -> STR_4(17), STR_3(18), 
 10707 ;; Auto vars:     Size  Location     Type
 10708 ;;		None
 10709 ;; Return value:  Size  Location     Type
 10710 ;;                  1    wreg      void 
 10711 ;; Registers used:
 10712 ;;		wreg, fsr1l, fsr1h, status,2, status,0, tblptrl, tblptrh, tblptru, cstack
 10713 ;; Tracked objects:
 10714 ;;		On entry : 0/0
 10715 ;;		On exit  : 0/0
 10716 ;;		Unchanged: 0/0
 10717 ;; Data sizes:     COMRAM   BANK0   BANK1   BANK2   BANK3   BANK4   BANK5   BANK6   BANK7   BANK8   BANK9  BANK10  BANK1
      +1  BANK12
 10718 ;;      Params:         2       0       0       0       0       0       0       0       0       0       0       0       
      +0       0
 10719 ;;      Locals:         0       0       0       0       0       0       0       0       0       0       0       0       
      +0       0
 10720 ;;      Temps:          0       0       0       0       0       0       0       0       0       0       0       0       
      +0       0
 10721 ;;      Totals:         2       0       0       0       0       0       0       0       0       0       0       0       
      +0       0
 10722 ;;Total ram usage:        2 bytes
 10723 ;; Hardware stack levels used: 1
 10724 ;; Hardware stack levels required when called: 2
 10725 ;; This function calls:
 10726 ;;		_LCD_SendData
 10727 ;; This function is called by:
 10728 ;;		_main
 10729 ;; This function uses a non-reentrant model
 10730 ;;
 10731                           
 10732                           	psect	text32
 10733   0045B6                     __ptext32:
 10734                           	callstack 0
 10735   0045B6                     _LCD_PrintString:
 10736                           	callstack 28
 10737   0045B6                     
 10738                           ;lcd_i2c.c: 99:     while (*str) {
 10739   0045B6  EFF2  F022         	goto	l4185
 10740   0045BA                     l4181:
 10741                           
 10742                           ;lcd_i2c.c: 100:         LCD_SendData(*str++);
 10743   0045BA  C009  FFF6         	movff	LCD_PrintString@str,tblptrl
 10744   0045BE  C00A  FFF7         	movff	LCD_PrintString@str+1,tblptrh
 10745   0045C2  0E00               	movlw	low (__smallconst shr (0+16))
 10746   0045C4  6EF8               	movwf	tblptru,c
 10747   0045C6  0E0F               	movlw	(high __ramtop+-1)
 10748   0045C8  64F7               	cpfsgt	tblptrh,c
 10749   0045CA  D003               	bra	u4887
 10750   0045CC  0008               	tblrd		*
 10751   0045CE  50F5               	movf	tablat,w,c
 10752   0045D0  D005               	bra	u4880
 10753   0045D2                     u4887:
 10754   0045D2  CFF6 FFE1          	movff	tblptrl,fsr1l
 10755   0045D6  CFF7 FFE2          	movff	tblptrh,fsr1h
 10756   0045DA  50E7               	movf	indf1,w,c
 10757   0045DC                     u4880:
 10758   0045DC  EC4B  F024         	call	_LCD_SendData
 10759   0045E0  4A09               	infsnz	LCD_PrintString@str^0,f,c
 10760   0045E2  2A0A               	incf	(LCD_PrintString@str+1)^0,f,c
 10761   0045E4                     l4185:
 10762                           
 10763                           ;lcd_i2c.c: 99:     while (*str) {
 10764   0045E4  C009  FFF6         	movff	LCD_PrintString@str,tblptrl
 10765   0045E8  C00A  FFF7         	movff	LCD_PrintString@str+1,tblptrh
 10766   0045EC  0E00               	movlw	low (__smallconst shr (0+16))
 10767   0045EE  6EF8               	movwf	tblptru,c
 10768   0045F0  0E0F               	movlw	(high __ramtop+-1)
 10769   0045F2  64F7               	cpfsgt	tblptrh,c
 10770   0045F4  D003               	bra	u4897
 10771   0045F6  0008               	tblrd		*
 10772   0045F8  50F5               	movf	tablat,w,c
 10773   0045FA  D005               	bra	u4890
 10774   0045FC                     u4897:
 10775   0045FC  CFF6 FFE1          	movff	tblptrl,fsr1l
 10776   004600  CFF7 FFE2          	movff	tblptrh,fsr1h
 10777   004604  50E7               	movf	indf1,w,c
 10778   004606                     u4890:
 10779   004606  0900               	iorlw	0
 10780   004608  A4D8               	btfss	status,2,c
 10781   00460A  EF09  F023         	goto	u4901
 10782   00460E  EF0B  F023         	goto	u4900
 10783   004612                     u4901:
 10784   004612  EFDD  F022         	goto	l4181
 10785   004616                     u4900:
 10786   004616  0012               	return		;funcret
 10787   004618                     __end_of_LCD_PrintString:
 10788                           	callstack 0
 10789                           
 10790 ;; *************** function _LCD_SendData *****************
 10791 ;; Defined at:
 10792 ;;		line 54 in file "lcd_i2c.c"
 10793 ;; Parameters:    Size  Location     Type
 10794 ;;  data            1    wreg     unsigned char 
 10795 ;; Auto vars:     Size  Location     Type
 10796 ;;  data            1    7[COMRAM] unsigned char 
 10797 ;; Return value:  Size  Location     Type
 10798 ;;                  1    wreg      void 
 10799 ;; Registers used:
 10800 ;;		wreg, status,2, status,0, cstack
 10801 ;; Tracked objects:
 10802 ;;		On entry : 0/0
 10803 ;;		On exit  : 0/0
 10804 ;;		Unchanged: 0/0
 10805 ;; Data sizes:     COMRAM   BANK0   BANK1   BANK2   BANK3   BANK4   BANK5   BANK6   BANK7   BANK8   BANK9  BANK10  BANK1
      +1  BANK12
 10806 ;;      Params:         0       0       0       0       0       0       0       0       0       0       0       0       
      +0       0
 10807 ;;      Locals:         1       0       0       0       0       0       0       0       0       0       0       0       
      +0       0
 10808 ;;      Temps:          0       0       0       0       0       0       0       0       0       0       0       0       
      +0       0
 10809 ;;      Totals:         1       0       0       0       0       0       0       0       0       0       0       0       
      +0       0
 10810 ;;Total ram usage:        1 bytes
 10811 ;; Hardware stack levels used: 1
 10812 ;; Hardware stack levels required when called: 1
 10813 ;; This function calls:
 10814 ;;		_LCD_Write_Nibble
 10815 ;; This function is called by:
 10816 ;;		_LCD_PrintString
 10817 ;; This function uses a non-reentrant model
 10818 ;;
 10819                           
 10820                           	psect	text33
 10821   004896                     __ptext33:
 10822                           	callstack 0
 10823   004896                     _LCD_SendData:
 10824                           	callstack 28
 10825                           
 10826                           ;incstack = 0
 10827                           ;LCD_SendData@data stored from wreg
 10828   004896  6E08               	movwf	LCD_SendData@data^0,c
 10829   004898                     
 10830                           ;lcd_i2c.c: 55:     LCD_Write_Nibble(data & 0xF0, (1 << 0));
 10831   004898  0E01               	movlw	1
 10832   00489A  6E05               	movwf	LCD_Write_Nibble@rs^0,c
 10833   00489C  5008               	movf	LCD_SendData@data^0,w,c
 10834   00489E  0BF0               	andlw	240
 10835   0048A0  EC84  F024         	call	_LCD_Write_Nibble
 10836                           
 10837                           ;lcd_i2c.c: 56:     LCD_Write_Nibble((data << 4) & 0xF0, (1 << 0));
 10838   0048A4  0E01               	movlw	1
 10839   0048A6  6E05               	movwf	LCD_Write_Nibble@rs^0,c
 10840   0048A8  3808               	swapf	LCD_SendData@data^0,w,c
 10841   0048AA  0BF0               	andlw	240
 10842   0048AC  0BF0               	andlw	240
 10843   0048AE  EC84  F024         	call	_LCD_Write_Nibble
 10844   0048B2  0012               	return		;funcret
 10845   0048B4                     __end_of_LCD_SendData:
 10846                           	callstack 0
 10847                           
 10848 ;; *************** function _LCD_Init *****************
 10849 ;; Defined at:
 10850 ;;		line 59 in file "lcd_i2c.c"
 10851 ;; Parameters:    Size  Location     Type
 10852 ;;		None
 10853 ;; Auto vars:     Size  Location     Type
 10854 ;;		None
 10855 ;; Return value:  Size  Location     Type
 10856 ;;                  1    wreg      void 
 10857 ;; Registers used:
 10858 ;;		wreg, status,2, status,0, cstack
 10859 ;; Tracked objects:
 10860 ;;		On entry : 0/0
 10861 ;;		On exit  : 0/0
 10862 ;;		Unchanged: 0/0
 10863 ;; Data sizes:     COMRAM   BANK0   BANK1   BANK2   BANK3   BANK4   BANK5   BANK6   BANK7   BANK8   BANK9  BANK10  BANK1
      +1  BANK12
 10864 ;;      Params:         0       0       0       0       0       0       0       0       0       0       0       0       
      +0       0
 10865 ;;      Locals:         0       0       0       0       0       0       0       0       0       0       0       0       
      +0       0
 10866 ;;      Temps:          1       0       0       0       0       0       0       0       0       0       0       0       
      +0       0
 10867 ;;      Totals:         1       0       0       0       0       0       0       0       0       0       0       0       
      +0       0
 10868 ;;Total ram usage:        1 bytes
 10869 ;; Hardware stack levels used: 1
 10870 ;; Hardware stack levels required when called: 1
 10871 ;; This function calls:
 10872 ;;		_I2C_Init
 10873 ;;		_LCD_SendCommand
 10874 ;;		_LCD_Write_Nibble
 10875 ;; This function is called by:
 10876 ;;		_main
 10877 ;; This function uses a non-reentrant model
 10878 ;;
 10879                           
 10880                           	psect	text34
 10881   0043DE                     __ptext34:
 10882                           	callstack 0
 10883   0043DE                     _LCD_Init:
 10884                           	callstack 29
 10885   0043DE                     
 10886                           ;lcd_i2c.c: 60:     I2C_Init();
 10887   0043DE  ECA6  F024         	call	_I2C_Init	;wreg free
 10888   0043E2                     
 10889                           ;lcd_i2c.c: 63:     _delay((unsigned long)((40)*(8000000/4000.0)));
 10890   0043E2  0E68               	movlw	104
 10891   0043E4  6E09               	movwf	??_LCD_Init^0,c
 10892   0043E6  0EE4               	movlw	228
 10893   0043E8                     u6217:
 10894   0043E8  2EE8               	decfsz	wreg,f,c
 10895   0043EA  D7FE               	bra	u6217
 10896   0043EC  2E09               	decfsz	??_LCD_Init^0,f,c
 10897   0043EE  D7FC               	bra	u6217
 10898   0043F0  D000               	nop2	
 10899   0043F2                     
 10900                           ;lcd_i2c.c: 65:     LCD_Write_Nibble(0x30, 0);
 10901   0043F2  0E00               	movlw	0
 10902   0043F4  6E05               	movwf	LCD_Write_Nibble@rs^0,c
 10903   0043F6  0E30               	movlw	48
 10904   0043F8  EC84  F024         	call	_LCD_Write_Nibble
 10905   0043FC                     
 10906                           ;lcd_i2c.c: 66:     _delay((unsigned long)((5)*(8000000/4000.0)));
 10907   0043FC  0E0D               	movlw	13
 10908   0043FE  6E09               	movwf	??_LCD_Init^0,c
 10909   004400  0EFC               	movlw	252
 10910   004402                     u6227:
 10911   004402  2EE8               	decfsz	wreg,f,c
 10912   004404  D7FE               	bra	u6227
 10913   004406  2E09               	decfsz	??_LCD_Init^0,f,c
 10914   004408  D7FC               	bra	u6227
 10915   00440A                     
 10916                           ;lcd_i2c.c: 67:     LCD_Write_Nibble(0x30, 0);
 10917   00440A  0E00               	movlw	0
 10918   00440C  6E05               	movwf	LCD_Write_Nibble@rs^0,c
 10919   00440E  0E30               	movlw	48
 10920   004410  EC84  F024         	call	_LCD_Write_Nibble
 10921   004414                     
 10922                           ;lcd_i2c.c: 68:     _delay((unsigned long)((1)*(8000000/4000.0)));
 10923   004414  0E03               	movlw	3
 10924   004416  6E09               	movwf	??_LCD_Init^0,c
 10925   004418  0E98               	movlw	152
 10926   00441A                     u6237:
 10927   00441A  2EE8               	decfsz	wreg,f,c
 10928   00441C  D7FE               	bra	u6237
 10929   00441E  2E09               	decfsz	??_LCD_Init^0,f,c
 10930   004420  D7FC               	bra	u6237
 10931   004422                     
 10932                           ;lcd_i2c.c: 69:     LCD_Write_Nibble(0x30, 0);
 10933   004422  0E00               	movlw	0
 10934   004424  6E05               	movwf	LCD_Write_Nibble@rs^0,c
 10935   004426  0E30               	movlw	48
 10936   004428  EC84  F024         	call	_LCD_Write_Nibble
 10937   00442C                     
 10938                           ;lcd_i2c.c: 70:     _delay((unsigned long)((100)*(8000000/4000000.0)));
 10939   00442C  0E42               	movlw	66
 10940   00442E                     u6247:
 10941   00442E  2EE8               	decfsz	wreg,f,c
 10942   004430  D7FE               	bra	u6247
 10943   004432  D000               	nop2	
 10944   004434                     
 10945                           ;lcd_i2c.c: 72:     LCD_Write_Nibble(0x20, 0);
 10946   004434  0E00               	movlw	0
 10947   004436  6E05               	movwf	LCD_Write_Nibble@rs^0,c
 10948   004438  0E20               	movlw	32
 10949   00443A  EC84  F024         	call	_LCD_Write_Nibble
 10950   00443E                     
 10951                           ;lcd_i2c.c: 73:     _delay((unsigned long)((100)*(8000000/4000000.0)));
 10952   00443E  0E42               	movlw	66
 10953   004440                     u6257:
 10954   004440  2EE8               	decfsz	wreg,f,c
 10955   004442  D7FE               	bra	u6257
 10956   004444  D000               	nop2	
 10957   004446                     
 10958                           ;lcd_i2c.c: 75:     LCD_SendCommand(0x28);
 10959   004446  0E28               	movlw	40
 10960   004448  EC5A  F024         	call	_LCD_SendCommand
 10961   00444C                     
 10962                           ;lcd_i2c.c: 76:     LCD_SendCommand(0x08);
 10963   00444C  0E08               	movlw	8
 10964   00444E  EC5A  F024         	call	_LCD_SendCommand
 10965   004452                     
 10966                           ;lcd_i2c.c: 77:     LCD_SendCommand(0x01);
 10967   004452  0E01               	movlw	1
 10968   004454  EC5A  F024         	call	_LCD_SendCommand
 10969   004458                     
 10970                           ;lcd_i2c.c: 78:     _delay((unsigned long)((2)*(8000000/4000.0)));
 10971   004458  0E06               	movlw	6
 10972   00445A  6E09               	movwf	??_LCD_Init^0,c
 10973   00445C  0E30               	movlw	48
 10974   00445E                     u6267:
 10975   00445E  2EE8               	decfsz	wreg,f,c
 10976   004460  D7FE               	bra	u6267
 10977   004462  2E09               	decfsz	??_LCD_Init^0,f,c
 10978   004464  D7FC               	bra	u6267
 10979   004466  D000               	nop2	
 10980   004468                     
 10981                           ;lcd_i2c.c: 79:     LCD_SendCommand(0x06);
 10982   004468  0E06               	movlw	6
 10983   00446A  EC5A  F024         	call	_LCD_SendCommand
 10984   00446E                     
 10985                           ;lcd_i2c.c: 80:     LCD_SendCommand(0x0C);
 10986   00446E  0E0C               	movlw	12
 10987   004470  EC5A  F024         	call	_LCD_SendCommand
 10988   004474  0012               	return		;funcret
 10989   004476                     __end_of_LCD_Init:
 10990                           	callstack 0
 10991                           
 10992 ;; *************** function _I2C_Init *****************
 10993 ;; Defined at:
 10994 ;;		line 18 in file "i2c.c"
 10995 ;; Parameters:    Size  Location     Type
 10996 ;;		None
 10997 ;; Auto vars:     Size  Location     Type
 10998 ;;		None
 10999 ;; Return value:  Size  Location     Type
 11000 ;;                  1    wreg      void 
 11001 ;; Registers used:
 11002 ;;		wreg, status,2
 11003 ;; Tracked objects:
 11004 ;;		On entry : 0/0
 11005 ;;		On exit  : 0/0
 11006 ;;		Unchanged: 0/0
 11007 ;; Data sizes:     COMRAM   BANK0   BANK1   BANK2   BANK3   BANK4   BANK5   BANK6   BANK7   BANK8   BANK9  BANK10  BANK1
      +1  BANK12
 11008 ;;      Params:         0       0       0       0       0       0       0       0       0       0       0       0       
      +0       0
 11009 ;;      Locals:         0       0       0       0       0       0       0       0       0       0       0       0       
      +0       0
 11010 ;;      Temps:          0       0       0       0       0       0       0       0       0       0       0       0       
      +0       0
 11011 ;;      Totals:         0       0       0       0       0       0       0       0       0       0       0       0       
      +0       0
 11012 ;;Total ram usage:        0 bytes
 11013 ;; Hardware stack levels used: 1
 11014 ;; This function calls:
 11015 ;;		Nothing
 11016 ;; This function is called by:
 11017 ;;		_LCD_Init
 11018 ;; This function uses a non-reentrant model
 11019 ;;
 11020                           
 11021                           	psect	text35
 11022   00494C                     __ptext35:
 11023                           	callstack 0
 11024   00494C                     _I2C_Init:
 11025                           	callstack 29
 11026   00494C                     
 11027                           ;i2c.c: 21:     TRISCbits.TRISC3 = 1;
 11028   00494C  8694               	bsf	148,3,c	;volatile
 11029                           
 11030                           ;i2c.c: 22:     TRISCbits.TRISC4 = 1;
 11031   00494E  8894               	bsf	148,4,c	;volatile
 11032   004950                     
 11033                           ;i2c.c: 25:     SSPSTAT = 0x80;
 11034   004950  0E80               	movlw	128
 11035   004952  6EC7               	movwf	199,c	;volatile
 11036                           
 11037                           ;i2c.c: 26:     SSPCON1 = 0x28;
 11038   004954  0E28               	movlw	40
 11039   004956  6EC6               	movwf	198,c	;volatile
 11040   004958                     
 11041                           ;i2c.c: 27:     SSPCON2 = 0x00;
 11042   004958  6AC5               	clrf	197,c	;volatile
 11043                           
 11044                           ;i2c.c: 32:     SSPADD = (8000000 / (4 * 100000UL)) - 1;
 11045   00495A  0E13               	movlw	19
 11046   00495C  6EC8               	movwf	200,c	;volatile
 11047   00495E  0012               	return		;funcret
 11048   004960                     __end_of_I2C_Init:
 11049                           	callstack 0
 11050                           
 11051 ;; *************** function _LCD_Clear *****************
 11052 ;; Defined at:
 11053 ;;		line 83 in file "lcd_i2c.c"
 11054 ;; Parameters:    Size  Location     Type
 11055 ;;		None
 11056 ;; Auto vars:     Size  Location     Type
 11057 ;;		None
 11058 ;; Return value:  Size  Location     Type
 11059 ;;                  1    wreg      void 
 11060 ;; Registers used:
 11061 ;;		wreg, status,2, status,0, cstack
 11062 ;; Tracked objects:
 11063 ;;		On entry : 0/0
 11064 ;;		On exit  : 0/0
 11065 ;;		Unchanged: 0/0
 11066 ;; Data sizes:     COMRAM   BANK0   BANK1   BANK2   BANK3   BANK4   BANK5   BANK6   BANK7   BANK8   BANK9  BANK10  BANK1
      +1  BANK12
 11067 ;;      Params:         0       0       0       0       0       0       0       0       0       0       0       0       
      +0       0
 11068 ;;      Locals:         0       0       0       0       0       0       0       0       0       0       0       0       
      +0       0
 11069 ;;      Temps:          1       0       0       0       0       0       0       0       0       0       0       0       
      +0       0
 11070 ;;      Totals:         1       0       0       0       0       0       0       0       0       0       0       0       
      +0       0
 11071 ;;Total ram usage:        1 bytes
 11072 ;; Hardware stack levels used: 1
 11073 ;; Hardware stack levels required when called: 6
 11074 ;; This function calls:
 11075 ;;		_LCD_SendCommand
 11076 ;; This function is called by:
 11077 ;;		_main
 11078 ;; This function uses a non-reentrant model
 11079 ;;
 11080                           
 11081                           	psect	text36
 11082   0048F0                     __ptext36:
 11083                           	callstack 0
 11084   0048F0                     _LCD_Clear:
 11085                           	callstack 24
 11086   0048F0                     
 11087                           ;lcd_i2c.c: 84:     LCD_SendCommand(0x01);
 11088   0048F0  0E01               	movlw	1
 11089   0048F2  EC5A  F024         	call	_LCD_SendCommand
 11090   0048F6                     
 11091                           ;lcd_i2c.c: 85:     _delay((unsigned long)((2)*(8000000/4000.0)));
 11092   0048F6  0E06               	movlw	6
 11093   0048F8  6E09               	movwf	??_LCD_Clear^0,c
 11094   0048FA  0E30               	movlw	48
 11095   0048FC                     u6277:
 11096   0048FC  2EE8               	decfsz	wreg,f,c
 11097   0048FE  D7FE               	bra	u6277
 11098   004900  2E09               	decfsz	??_LCD_Clear^0,f,c
 11099   004902  D7FC               	bra	u6277
 11100   004904  D000               	nop2	
 11101   004906  0012               	return		;funcret
 11102   004908                     __end_of_LCD_Clear:
 11103                           	callstack 0
 11104                           
 11105 ;; *************** function _LCD_SendCommand *****************
 11106 ;; Defined at:
 11107 ;;		line 49 in file "lcd_i2c.c"
 11108 ;; Parameters:    Size  Location     Type
 11109 ;;  cmd             1    wreg     unsigned char 
 11110 ;; Auto vars:     Size  Location     Type
 11111 ;;  cmd             1    7[COMRAM] unsigned char 
 11112 ;; Return value:  Size  Location     Type
 11113 ;;                  1    wreg      void 
 11114 ;; Registers used:
 11115 ;;		wreg, status,2, status,0, cstack
 11116 ;; Tracked objects:
 11117 ;;		On entry : 0/0
 11118 ;;		On exit  : 0/0
 11119 ;;		Unchanged: 0/0
 11120 ;; Data sizes:     COMRAM   BANK0   BANK1   BANK2   BANK3   BANK4   BANK5   BANK6   BANK7   BANK8   BANK9  BANK10  BANK1
      +1  BANK12
 11121 ;;      Params:         0       0       0       0       0       0       0       0       0       0       0       0       
      +0       0
 11122 ;;      Locals:         1       0       0       0       0       0       0       0       0       0       0       0       
      +0       0
 11123 ;;      Temps:          0       0       0       0       0       0       0       0       0       0       0       0       
      +0       0
 11124 ;;      Totals:         1       0       0       0       0       0       0       0       0       0       0       0       
      +0       0
 11125 ;;Total ram usage:        1 bytes
 11126 ;; Hardware stack levels used: 1
 11127 ;; This function calls:
 11128 ;;		_LCD_Write_Nibble
 11129 ;; This function is called by:
 11130 ;;		_LCD_Init
 11131 ;;		_LCD_Clear
 11132 ;;		_LCD_SetCursor
 11133 ;; This function uses a non-reentrant model
 11134 ;;
 11135                           
 11136                           	psect	text37
 11137   0048B4                     __ptext37:
 11138                           	callstack 0
 11139   0048B4                     _LCD_SendCommand:
 11140                           	callstack 29
 11141                           
 11142                           ;incstack = 0
 11143                           ;LCD_SendCommand@cmd stored from wreg
 11144   0048B4  6E08               	movwf	LCD_SendCommand@cmd^0,c
 11145   0048B6                     
 11146                           ;lcd_i2c.c: 50:     LCD_Write_Nibble(cmd & 0xF0, 0);
 11147   0048B6  0E00               	movlw	0
 11148   0048B8  6E05               	movwf	LCD_Write_Nibble@rs^0,c
 11149   0048BA  5008               	movf	LCD_SendCommand@cmd^0,w,c
 11150   0048BC  0BF0               	andlw	240
 11151   0048BE  EC84  F024         	call	_LCD_Write_Nibble
 11152                           
 11153                           ;lcd_i2c.c: 51:     LCD_Write_Nibble((cmd << 4) & 0xF0, 0);
 11154   0048C2  0E00               	movlw	0
 11155   0048C4  6E05               	movwf	LCD_Write_Nibble@rs^0,c
 11156   0048C6  3808               	swapf	LCD_SendCommand@cmd^0,w,c
 11157   0048C8  0BF0               	andlw	240
 11158   0048CA  0BF0               	andlw	240
 11159   0048CC  EC84  F024         	call	_LCD_Write_Nibble
 11160   0048D0  0012               	return		;funcret
 11161   0048D2                     __end_of_LCD_SendCommand:
 11162                           	callstack 0
 11163                           
 11164 ;; *************** function _LCD_Write_Nibble *****************
 11165 ;; Defined at:
 11166 ;;		line 41 in file "lcd_i2c.c"
 11167 ;; Parameters:    Size  Location     Type
 11168 ;;  nibble          1    wreg     unsigned char 
 11169 ;;  rs              1    4[COMRAM] unsigned char 
 11170 ;; Auto vars:     Size  Location     Type
 11171 ;;  nibble          1    5[COMRAM] unsigned char 
 11172 ;;  data            1    6[COMRAM] unsigned char 
 11173 ;; Return value:  Size  Location     Type
 11174 ;;                  1    wreg      void 
 11175 ;; Registers used:
 11176 ;;		wreg, status,2, status,0, cstack
 11177 ;; Tracked objects:
 11178 ;;		On entry : 0/0
 11179 ;;		On exit  : 0/0
 11180 ;;		Unchanged: 0/0
 11181 ;; Data sizes:     COMRAM   BANK0   BANK1   BANK2   BANK3   BANK4   BANK5   BANK6   BANK7   BANK8   BANK9  BANK10  BANK1
      +1  BANK12
 11182 ;;      Params:         1       0       0       0       0       0       0       0       0       0       0       0       
      +0       0
 11183 ;;      Locals:         2       0       0       0       0       0       0       0       0       0       0       0       
      +0       0
 11184 ;;      Temps:          0       0       0       0       0       0       0       0       0       0       0       0       
      +0       0
 11185 ;;      Totals:         3       0       0       0       0       0       0       0       0       0       0       0       
      +0       0
 11186 ;;Total ram usage:        3 bytes
 11187 ;; Hardware stack levels used: 1
 11188 ;; This function calls:
 11189 ;;		_LCD_Pulse_EN
 11190 ;;		_LCD_Write_I2C
 11191 ;; This function is called by:
 11192 ;;		_LCD_SendCommand
 11193 ;;		_LCD_SendData
 11194 ;;		_LCD_Init
 11195 ;; This function uses a non-reentrant model
 11196 ;;
 11197                           
 11198                           	psect	text38
 11199   004908                     __ptext38:
 11200                           	callstack 0
 11201   004908                     _LCD_Write_Nibble:
 11202                           	callstack 28
 11203                           
 11204                           ;incstack = 0
 11205                           ;LCD_Write_Nibble@nibble stored from wreg
 11206   004908  6E06               	movwf	LCD_Write_Nibble@nibble^0,c
 11207   00490A                     
 11208                           ;lcd_i2c.c: 42:     uint8_t data = (nibble & 0xF0) | rs;
 11209   00490A  5006               	movf	LCD_Write_Nibble@nibble^0,w,c
 11210   00490C  0BF0               	andlw	240
 11211   00490E  1005               	iorwf	LCD_Write_Nibble@rs^0,w,c
 11212   004910  6E07               	movwf	LCD_Write_Nibble@data^0,c
 11213   004912                     
 11214                           ;lcd_i2c.c: 43:     LCD_Write_I2C(data);
 11215   004912  5007               	movf	LCD_Write_Nibble@data^0,w,c
 11216   004914  ECF1  F023         	call	_LCD_Write_I2C
 11217   004918                     
 11218                           ;lcd_i2c.c: 44:     LCD_Pulse_EN(data);
 11219   004918  5007               	movf	LCD_Write_Nibble@data^0,w,c
 11220   00491A  EC69  F024         	call	_LCD_Pulse_EN
 11221   00491E  0012               	return		;funcret
 11222   004920                     __end_of_LCD_Write_Nibble:
 11223                           	callstack 0
 11224                           
 11225 ;; *************** function _LCD_Pulse_EN *****************
 11226 ;; Defined at:
 11227 ;;		line 34 in file "lcd_i2c.c"
 11228 ;; Parameters:    Size  Location     Type
 11229 ;;  data            1    wreg     unsigned char 
 11230 ;; Auto vars:     Size  Location     Type
 11231 ;;  data            1    3[COMRAM] unsigned char 
 11232 ;; Return value:  Size  Location     Type
 11233 ;;                  1    wreg      void 
 11234 ;; Registers used:
 11235 ;;		wreg, status,2, status,0, cstack
 11236 ;; Tracked objects:
 11237 ;;		On entry : 0/0
 11238 ;;		On exit  : 0/0
 11239 ;;		Unchanged: 0/0
 11240 ;; Data sizes:     COMRAM   BANK0   BANK1   BANK2   BANK3   BANK4   BANK5   BANK6   BANK7   BANK8   BANK9  BANK10  BANK1
      +1  BANK12
 11241 ;;      Params:         0       0       0       0       0       0       0       0       0       0       0       0       
      +0       0
 11242 ;;      Locals:         1       0       0       0       0       0       0       0       0       0       0       0       
      +0       0
 11243 ;;      Temps:          0       0       0       0       0       0       0       0       0       0       0       0       
      +0       0
 11244 ;;      Totals:         1       0       0       0       0       0       0       0       0       0       0       0       
      +0       0
 11245 ;;Total ram usage:        1 bytes
 11246 ;; Hardware stack levels used: 1
 11247 ;; Hardware stack levels required when called: 3
 11248 ;; This function calls:
 11249 ;;		_LCD_Write_I2C
 11250 ;; This function is called by:
 11251 ;;		_LCD_Write_Nibble
 11252 ;; This function uses a non-reentrant model
 11253 ;;
 11254                           
 11255                           	psect	text39
 11256   0048D2                     __ptext39:
 11257                           	callstack 0
 11258   0048D2                     _LCD_Pulse_EN:
 11259                           	callstack 24
 11260                           
 11261                           ;incstack = 0
 11262                           ;LCD_Pulse_EN@data stored from wreg
 11263   0048D2  6E04               	movwf	LCD_Pulse_EN@data^0,c
 11264   0048D4                     
 11265                           ;lcd_i2c.c: 35:     LCD_Write_I2C(data | (1 << 2));
 11266   0048D4  5004               	movf	LCD_Pulse_EN@data^0,w,c
 11267   0048D6  0904               	iorlw	4
 11268   0048D8  ECF1  F023         	call	_LCD_Write_I2C
 11269   0048DC                     
 11270                           ;lcd_i2c.c: 36:     _delay((unsigned long)((1)*(8000000/4000000.0)));
 11271   0048DC  D000               	nop2		;2 cycle nop
 11272                           
 11273                           ;lcd_i2c.c: 37:     LCD_Write_I2C(data & ~(1 << 2));
 11274   0048DE  5004               	movf	LCD_Pulse_EN@data^0,w,c
 11275   0048E0  0BFB               	andlw	251
 11276   0048E2  ECF1  F023         	call	_LCD_Write_I2C
 11277   0048E6                     
 11278                           ;lcd_i2c.c: 38:     _delay((unsigned long)((50)*(8000000/4000000.0)));
 11279   0048E6  0E21               	movlw	33
 11280   0048E8                     u6287:
 11281   0048E8  2EE8               	decfsz	wreg,f,c
 11282   0048EA  D7FE               	bra	u6287
 11283   0048EC  0000               	nop	
 11284   0048EE  0012               	return		;funcret
 11285   0048F0                     __end_of_LCD_Pulse_EN:
 11286                           	callstack 0
 11287                           
 11288 ;; *************** function _LCD_Write_I2C *****************
 11289 ;; Defined at:
 11290 ;;		line 21 in file "lcd_i2c.c"
 11291 ;; Parameters:    Size  Location     Type
 11292 ;;  data            1    wreg     unsigned char 
 11293 ;; Auto vars:     Size  Location     Type
 11294 ;;  data            1    2[COMRAM] unsigned char 
 11295 ;; Return value:  Size  Location     Type
 11296 ;;                  1    wreg      void 
 11297 ;; Registers used:
 11298 ;;		wreg, status,2, status,0, cstack
 11299 ;; Tracked objects:
 11300 ;;		On entry : 0/0
 11301 ;;		On exit  : 0/0
 11302 ;;		Unchanged: 0/0
 11303 ;; Data sizes:     COMRAM   BANK0   BANK1   BANK2   BANK3   BANK4   BANK5   BANK6   BANK7   BANK8   BANK9  BANK10  BANK1
      +1  BANK12
 11304 ;;      Params:         0       0       0       0       0       0       0       0       0       0       0       0       
      +0       0
 11305 ;;      Locals:         1       0       0       0       0       0       0       0       0       0       0       0       
      +0       0
 11306 ;;      Temps:          0       0       0       0       0       0       0       0       0       0       0       0       
      +0       0
 11307 ;;      Totals:         1       0       0       0       0       0       0       0       0       0       0       0       
      +0       0
 11308 ;;Total ram usage:        1 bytes
 11309 ;; Hardware stack levels used: 1
 11310 ;; This function calls:
 11311 ;;		_I2C_Start
 11312 ;;		_I2C_Stop
 11313 ;;		_I2C_Write
 11314 ;; This function is called by:
 11315 ;;		_LCD_Pulse_EN
 11316 ;;		_LCD_Write_Nibble
 11317 ;; This function uses a non-reentrant model
 11318 ;;
 11319                           
 11320                           	psect	text40
 11321   0047E2                     __ptext40:
 11322                           	callstack 0
 11323   0047E2                     _LCD_Write_I2C:
 11324                           	callstack 26
 11325                           
 11326                           ;incstack = 0
 11327                           ;LCD_Write_I2C@data stored from wreg
 11328   0047E2  6E03               	movwf	LCD_Write_I2C@data^0,c
 11329   0047E4                     
 11330                           ;lcd_i2c.c: 22:     I2C_Start();
 11331   0047E4  EC9B  F024         	call	_I2C_Start	;wreg free
 11332                           
 11333                           ;lcd_i2c.c: 23:     if (I2C_Write((0x27 << 1))) {
 11334   0047E8  0E4E               	movlw	78
 11335   0047EA  EC0A  F024         	call	_I2C_Write
 11336   0047EE  0900               	iorlw	0
 11337   0047F0  B4D8               	btfsc	status,2,c
 11338   0047F2  EFFD  F023         	goto	u2961
 11339   0047F6  EFFF  F023         	goto	u2960
 11340   0047FA                     u2961:
 11341   0047FA  EF03  F024         	goto	l3055
 11342   0047FE                     u2960:
 11343   0047FE                     l3051:
 11344                           
 11345                           ;lcd_i2c.c: 24:         I2C_Stop();
 11346   0047FE  EC90  F024         	call	_I2C_Stop	;wreg free
 11347   004802  EF09  F024         	goto	l145
 11348   004806                     l3055:
 11349                           
 11350                           ;lcd_i2c.c: 27:     if (I2C_Write(data | backlight_status)) {
 11351   004806  5003               	movf	LCD_Write_I2C@data^0,w,c
 11352   004808  0908               	iorlw	8
 11353   00480A  EC0A  F024         	call	_I2C_Write
 11354   00480E  EFFF  F023         	goto	l3051
 11355   004812                     l145:
 11356   004812  0012               	return		;funcret
 11357   004814                     __end_of_LCD_Write_I2C:
 11358                           	callstack 0
 11359                           
 11360 ;; *************** function _I2C_Write *****************
 11361 ;; Defined at:
 11362 ;;		line 48 in file "i2c.c"
 11363 ;; Parameters:    Size  Location     Type
 11364 ;;  data            1    wreg     unsigned char 
 11365 ;; Auto vars:     Size  Location     Type
 11366 ;;  data            1    1[COMRAM] unsigned char 
 11367 ;; Return value:  Size  Location     Type
 11368 ;;                  1    wreg      unsigned char 
 11369 ;; Registers used:
 11370 ;;		wreg, status,2, status,0, cstack
 11371 ;; Tracked objects:
 11372 ;;		On entry : 0/0
 11373 ;;		On exit  : 0/0
 11374 ;;		Unchanged: 0/0
 11375 ;; Data sizes:     COMRAM   BANK0   BANK1   BANK2   BANK3   BANK4   BANK5   BANK6   BANK7   BANK8   BANK9  BANK10  BANK1
      +1  BANK12
 11376 ;;      Params:         0       0       0       0       0       0       0       0       0       0       0       0       
      +0       0
 11377 ;;      Locals:         1       0       0       0       0       0       0       0       0       0       0       0       
      +0       0
 11378 ;;      Temps:          0       0       0       0       0       0       0       0       0       0       0       0       
      +0       0
 11379 ;;      Totals:         1       0       0       0       0       0       0       0       0       0       0       0       
      +0       0
 11380 ;;Total ram usage:        1 bytes
 11381 ;; Hardware stack levels used: 1
 11382 ;; Hardware stack levels required when called: 1
 11383 ;; This function calls:
 11384 ;;		_I2C_Wait
 11385 ;; This function is called by:
 11386 ;;		_LCD_Write_I2C
 11387 ;; This function uses a non-reentrant model
 11388 ;;
 11389                           
 11390                           	psect	text41
 11391   004814                     __ptext41:
 11392                           	callstack 0
 11393   004814                     _I2C_Write:
 11394                           	callstack 24
 11395                           
 11396                           ;incstack = 0
 11397                           ;I2C_Write@data stored from wreg
 11398   004814  6E02               	movwf	I2C_Write@data^0,c
 11399   004816                     
 11400                           ;i2c.c: 49:     I2C_Wait();
 11401   004816  EC38  F024         	call	_I2C_Wait	;wreg free
 11402   00481A                     
 11403                           ;i2c.c: 50:     SSPBUF = data;
 11404   00481A  C002  FFC9         	movff	I2C_Write@data,4041	;volatile
 11405   00481E                     l107:
 11406   00481E  A69E               	btfss	158,3,c	;volatile
 11407   004820  EF14  F024         	goto	u2711
 11408   004824  EF16  F024         	goto	u2710
 11409   004828                     u2711:
 11410   004828  EF0F  F024         	goto	l107
 11411   00482C                     u2710:
 11412   00482C                     
 11413                           ;i2c.c: 52:     PIR1bits.SSPIF = 0;
 11414   00482C  969E               	bcf	158,3,c	;volatile
 11415                           
 11416                           ;i2c.c: 55:     if(SSPCON2bits.ACKSTAT) {
 11417   00482E  ACC5               	btfss	197,6,c	;volatile
 11418   004830  EF1C  F024         	goto	u2721
 11419   004834  EF1E  F024         	goto	u2720
 11420   004838                     u2721:
 11421   004838  EF21  F024         	goto	l2903
 11422   00483C                     u2720:
 11423   00483C                     
 11424                           ;i2c.c: 56:         return 1;
 11425   00483C  0E01               	movlw	1
 11426   00483E  EF22  F024         	goto	l111
 11427   004842                     l2903:
 11428                           
 11429                           ;i2c.c: 58:     return 0;
 11430   004842  0E00               	movlw	0
 11431   004844                     l111:
 11432   004844  0012               	return		;funcret
 11433   004846                     __end_of_I2C_Write:
 11434                           	callstack 0
 11435                           
 11436 ;; *************** function _I2C_Stop *****************
 11437 ;; Defined at:
 11438 ;;		line 41 in file "i2c.c"
 11439 ;; Parameters:    Size  Location     Type
 11440 ;;		None
 11441 ;; Auto vars:     Size  Location     Type
 11442 ;;		None
 11443 ;; Return value:  Size  Location     Type
 11444 ;;                  1    wreg      void 
 11445 ;; Registers used:
 11446 ;;		wreg, status,2, status,0, cstack
 11447 ;; Tracked objects:
 11448 ;;		On entry : 0/0
 11449 ;;		On exit  : 0/0
 11450 ;;		Unchanged: 0/0
 11451 ;; Data sizes:     COMRAM   BANK0   BANK1   BANK2   BANK3   BANK4   BANK5   BANK6   BANK7   BANK8   BANK9  BANK10  BANK1
      +1  BANK12
 11452 ;;      Params:         0       0       0       0       0       0       0       0       0       0       0       0       
      +0       0
 11453 ;;      Locals:         0       0       0       0       0       0       0       0       0       0       0       0       
      +0       0
 11454 ;;      Temps:          0       0       0       0       0       0       0       0       0       0       0       0       
      +0       0
 11455 ;;      Totals:         0       0       0       0       0       0       0       0       0       0       0       0       
      +0       0
 11456 ;;Total ram usage:        0 bytes
 11457 ;; Hardware stack levels used: 1
 11458 ;; Hardware stack levels required when called: 1
 11459 ;; This function calls:
 11460 ;;		_I2C_Wait
 11461 ;; This function is called by:
 11462 ;;		_LCD_Write_I2C
 11463 ;; This function uses a non-reentrant model
 11464 ;;
 11465                           
 11466                           	psect	text42
 11467   004920                     __ptext42:
 11468                           	callstack 0
 11469   004920                     _I2C_Stop:
 11470                           	callstack 24
 11471   004920                     
 11472                           ;i2c.c: 42:     I2C_Wait();
 11473   004920  EC38  F024         	call	_I2C_Wait	;wreg free
 11474   004924                     
 11475                           ;i2c.c: 43:     SSPCON2bits.PEN = 1;
 11476   004924  84C5               	bsf	197,2,c	;volatile
 11477   004926                     l101:
 11478   004926  B4C5               	btfsc	197,2,c	;volatile
 11479   004928  EF98  F024         	goto	u2701
 11480   00492C  EF9A  F024         	goto	u2700
 11481   004930                     u2701:
 11482   004930  EF93  F024         	goto	l101
 11483   004934                     u2700:
 11484   004934  0012               	return		;funcret
 11485   004936                     __end_of_I2C_Stop:
 11486                           	callstack 0
 11487                           
 11488 ;; *************** function _I2C_Start *****************
 11489 ;; Defined at:
 11490 ;;		line 35 in file "i2c.c"
 11491 ;; Parameters:    Size  Location     Type
 11492 ;;		None
 11493 ;; Auto vars:     Size  Location     Type
 11494 ;;		None
 11495 ;; Return value:  Size  Location     Type
 11496 ;;                  1    wreg      void 
 11497 ;; Registers used:
 11498 ;;		wreg, status,2, status,0, cstack
 11499 ;; Tracked objects:
 11500 ;;		On entry : 0/0
 11501 ;;		On exit  : 0/0
 11502 ;;		Unchanged: 0/0
 11503 ;; Data sizes:     COMRAM   BANK0   BANK1   BANK2   BANK3   BANK4   BANK5   BANK6   BANK7   BANK8   BANK9  BANK10  BANK1
      +1  BANK12
 11504 ;;      Params:         0       0       0       0       0       0       0       0       0       0       0       0       
      +0       0
 11505 ;;      Locals:         0       0       0       0       0       0       0       0       0       0       0       0       
      +0       0
 11506 ;;      Temps:          0       0       0       0       0       0       0       0       0       0       0       0       
      +0       0
 11507 ;;      Totals:         0       0       0       0       0       0       0       0       0       0       0       0       
      +0       0
 11508 ;;Total ram usage:        0 bytes
 11509 ;; Hardware stack levels used: 1
 11510 ;; Hardware stack levels required when called: 1
 11511 ;; This function calls:
 11512 ;;		_I2C_Wait
 11513 ;; This function is called by:
 11514 ;;		_LCD_Write_I2C
 11515 ;; This function uses a non-reentrant model
 11516 ;;
 11517                           
 11518                           	psect	text43
 11519   004936                     __ptext43:
 11520                           	callstack 0
 11521   004936                     _I2C_Start:
 11522                           	callstack 24
 11523   004936                     
 11524                           ;i2c.c: 36:     I2C_Wait();
 11525   004936  EC38  F024         	call	_I2C_Wait	;wreg free
 11526   00493A                     
 11527                           ;i2c.c: 37:     SSPCON2bits.SEN = 1;
 11528   00493A  80C5               	bsf	197,0,c	;volatile
 11529   00493C                     l95:
 11530   00493C  B0C5               	btfsc	197,0,c	;volatile
 11531   00493E  EFA3  F024         	goto	u2691
 11532   004942  EFA5  F024         	goto	u2690
 11533   004946                     u2691:
 11534   004946  EF9E  F024         	goto	l95
 11535   00494A                     u2690:
 11536   00494A  0012               	return		;funcret
 11537   00494C                     __end_of_I2C_Start:
 11538                           	callstack 0
 11539                           
 11540 ;; *************** function _I2C_Wait *****************
 11541 ;; Defined at:
 11542 ;;		line 10 in file "i2c.c"
 11543 ;; Parameters:    Size  Location     Type
 11544 ;;		None
 11545 ;; Auto vars:     Size  Location     Type
 11546 ;;		None
 11547 ;; Return value:  Size  Location     Type
 11548 ;;                  1    wreg      void 
 11549 ;; Registers used:
 11550 ;;		wreg, status,2, status,0
 11551 ;; Tracked objects:
 11552 ;;		On entry : 0/0
 11553 ;;		On exit  : 0/0
 11554 ;;		Unchanged: 0/0
 11555 ;; Data sizes:     COMRAM   BANK0   BANK1   BANK2   BANK3   BANK4   BANK5   BANK6   BANK7   BANK8   BANK9  BANK10  BANK1
      +1  BANK12
 11556 ;;      Params:         0       0       0       0       0       0       0       0       0       0       0       0       
      +0       0
 11557 ;;      Locals:         0       0       0       0       0       0       0       0       0       0       0       0       
      +0       0
 11558 ;;      Temps:          1       0       0       0       0       0       0       0       0       0       0       0       
      +0       0
 11559 ;;      Totals:         1       0       0       0       0       0       0       0       0       0       0       0       
      +0       0
 11560 ;;Total ram usage:        1 bytes
 11561 ;; Hardware stack levels used: 1
 11562 ;; This function calls:
 11563 ;;		Nothing
 11564 ;; This function is called by:
 11565 ;;		_I2C_Start
 11566 ;;		_I2C_Stop
 11567 ;;		_I2C_Write
 11568 ;;		_I2C_Read_ACK
 11569 ;;		_I2C_Read_NACK
 11570 ;; This function uses a non-reentrant model
 11571 ;;
 11572                           
 11573                           	psect	text44
 11574   004870                     __ptext44:
 11575                           	callstack 0
 11576   004870                     _I2C_Wait:
 11577                           	callstack 24
 11578   004870                     l86:
 11579   004870  B4C7               	btfsc	199,2,c	;volatile
 11580   004872  EF3D  F024         	goto	u2661
 11581   004876  EF3F  F024         	goto	u2660
 11582   00487A                     u2661:
 11583   00487A  EF38  F024         	goto	l86
 11584   00487E                     u2660:
 11585   00487E  CFC5 F001          	movff	4037,??_I2C_Wait	;volatile
 11586   004882  0E1F               	movlw	31
 11587   004884  1601               	andwf	??_I2C_Wait^0,f,c
 11588   004886  A4D8               	btfss	status,2,c
 11589   004888  EF48  F024         	goto	u2671
 11590   00488C  EF4A  F024         	goto	u2670
 11591   004890                     u2671:
 11592   004890  EF38  F024         	goto	l86
 11593   004894                     u2670:
 11594   004894  0012               	return		;funcret
 11595   004896                     __end_of_I2C_Wait:
 11596                           	callstack 0
 11597                           
 11598 ;; *************** function _ADC_Read *****************
 11599 ;; Defined at:
 11600 ;;		line 20 in file "adc.c"
 11601 ;; Parameters:    Size  Location     Type
 11602 ;;  channel         1    wreg     unsigned char 
 11603 ;; Auto vars:     Size  Location     Type
 11604 ;;  channel         1    4[COMRAM] unsigned char 
 11605 ;; Return value:  Size  Location     Type
 11606 ;;                  2    0[COMRAM] unsigned int 
 11607 ;; Registers used:
 11608 ;;		wreg, status,2, status,0
 11609 ;; Tracked objects:
 11610 ;;		On entry : 0/0
 11611 ;;		On exit  : 0/0
 11612 ;;		Unchanged: 0/0
 11613 ;; Data sizes:     COMRAM   BANK0   BANK1   BANK2   BANK3   BANK4   BANK5   BANK6   BANK7   BANK8   BANK9  BANK10  BANK1
      +1  BANK12
 11614 ;;      Params:         2       0       0       0       0       0       0       0       0       0       0       0       
      +0       0
 11615 ;;      Locals:         1       0       0       0       0       0       0       0       0       0       0       0       
      +0       0
 11616 ;;      Temps:          2       0       0       0       0       0       0       0       0       0       0       0       
      +0       0
 11617 ;;      Totals:         5       0       0       0       0       0       0       0       0       0       0       0       
      +0       0
 11618 ;;Total ram usage:        5 bytes
 11619 ;; Hardware stack levels used: 1
 11620 ;; This function calls:
 11621 ;;		Nothing
 11622 ;; This function is called by:
 11623 ;;		_main
 11624 ;; This function uses a non-reentrant model
 11625 ;;
 11626                           
 11627                           	psect	text45
 11628   00465E                     __ptext45:
 11629                           	callstack 0
 11630   00465E                     _ADC_Read:
 11631                           	callstack 30
 11632                           
 11633                           ;incstack = 0
 11634                           ;ADC_Read@channel stored from wreg
 11635   00465E  6E05               	movwf	ADC_Read@channel^0,c
 11636   004660                     
 11637                           ;adc.c: 23:     ADCON0 = (ADCON0 & 0xC3) | ((channel << 2) & 0x3C);
 11638   004660  C005  F003         	movff	ADC_Read@channel,??_ADC_Read
 11639   004664  90D8               	bcf	status,0,c
 11640   004666  3603               	rlcf	??_ADC_Read^0,f,c
 11641   004668  90D8               	bcf	status,0,c
 11642   00466A  3603               	rlcf	??_ADC_Read^0,f,c
 11643   00466C  0E3C               	movlw	60
 11644   00466E  1603               	andwf	??_ADC_Read^0,f,c
 11645   004670  50C2               	movf	194,w,c	;volatile
 11646   004672  0BC3               	andlw	195
 11647   004674  1003               	iorwf	??_ADC_Read^0,w,c
 11648   004676  6EC2               	movwf	194,c	;volatile
 11649   004678                     
 11650                           ;adc.c: 26:     ADCON0bits.GO_DONE = 1;
 11651   004678  82C2               	bsf	194,1,c	;volatile
 11652   00467A                     l62:
 11653   00467A  B2C2               	btfsc	194,1,c	;volatile
 11654   00467C  EF42  F023         	goto	u4921
 11655   004680  EF44  F023         	goto	u4920
 11656   004684                     u4921:
 11657   004684  EF3D  F023         	goto	l62
 11658   004688                     u4920:
 11659   004688                     
 11660                           ;adc.c: 32:     return ((ADRESH << 8) | ADRESL);
 11661   004688  50C3               	movf	195,w,c	;volatile
 11662   00468A  CFC4 F003          	movff	4036,??_ADC_Read	;volatile
 11663   00468E  6A04               	clrf	(??_ADC_Read+1)^0,c
 11664   004690  C003  F004         	movff	??_ADC_Read,??_ADC_Read+1
 11665   004694  6A03               	clrf	??_ADC_Read^0,c
 11666   004696  1003               	iorwf	??_ADC_Read^0,w,c
 11667   004698  6E01               	movwf	?_ADC_Read^0,c
 11668   00469A  5004               	movf	(??_ADC_Read+1)^0,w,c
 11669   00469C  6E02               	movwf	(?_ADC_Read+1)^0,c
 11670   00469E  0012               	return		;funcret
 11671   0046A0                     __end_of_ADC_Read:
 11672                           	callstack 0
 11673                           
 11674 ;; *************** function _ADC_Init *****************
 11675 ;; Defined at:
 11676 ;;		line 4 in file "adc.c"
 11677 ;; Parameters:    Size  Location     Type
 11678 ;;		None
 11679 ;; Auto vars:     Size  Location     Type
 11680 ;;		None
 11681 ;; Return value:  Size  Location     Type
 11682 ;;                  1    wreg      void 
 11683 ;; Registers used:
 11684 ;;		wreg, status,2
 11685 ;; Tracked objects:
 11686 ;;		On entry : 0/0
 11687 ;;		On exit  : 0/0
 11688 ;;		Unchanged: 0/0
 11689 ;; Data sizes:     COMRAM   BANK0   BANK1   BANK2   BANK3   BANK4   BANK5   BANK6   BANK7   BANK8   BANK9  BANK10  BANK1
      +1  BANK12
 11690 ;;      Params:         0       0       0       0       0       0       0       0       0       0       0       0       
      +0       0
 11691 ;;      Locals:         0       0       0       0       0       0       0       0       0       0       0       0       
      +0       0
 11692 ;;      Temps:          0       0       0       0       0       0       0       0       0       0       0       0       
      +0       0
 11693 ;;      Totals:         0       0       0       0       0       0       0       0       0       0       0       0       
      +0       0
 11694 ;;Total ram usage:        0 bytes
 11695 ;; Hardware stack levels used: 1
 11696 ;; This function calls:
 11697 ;;		Nothing
 11698 ;; This function is called by:
 11699 ;;		_main
 11700 ;; This function uses a non-reentrant model
 11701 ;;
 11702                           
 11703                           	psect	text46
 11704   004960                     __ptext46:
 11705                           	callstack 0
 11706   004960                     _ADC_Init:
 11707                           	callstack 30
 11708   004960                     
 11709                           ;adc.c: 8:     ADCON1 = 0x0D;
 11710   004960  0E0D               	movlw	13
 11711   004962  6EC1               	movwf	193,c	;volatile
 11712                           
 11713                           ;adc.c: 14:     ADCON2 = 0xB5;
 11714   004964  0EB5               	movlw	181
 11715   004966  6EC0               	movwf	192,c	;volatile
 11716   004968                     
 11717                           ;adc.c: 17:     ADCON0bits.ADON = 1;
 11718   004968  80C2               	bsf	194,0,c	;volatile
 11719   00496A  0012               	return		;funcret
 11720   00496C                     __end_of_ADC_Init:
 11721                           	callstack 0
 11722                           
 11723                           	psect	rparam
 11724   000001                     ___rparam_used  equ	1
 11725   000000                     ___param_bank   equ	0
 11726   000000                     __Lparam        equ	__Lrparam
 11727   000000                     __Hparam        equ	__Hrparam
 11728                           
 11729                           	psect	config
 11730                           
 11731                           ; Padding undefined space
 11732   300000                     	org	3145728
 11733   300000  FF                 	db	255
 11734                           
 11735                           ;Config register CONFIG1H @ 0x300001
 11736                           ;	Oscillator Selection bits
 11737                           ;	OSC = IRCIO67, Internal oscillator block, port function on RA6 and RA7
 11738                           ;	Fail-Safe Clock Monitor Enable bit
 11739                           ;	FCMEN = OFF, Fail-Safe Clock Monitor disabled
 11740                           ;	Internal/External Oscillator Switchover bit
 11741                           ;	IESO = OFF, Oscillator Switchover mode disabled
 11742   300001                     	org	3145729
 11743   300001  08                 	db	8
 11744                           
 11745                           ;Config register CONFIG2L @ 0x300002
 11746                           ;	Power-up Timer Enable bit
 11747                           ;	PWRT = OFF, PWRT disabled
 11748                           ;	Brown-out Reset Enable bits
 11749                           ;	BOREN = OFF, Brown-out Reset disabled in hardware and software
 11750                           ;	Brown-out Reset Voltage bits
 11751                           ;	BORV = 3, VBOR set to 2.1V
 11752   300002                     	org	3145730
 11753   300002  19                 	db	25
 11754                           
 11755                           ;Config register CONFIG2H @ 0x300003
 11756                           ;	Watchdog Timer Enable bit
 11757                           ;	WDT = OFF, WDT disabled (control is placed on the SWDTEN bit)
 11758                           ;	Watchdog Timer Postscale Select bits
 11759                           ;	WDTPS = 32768, 1:32768
 11760   300003                     	org	3145731
 11761   300003  1E                 	db	30
 11762                           
 11763                           ; Padding undefined space
 11764   300004                     	org	3145732
 11765   300004  FF                 	db	255
 11766                           
 11767                           ;Config register CONFIG3H @ 0x300005
 11768                           ;	PORTB A/D Enable bit
 11769                           ;	PBADEN = OFF, PORTB<4:0> pins are configured as digital I/O on Reset
 11770                           ;	Low-Power Timer 1 Oscillator Enable bit
 11771                           ;	LPT1OSC = OFF, Timer1 configured for higher power operation
 11772                           ;	MCLR Pin Enable bit
 11773                           ;	MCLRE = ON, MCLR pin enabled; RE3 input pin disabled
 11774   300005                     	org	3145733
 11775   300005  80                 	db	128
 11776                           
 11777                           ;Config register CONFIG4L @ 0x300006
 11778                           ;	Stack Full/Underflow Reset Enable bit
 11779                           ;	STVREN = ON, Stack full/underflow will cause Reset
 11780                           ;	Single-Supply ICSP Enable bit
 11781                           ;	LVP = ON, Single-Supply ICSP enabled
 11782                           ;	Boot Block Size Select bits
 11783                           ;	BBSIZ = 1024, 1K words (2K bytes) Boot Block
 11784                           ;	Extended Instruction Set Enable bit
 11785                           ;	XINST = OFF, Instruction set extension and Indexed Addressing mode disabled (Legacy mo
      +                          de)
 11786                           ;	Background Debugger Enable bit
 11787                           ;	DEBUG = 0x1, unprogrammed default
 11788   300006                     	org	3145734
 11789   300006  85                 	db	133
 11790                           
 11791                           ; Padding undefined space
 11792   300007                     	org	3145735
 11793   300007  FF                 	db	255
 11794                           
 11795                           ;Config register CONFIG5L @ 0x300008
 11796                           ;	Code Protection bit
 11797                           ;	CP0 = OFF, Block 0 (000800-003FFFh) not code-protected
 11798                           ;	Code Protection bit
 11799                           ;	CP1 = OFF, Block 1 (004000-007FFFh) not code-protected
 11800                           ;	Code Protection bit
 11801                           ;	CP2 = OFF, Block 2 (008000-00BFFFh) not code-protected
 11802                           ;	Code Protection bit
 11803                           ;	CP3 = OFF, Block 3 (00C000-00FFFFh) not code-protected
 11804                           ;	Code Protection bit
 11805                           ;	CP4 = OFF, Block 4 (010000-013FFFh) not code-protected
 11806                           ;	Code Protection bit
 11807                           ;	CP5 = OFF, Block 5 (014000-017FFFh) not code-protected
 11808   300008                     	org	3145736
 11809   300008  3F                 	db	63
 11810                           
 11811                           ;Config register CONFIG5H @ 0x300009
 11812                           ;	Boot Block Code Protection bit
 11813                           ;	CPB = OFF, Boot block (000000-0007FFh) not code-protected
 11814                           ;	Data EEPROM Code Protection bit
 11815                           ;	CPD = OFF, Data EEPROM not code-protected
 11816   300009                     	org	3145737
 11817   300009  C0                 	db	192
 11818                           
 11819                           ;Config register CONFIG6L @ 0x30000A
 11820                           ;	Write Protection bit
 11821                           ;	WRT0 = OFF, Block 0 (000800-003FFFh) not write-protected
 11822                           ;	Write Protection bit
 11823                           ;	WRT1 = OFF, Block 1 (004000-007FFFh) not write-protected
 11824                           ;	Write Protection bit
 11825                           ;	WRT2 = OFF, Block 2 (008000-00BFFFh) not write-protected
 11826                           ;	Write Protection bit
 11827                           ;	WRT3 = OFF, Block 3 (00C000-00FFFFh) not write-protected
 11828                           ;	Write Protection bit
 11829                           ;	WRT4 = OFF, Block 4 (010000-013FFFh) not write-protected
 11830                           ;	Write Protection bit
 11831                           ;	WRT5 = OFF, Block 5 (014000-017FFFh) not write-protected
 11832   30000A                     	org	3145738
 11833   30000A  3F                 	db	63
 11834                           
 11835                           ;Config register CONFIG6H @ 0x30000B
 11836                           ;	Configuration Register Write Protection bit
 11837                           ;	WRTC = OFF, Configuration registers (300000-3000FFh) not write-protected
 11838                           ;	Boot Block Write Protection bit
 11839                           ;	WRTB = OFF, Boot block (000000-0007FFh) not write-protected
 11840                           ;	Data EEPROM Write Protection bit
 11841                           ;	WRTD = OFF, Data EEPROM not write-protected
 11842   30000B                     	org	3145739
 11843   30000B  E0                 	db	224
 11844                           
 11845                           ;Config register CONFIG7L @ 0x30000C
 11846                           ;	Table Read Protection bit
 11847                           ;	EBTR0 = OFF, Block 0 (000800-003FFFh) not protected from table reads executed in other
      +                           blocks
 11848                           ;	Table Read Protection bit
 11849                           ;	EBTR1 = OFF, Block 1 (004000-007FFFh) not protected from table reads executed in other
      +                           blocks
 11850                           ;	Table Read Protection bit
 11851                           ;	EBTR2 = OFF, Block 2 (008000-00BFFFh) not protected from table reads executed in other
      +                           blocks
 11852                           ;	Table Read Protection bit
 11853                           ;	EBTR3 = OFF, Block 3 (00C000-00FFFFh) not protected from table reads executed in other
      +                           blocks
 11854                           ;	Table Read Protection bit
 11855                           ;	EBTR4 = OFF, Block 4 (010000-013FFFh) not protected from table reads executed in other
      +                           blocks
 11856                           ;	Table Read Protection bit
 11857                           ;	EBTR5 = OFF, Block 5 (014000-017FFFh) not protected from table reads executed in other
      +                           blocks
 11858   30000C                     	org	3145740
 11859   30000C  3F                 	db	63
 11860                           
 11861                           ;Config register CONFIG7H @ 0x30000D
 11862                           ;	Boot Block Table Read Protection bit
 11863                           ;	EBTRB = OFF, Boot block (000000-0007FFh) not protected from table reads executed in ot
      +                          her blocks
 11864   30000D                     	org	3145741
 11865   30000D  40                 	db	64
 11866                           tosu	equ	0xFFF
 11867                           tosh	equ	0xFFE
 11868                           tosl	equ	0xFFD
 11869                           stkptr	equ	0xFFC
 11870                           pclatu	equ	0xFFB
 11871                           pclath	equ	0xFFA
 11872                           pcl	equ	0xFF9
 11873                           tblptru	equ	0xFF8
 11874                           tblptrh	equ	0xFF7
 11875                           tblptrl	equ	0xFF6
 11876                           tablat	equ	0xFF5
 11877                           prodh	equ	0xFF4
 11878                           prodl	equ	0xFF3
 11879                           indf0	equ	0xFEF
 11880                           postinc0	equ	0xFEE
 11881                           postdec0	equ	0xFED
 11882                           preinc0	equ	0xFEC
 11883                           plusw0	equ	0xFEB
 11884                           fsr0h	equ	0xFEA
 11885                           fsr0l	equ	0xFE9
 11886                           wreg	equ	0xFE8
 11887                           indf1	equ	0xFE7
 11888                           postinc1	equ	0xFE6
 11889                           postdec1	equ	0xFE5
 11890                           preinc1	equ	0xFE4
 11891                           plusw1	equ	0xFE3
 11892                           fsr1h	equ	0xFE2
 11893                           fsr1l	equ	0xFE1
 11894                           bsr	equ	0xFE0
 11895                           indf2	equ	0xFDF
 11896                           postinc2	equ	0xFDE
 11897                           postdec2	equ	0xFDD
 11898                           preinc2	equ	0xFDC
 11899                           plusw2	equ	0xFDB
 11900                           fsr2h	equ	0xFDA
 11901                           fsr2l	equ	0xFD9
 11902                           status	equ	0xFD8

Data Sizes:
    Strings     108
    Constant    24
    Data        1
    BSS         49
    Persistent  0
    Stack       0

Auto Spaces:
    Space          Size  Autos    Used
    COMRAM           95     94      95
    BANK0           160    146     159
    BANK1           256      0      36
    BANK2           256      0       0
    BANK3           256      0       0
    BANK4           256      0       0
    BANK5           256      0       0
    BANK6           256      0       0
    BANK7           256      0       0
    BANK8           256      0       0
    BANK9           256      0       0
    BANK10          256      0       0
    BANK11          256      0       0
    BANK12          256      0       0

Pointer List with Targets:

    ctoa@fp	PTR struct _IO_FILE size(1) Largest target is 12
		 -> sprintf@f(COMRAM[11]), 

    dtoa@fp	PTR struct _IO_FILE size(1) Largest target is 12
		 -> sprintf@f(COMRAM[11]), 

    f$.$buffer	PTR unsigned char  size(1) Largest target is 16
		 -> ftoa@format(BANK0[10]), main@tempBuffer(BANK0[16]), main@tensaoBuffer(BANK0[16]), 

    f$.$source	PTR const unsigned char  size(2) Largest target is 0

    fputc@fp	PTR struct _IO_FILE size(1) Largest target is 12
		 -> sprintf@f(COMRAM[11]), 

    fputc@fp$.$buffer	PTR unsigned char  size(1) Largest target is 16
		 -> ftoa@format(BANK0[10]), main@tempBuffer(BANK0[16]), main@tensaoBuffer(BANK0[16]), 

    fputc@fp$.$source	PTR const unsigned char  size(2) Largest target is 0

    fputs@fp	PTR struct _IO_FILE size(1) Largest target is 12
		 -> sprintf@f(COMRAM[11]), 

    fputs@s	PTR const unsigned char  size(2) Largest target is 32
		 -> dbuf(BANK1[32]), 

    ftoa$1574	PTR unsigned char  size(1) Largest target is 16
		 -> main@tempBuffer(BANK0[16]), main@tensaoBuffer(BANK0[16]), 

    ftoa@buffer	PTR unsigned char  size(1) Largest target is 16
		 -> main@tempBuffer(BANK0[16]), main@tensaoBuffer(BANK0[16]), 

    LCD_PrintString@str	PTR const unsigned char  size(2) Largest target is 18
		 -> main@tempBuffer(BANK0[16]), main@tensaoBuffer(BANK0[16]), STR_10(CODE[6]), STR_3(CODE[18]), 
		 -> STR_4(CODE[17]), STR_5(CODE[17]), STR_6(CODE[18]), STR_7(CODE[7]), 
		 -> STR_8(CODE[6]), STR_9(CODE[8]), 

    otoa@fp	PTR struct _IO_FILE size(1) Largest target is 12
		 -> sprintf@f(COMRAM[11]), 

    pad@buf	PTR unsigned char  size(2) Largest target is 32
		 -> dbuf(BANK1[32]), 

    pad@fp	PTR struct _IO_FILE size(1) Largest target is 12
		 -> sprintf@f(COMRAM[11]), 

    read_prec_or_width@ap	PTR PTR void [1] size(1) Largest target is 1
		 -> sprintf@ap(COMRAM[1]), 

    read_prec_or_width@fmt	PTR PTR const unsigned char  size(1) Largest target is 2
		 -> vfprintf@cfmt(COMRAM[2]), 

    S1145$buffer	PTR unsigned char  size(1) Largest target is 16
		 -> ftoa@format(BANK0[10]), main@tempBuffer(BANK0[16]), main@tensaoBuffer(BANK0[16]), 

    S1145$source	PTR const unsigned char  size(2) Largest target is 0

    sprintf@ap	PTR void [1] size(1) Largest target is 2
		 -> ?_sprintf(COMRAM[2]), 

    sprintf@fmt	PTR const unsigned char  size(2) Largest target is 10
		 -> ftoa@format(BANK0[10]), STR_1(CODE[4]), STR_2(CODE[7]), 

    sprintf@s	PTR unsigned char  size(1) Largest target is 16
		 -> ftoa@format(BANK0[10]), main@tempBuffer(BANK0[16]), main@tensaoBuffer(BANK0[16]), 

    strlen@a	PTR const unsigned char  size(2) Largest target is 32
		 -> dbuf(BANK1[32]), main@tempBuffer(BANK0[16]), main@tensaoBuffer(BANK0[16]), 

    strlen@s	PTR const unsigned char  size(2) Largest target is 32
		 -> dbuf(BANK1[32]), main@tempBuffer(BANK0[16]), main@tensaoBuffer(BANK0[16]), 

    utoa@fp	PTR struct _IO_FILE size(1) Largest target is 12
		 -> sprintf@f(COMRAM[11]), 

    vfpfcnvrt@ap	PTR PTR void  size(2) Largest target is 1
		 -> sprintf@ap(COMRAM[1]), 

    vfpfcnvrt@cp	PTR unsigned char  size(2) Largest target is 10
		 -> ftoa@format(BANK0[10]), STR_1(CODE[4]), STR_2(CODE[7]), 

    vfpfcnvrt@fmt	PTR PTR unsigned char  size(1) Largest target is 2
		 -> vfprintf@cfmt(COMRAM[2]), 

    vfpfcnvrt@fp	PTR struct _IO_FILE size(1) Largest target is 12
		 -> sprintf@f(COMRAM[11]), 

    vfprintf@ap	PTR PTR void  size(1) Largest target is 1
		 -> sprintf@ap(COMRAM[1]), 

    vfprintf@cfmt	PTR unsigned char  size(2) Largest target is 10
		 -> ftoa@format(BANK0[10]), STR_1(CODE[4]), STR_2(CODE[7]), 

    vfprintf@fmt	PTR const unsigned char  size(2) Largest target is 10
		 -> ftoa@format(BANK0[10]), STR_1(CODE[4]), STR_2(CODE[7]), 

    vfprintf@fp	PTR struct _IO_FILE size(1) Largest target is 12
		 -> sprintf@f(COMRAM[11]), 

    xtoa@fp	PTR struct _IO_FILE size(1) Largest target is 12
		 -> sprintf@f(COMRAM[11]), 


Critical Paths under _main in COMRAM

    _main->_logf
    _logf->___fldiv
    ___fldiv->___flsub
    _ftoa->_sprintf
    _sprintf->_vfprintf
    _vfprintf->_vfpfcnvrt
    _vfpfcnvrt->_xtoa
    _xtoa->_pad
    _utoa->_pad
    _otoa->_pad
    _dtoa->_pad
    _pad->_fputs
    _fputs->_fputc
    _abs->___awmod
    _ctoa->_fputc
    ___fltol->_fabsf
    ___flsub->___fladd
    ___fladd->___flmul
    ___flmul->___xxtofl
    ___flge->___flsub
    _LCD_SetCursor->_LCD_SendCommand
    _LCD_PrintString->_LCD_SendData
    _LCD_SendData->_LCD_Write_Nibble
    _LCD_Init->_LCD_SendCommand
    _LCD_Clear->_LCD_SendCommand
    _LCD_SendCommand->_LCD_Write_Nibble
    _LCD_Write_Nibble->_LCD_Pulse_EN
    _LCD_Pulse_EN->_LCD_Write_I2C
    _LCD_Write_I2C->_I2C_Write
    _I2C_Write->_I2C_Wait
    _I2C_Stop->_I2C_Wait
    _I2C_Start->_I2C_Wait

Critical Paths under _main in BANK0

    _main->_logf

Critical Paths under _main in BANK1

    None.

Critical Paths under _main in BANK2

    None.

Critical Paths under _main in BANK3

    None.

Critical Paths under _main in BANK4

    None.

Critical Paths under _main in BANK5

    None.

Critical Paths under _main in BANK6

    None.

Critical Paths under _main in BANK7

    None.

Critical Paths under _main in BANK8

    None.

Critical Paths under _main in BANK9

    None.

Critical Paths under _main in BANK10

    None.

Critical Paths under _main in BANK11

    None.

Critical Paths under _main in BANK12

    None.

Call Graph Tables:

 ---------------------------------------------------------------------------------
 (Depth) Function   	        Calls       Base Space   Used Autos Params    Refs
 ---------------------------------------------------------------------------------
 (0) _main                                                84    84      0   35022
                                             92 COMRAM     2     2      0
                                             64 BANK0     82    82      0
                           _ADC_Init
                           _ADC_Read
                          _LCD_Clear
                           _LCD_Init
                    _LCD_PrintString
                      _LCD_SetCursor
                            ___aldiv
                            ___fladd
                            ___fldiv
                             ___flge
                            ___flmul
                            ___flsub
                           ___xxtofl
                               _ftoa
                               _logf
 ---------------------------------------------------------------------------------
 (1) _logf                                                68    64      4    8027
                                             88 COMRAM     4     0      4
                                              0 BANK0     64    64      0
                            ___fladd
                            ___fldiv
                            ___flmul
                            ___flsub
                           ___xxtofl
 ---------------------------------------------------------------------------------
 (2) ___fldiv                                             25    17      8    1129
                                             63 COMRAM    25    17      8
                            ___fladd (ARG)
                            ___flmul (ARG)
                            ___flsub (ARG)
                           ___xxtofl (ARG)
 ---------------------------------------------------------------------------------
 (1) _ftoa                                                29    22      7   16550
                                             78 COMRAM     8     1      7
                                              0 BANK0     21    21      0
                            ___flmul
                            ___flsub
                            ___fltol
                           ___xxtofl
                              _fabsf
                            _sprintf
                             _strlen
 ---------------------------------------------------------------------------------
 (2) _sprintf                                             19    14      5   11574
                                             61 COMRAM    17    12      5
                           _vfprintf
 ---------------------------------------------------------------------------------
 (3) _vfprintf                                             6     2      4   11154
                                             55 COMRAM     6     2      4
                          _vfpfcnvrt
 ---------------------------------------------------------------------------------
 (4) _vfpfcnvrt                                           15    11      4   10864
                                             40 COMRAM    15    11      4
                               _ctoa
                               _dtoa
                              _fputc
                               _otoa
                 _read_prec_or_width
                               _utoa
                               _xtoa
 ---------------------------------------------------------------------------------
 (5) _xtoa                                                18    14      4    1871
                                             22 COMRAM    18    14      4
                                _pad
 ---------------------------------------------------------------------------------
 (5) _utoa                                                 9     6      3    1819
                                             22 COMRAM     9     6      3
                            ___lwdiv
                            ___lwmod
                                _pad
 ---------------------------------------------------------------------------------
 (6) ___lwmod                                              5     1      4     161
                                              0 COMRAM     5     1      4
 ---------------------------------------------------------------------------------
 (6) ___lwdiv                                              7     3      4     164
                                              0 COMRAM     7     3      4
 ---------------------------------------------------------------------------------
 (5) _read_prec_or_width                                   7     5      2     184
                                              0 COMRAM     7     5      2
 ---------------------------------------------------------------------------------
 (5) _otoa                                                12     9      3    1599
                                             22 COMRAM    12     9      3
                                _pad
 ---------------------------------------------------------------------------------
 (5) _dtoa                                                12     9      3    2402
                                             22 COMRAM    12     9      3
                            ___awdiv
                            ___awmod
                                _abs
                                _pad
 ---------------------------------------------------------------------------------
 (6) _pad                                                  8     3      5    1123
                                             14 COMRAM     8     3      5
                              _fputc
                              _fputs
                             _strlen
 ---------------------------------------------------------------------------------
 (7) _strlen                                               4     2      2     136
                                              0 COMRAM     4     2      2
 ---------------------------------------------------------------------------------
 (7) _fputs                                                6     3      3     392
                                              8 COMRAM     6     3      3
                              _fputc
 ---------------------------------------------------------------------------------
 (6) _abs                                                  4     2      2      67
                                              6 COMRAM     4     2      2
                            ___awmod (ARG)
 ---------------------------------------------------------------------------------
 (6) ___awmod                                              6     2      4     298
                                              0 COMRAM     6     2      4
 ---------------------------------------------------------------------------------
 (6) ___awdiv                                              8     4      4     302
                                              0 COMRAM     8     4      4
 ---------------------------------------------------------------------------------
 (5) _ctoa                                                 7     5      2     445
                                              8 COMRAM     7     5      2
                              _fputc
 ---------------------------------------------------------------------------------
 (8) _fputc                                                8     5      3     240
                                              0 COMRAM     8     5      3
                              _putch
 ---------------------------------------------------------------------------------
 (9) _putch                                                1     1      0       0
 ---------------------------------------------------------------------------------
 (2) _fabsf                                                8     4      4      48
                                              0 COMRAM     8     4      4
 ---------------------------------------------------------------------------------
 (2) ___xxtofl                                            14    10      4     346
                                              0 COMRAM    14    10      4
 ---------------------------------------------------------------------------------
 (2) ___fltol                                             10     6      4     231
                                              8 COMRAM    10     6      4
                              _fabsf (ARG)
 ---------------------------------------------------------------------------------
 (2) ___flsub                                              8     0      8    2063
                                             55 COMRAM     8     0      8
                            ___fladd
                            ___flmul (ARG)
                           ___xxtofl (ARG)
 ---------------------------------------------------------------------------------
 (3) ___fladd                                             16     8      8    2008
                                             39 COMRAM    16     8      8
                            ___flmul (ARG)
 ---------------------------------------------------------------------------------
 (2) ___flmul                                             25    17      8    1508
                                             14 COMRAM    25    17      8
                           ___xxtofl (ARG)
 ---------------------------------------------------------------------------------
 (1) ___flge                                              12     4      8     188
                                             63 COMRAM    12     4      8
                            ___flmul (ARG)
                            ___flsub (ARG)
                           ___xxtofl (ARG)
 ---------------------------------------------------------------------------------
 (1) ___aldiv                                             14     6      8     304
                                              0 COMRAM    14     6      8
 ---------------------------------------------------------------------------------
 (1) _LCD_SetCursor                                        3     2      1     445
                                              8 COMRAM     3     2      1
                    _LCD_SendCommand
 ---------------------------------------------------------------------------------
 (1) _LCD_PrintString                                      2     0      2     391
                                              8 COMRAM     2     0      2
                       _LCD_SendData
 ---------------------------------------------------------------------------------
 (2) _LCD_SendData                                         1     1      0     336
                                              7 COMRAM     1     1      0
                   _LCD_Write_Nibble
 ---------------------------------------------------------------------------------
 (1) _LCD_Init                                             1     1      0     614
                                              8 COMRAM     1     1      0
                           _I2C_Init
                    _LCD_SendCommand
                   _LCD_Write_Nibble
 ---------------------------------------------------------------------------------
 (2) _I2C_Init                                             0     0      0       0
 ---------------------------------------------------------------------------------
 (1) _LCD_Clear                                            1     1      0     336
                                              8 COMRAM     1     1      0
                    _LCD_SendCommand
 ---------------------------------------------------------------------------------
 (2) _LCD_SendCommand                                      1     1      0     336
                                              7 COMRAM     1     1      0
                   _LCD_Write_Nibble
 ---------------------------------------------------------------------------------
 (3) _LCD_Write_Nibble                                     3     2      1     278
                                              4 COMRAM     3     2      1
                       _LCD_Pulse_EN
                      _LCD_Write_I2C
 ---------------------------------------------------------------------------------
 (4) _LCD_Pulse_EN                                         1     1      0     116
                                              3 COMRAM     1     1      0
                      _LCD_Write_I2C
 ---------------------------------------------------------------------------------
 (5) _LCD_Write_I2C                                        1     1      0      58
                                              2 COMRAM     1     1      0
                          _I2C_Start
                           _I2C_Stop
                          _I2C_Write
 ---------------------------------------------------------------------------------
 (6) _I2C_Write                                            1     1      0      29
                                              1 COMRAM     1     1      0
                           _I2C_Wait
 ---------------------------------------------------------------------------------
 (6) _I2C_Stop                                             0     0      0       0
                           _I2C_Wait
 ---------------------------------------------------------------------------------
 (6) _I2C_Start                                            0     0      0       0
                           _I2C_Wait
 ---------------------------------------------------------------------------------
 (7) _I2C_Wait                                             1     1      0       0
                                              0 COMRAM     1     1      0
 ---------------------------------------------------------------------------------
 (1) _ADC_Read                                             5     3      2      29
                                              0 COMRAM     5     3      2
 ---------------------------------------------------------------------------------
 (1) _ADC_Init                                             0     0      0       0
 ---------------------------------------------------------------------------------
 Estimated maximum stack depth 9
 ---------------------------------------------------------------------------------

 Call Graph Graphs:

 _main (ROOT)
   _ADC_Init
   _ADC_Read
   _LCD_Clear
     _LCD_SendCommand
       _LCD_Write_Nibble
         _LCD_Pulse_EN
           _LCD_Write_I2C
             _I2C_Start
               _I2C_Wait
             _I2C_Stop
               _I2C_Wait
             _I2C_Write
               _I2C_Wait
         _LCD_Write_I2C
   _LCD_Init
     _I2C_Init
     _LCD_SendCommand
     _LCD_Write_Nibble
   _LCD_PrintString
     _LCD_SendData
       _LCD_Write_Nibble
   _LCD_SetCursor
     _LCD_SendCommand
   ___aldiv
   ___fladd
     ___flmul (ARG)
       ___xxtofl (ARG)
   ___fldiv
     ___fladd (ARG)
     ___flmul (ARG)
     ___flsub (ARG)
       ___fladd
       ___flmul (ARG)
       ___xxtofl (ARG)
     ___xxtofl (ARG)
   ___flge
     ___flmul (ARG)
     ___flsub (ARG)
     ___xxtofl (ARG)
   ___flmul
   ___flsub
   ___xxtofl
   _ftoa
     ___flmul
     ___flsub
     ___fltol
       _fabsf (ARG)
     ___xxtofl
     _fabsf
     _sprintf
       _vfprintf
         _vfpfcnvrt
           _ctoa
             _fputc
               _putch
           _dtoa
             ___awdiv
             ___awmod
             _abs
               ___awmod (ARG)
             _pad
               _fputc
               _fputs
                 _fputc
               _strlen
           _fputc
           _otoa
             _pad
           _read_prec_or_width
           _utoa
             ___lwdiv
             ___lwmod
             _pad
           _xtoa
             _pad
     _strlen
   _logf
     ___fladd
     ___fldiv
     ___flmul
     ___flsub
     ___xxtofl

Address spaces:
Name               Size   Autos  Total    Usage
BIGRAM            3327      0       0      0.0%
BITBIGSFRll        660      0       0      0.0%
BITBANK12          256      0       0      0.0%
BANK12             256      0       0      0.0%
BITBANK11          256      0       0      0.0%
BANK11             256      0       0      0.0%
BITBANK10          256      0       0      0.0%
BANK10             256      0       0      0.0%
BITBANK9           256      0       0      0.0%
BANK9              256      0       0      0.0%
BITBANK8           256      0       0      0.0%
BANK8              256      0       0      0.0%
BITBANK7           256      0       0      0.0%
BANK7              256      0       0      0.0%
BITBANK6           256      0       0      0.0%
BANK6              256      0       0      0.0%
BITBANK5           256      0       0      0.0%
BANK5              256      0       0      0.0%
BITBANK4           256      0       0      0.0%
BANK4              256      0       0      0.0%
BITBANK3           256      0       0      0.0%
BANK3              256      0       0      0.0%
BITBANK2           256      0       0      0.0%
BANK2              256      0       0      0.0%
BITBANK1           256      0       0      0.0%
BANK1              256      0      36     14.1%
BITBANK0           160      0       0      0.0%
BANK0              160    146     159     99.4%
BITCOMRAM           95      0       0      0.0%
COMRAM              95     94      95    100.0%
BITBIGSFRh          61      0       0      0.0%
BITBIGSFRlh         45      0       0      0.0%
STACK                0      0       0      0.0%
DATA                 0      0     290      0.0%


Microchip Technology PIC18 Macro Assembler V3.10 build 20250813170317 
Symbol Table                                                                                   Mon Nov 10 15:24:29 2025

              ___fldiv@aexp 0058                ___fldiv@bexp 0057                ___fldiv@sign 0050  
               _SSPSTATbits 0FC7                          l31 39C6                          l62 467A  
                        l65 469E                          l59 496A                          l92 495E  
                        l86 4870                          l95 493C                          l89 4894  
                        l98 494A                ___awdiv@sign 0006               _LCD_SetCursor 4846  
         main@leituraRefAvg 00EA                         l101 4926                         l111 4844  
                       l104 4934                         l107 481E                         l109 482C  
                       l152 491E                         l145 4812                         l161 4474  
                       l155 48D0                         l164 4906                         l149 48EE  
                       l158 48B2                         l175 4616                         l169 486E  
                       l257 3D6C                         l532 428E                         l519 41E0  
                       l553 3F30                         l558 3F76                         l910 2DE4  
                       l902 2BD0                         l830 29E6                         l911 2E3C  
                       l912 2E2A                         l816 283E                         l833 2958  
                       l825 2B0A                         l817 282C                         l585 3E72  
                       l906 2F30                         l842 2A26                         l818 27F2  
                       l843 2A14                         l909 2DC6                         l950 378A  
                       l870 32BE                         l919 2EF2                         l943 36F2  
                       l872 3124                         l849 2ACE                         l881 316A  
                       l858 465C                         l946 384E                         l786 44E6  
                       l882 3188                         l779 44DE                         l883 31E0  
                       l875 30E8                         l964 47AE                         l796 45B4  
                       l884 31CE                         l957 37E6                         l789 45AC  
                       l986 20D6                         l987 2654           main@leituraRefSum 00E4  
                       _Lg1 100D                         _Lg2 1009                         _Lg3 1005  
                       _Lg4 1001                         _abs 4748                         _pad 433A  
              ___awmod@sign 0006                         wreg 0FE8                ___flmul@aexp 0020  
              ___flmul@bexp 0021                ___flmul@sign 001B                ___flmul@temp 0026  
              ___flmul@prod 0022          main@resistenciaNTC 00C0               ?_LCD_SendData 0001  
              ___fltol@exp1 0012                        l1001 4746                        l1030 43DC  
                      l1111 32F2                        l1104 3C62                        l1112 3338  
                      l1041 40BE                        l1025 436C                        l1051 3504  
                      l1131 4054                        ?_abs 0007                        l1044 40F8  
                      l1028 43A6                        l1213 4762                        l1053 350C  
                      l1125 3442                        l1109 32EA                        l1046 4120  
                      l1054 3560                        l1071 369A                        l1135 405C  
                      l1127 34C4                        l1216 477A                        l3001 44C8  
                      l1209 4550                        l1154 197A                        l3003 44D0  
                      l3011 4564                        l1228 4338                        l1236 46DC  
                      l1076 39F2                        l1245 4712                        l3005 44D2  
                      l3021 45A0                        l3013 456C                        l1149 1186  
                      l1078 39FA                        l1094 3B6A                        l1239 496C  
                      l3007 44D8                        l3023 45A6                        l3015 4574  
                      l1088 3AF0                        l1096 3B72                        l1168 131E  
                      l4001 2E94                        l1089 3B3E                        l3017 4582  
                      l3009 4552                        l3051 47FE                        l4011 2EF6  
                      l4003 2EAE                        l3019 4598                        l4021 2F20  
                      l4013 2F06                        l4005 2EC2                        l4101 37C8  
                      l3045 4748                        l3055 4806                        l4015 2F14  
                      l4007 2EDC                        l4031 3D6E                        l4111 381E  
                      l4103 37D6                        l3071 4098                        l3063 405E  
                      l3047 4756                        l3311 3FCA                        l4201 4678  
                      l3049 47E4                        l3321 48DC                        l4017 2F16  
                      l4009 2EEC                        l4025 4618                        l4041 3DC4  
                      l4033 3D84                        l4113 382E                        l4105 37F4  
                      l3081 40D6                        l3073 40A6                        l3065 4072  
                      l3313 3FE6                        l3305 3F78                        l5001 1EBA  
                      l4203 4688                        l3323 48E6                        l4019 2F1C  
                      l4027 4628                        l4043 3DD4                        l4115 383C  
                      l4107 37F6                        l3083 40DA                        l3067 407E  
                      l3315 4004                        l3307 3F7E                        l4211 2066  
                      l5011 1F30                        l5003 1EEE                        l4301 3CD0  
                      l4053 3DFE                        l4045 3DD8                        l4037 3D98  
                      l4117 383E                        l4109 37FA                        l3085 4106  
                      l3077 40B8                        l3069 408A                        l3309 3FBE  
                      l3317 4010                        l4213 207C                        l5021 1FF6  
                      l5013 1F40                        l5005 1F0C                        l4143 4960  
                      l3319 48D4                        l4151 43F2                        l4311 3D1A  
                      l4303 3CD8                        l4071 3E62                        l4063 3E26  
                      l4055 3E08                        l4047 3DE6                        l4039 3DC2  
                      l3087 4114                        l3079 40C8                        l4231 2106  
                      l4223 20E4                        l4215 208A                        l4207 203E  
                      l5023 2006                        l5015 1F60                        l5007 1F16  
                      l4145 4968                        l3521 4912                        l4161 442C  
                      l4153 43FC                        l4321 3D4C                        l4313 3D2A  
                      l4305 3CE4                        l3601 278E                        l4065 3E32  
                      l4057 3E12                        l4081 3702                        l4241 2184  
                      l4217 20B2                        l4233 213E                        l4209 205E  
                      l5025 2010                        l5017 1FCE                        l5009 1F26  
                      l3523 4918                        l4171 4452                        l4163 4434  
                      l4155 440A                        l4147 43DE                        l4323 3D5C  
                      l4315 3D2C                        l4307 3CF2                        l4331 3EB2  
                      l3611 2800                        l3603 2792                        l3531 2672  
                      l4067 3E42                        l4091 3740                        l4083 3718  
                      l4075 369E                        l4251 22A0                        l4235 2154  
                      l4219 20C2                        l5027 2020                        l5019 1FEC  
                      l4173 4458                        l4165 443E                        l4157 4414  
                      l4149 43E2                        l4181 45BA                        l4317 3D36  
                      l4309 3CFC                        l4341 3F1E                        l4333 3EE0  
                      l3701 2AAC                        l3621 282A                        l3613 280C  
                      l3605 27BE                        l3533 2682                        l3541 26AA  
                      l3525 2656                        l4069 3E52                        l4093 3772  
                      l4077 36AE                        l4501 3524                        l4261 23EC  
                      l4253 22D4                        l4245 2198                        l4229 20FE  
                      l2903 4842                        l3519 490A                        l4175 4468  
                      l4167 4446                        l4159 4422                        l4183 45E0  
                      l4191 4862                        l4319 3D3C                        l4343 3F6E  
                      l4335 3EF0                        l4327 3E74                        l3711 2AEA  
                      l3703 2ACC                        l3631 2880                        l3623 284C  
                      l3615 2810                        l3607 27DA                        l3551 26DA  
                      l3543 26BA                        l3535 2692                        l3527 2662  
                      l4095 3774                        l4087 372C                        l4079 36BC  
                      l2911 4132                        l4511 3558                        l4503 3532  
                      l4271 24E4                        l4263 2420                        l4255 2308  
                      l4247 2214                        l4239 2168                        l4177 446E  
                      l4169 444C                        l4185 45E4                        l4193 4868  
                      l4345 3F74                        l4337 3EFE                        l4329 3EA2  
                      l3713 2AF8                        l3705 2ADC                        l3641 28BA  
                      l3633 288E                        l3625 285C                        l3617 281E  
                      l3609 27EA                        l3561 271A                        l3553 26E8  
                      l3545 26C0                        l3537 26A2                        l3529 2670  
                      l4097 3780                        l4089 3734                        l2921 4158  
                      l2913 413A                        l4521 3586                        l4513 356E  
                      l4505 3538                        l4601 3B40                        l3801 3010  
                      l4273 253C                        l4265 2454                        l4257 2360  
                      l4249 2248                        l4195 48F0                        l4179 45B6  
                      l4187 4848                        l4291 3C88                        l4283 3C64  
                      l4339 3F10                        l3715 2AFA                        l3707 2AE2  
                      l3651 2926                        l3643 28BC                        l3635 289C  
                      l3619 2820                        l3571 2752                        l3563 271C  
                      l3555 26EA                        l3547 26D2                        l3539 26A4  
                      l4099 37BC                        l2851 4290                        l2931 418E  
                      l2923 415E                        l2915 413E                        l2907 4122  
                      l4523 358C                        l4531 35E2                        l4515 3574  
                      l4507 3548                        l4611 3B80                        l4603 3B50  
                      l3803 3020                        l3811 3040                        l4275 2594  
                      l4267 2488                        l4259 2394                        l4197 48F6  
                      l4189 4858                        l4293 3C96                        l4285 3C66  
                      l3901 2B26                        l3709 2AE4                        l3661 297E  
                      l3653 2928                        l3645 28C6                        l3637 28A8  
                      l3629 2870                        l3581 2766                        l3573 2756  
                      l3557 26FA                        l3565 2722                        l3549 26D4  
                      l2861 4308                        l2853 42A0                        l2941 41BA  
                      l2933 4194                        l2925 4170                        l2917 414C  
                      l2909 4124                        l4453 46DE                        l4533 35FC  
                      l4541 3650                        l4525 35BC                        l4517 3578  
                      l4509 3552                        l4621 3BBE                        l4613 3B88  
                      l4605 3B52                        l4701 34A0                        l3821 307E  
                      l3813 3050                        l3805 3028                        l4277 25C8  
                      l4269 24BC                        ?_pad 000F                        l4199 4660  
                      l3751 494C                        l4295 3CA6                        l4287 3C74  
                      l3911 2B5E                        l3903 2B28                        l3671 29AC  
                      l3655 2938                        l3639 28AC                        l3647 28CC  
                      l3591 277A                        l3583 276A                        l3575 275A  
                      l3567 2732                        l3559 270A                        l3743 477C  
                      l2855 42B0                        l2935 41AA                        l2927 4178  
                      l2943 41C0                        l2919 4154                        l2951 41E2  
                      l4463 46A0                        l4455 46EA                        l4471 433A  
                      l4543 3660                        l4535 360E                        l4527 35C2  
                      l4519 357E                        l4551 39C8                        l4631 3C30  
                      l4615 3B8E                        l4623 3BD8                        l4607 3B60  
                      l4711 10DE                        l3831 30C4                        l3823 308E  
                      l3815 3050                        l3807 302C                        l4279 25FC  
                      l3753 4950                        l4297 3CAA                        l4289 3C84  
                      l3921 2B8A                        l3913 2B6E                        l3905 2B38  
                      l3673 29BA                        l3665 2992                        l3681 29D8  
                      l3649 28F2                        l3657 2948                        l3593 277E  
                      l3585 276E                        l3577 275E                        l3569 2744  
                      l3745 479C                        l2857 42BA                        l2945 41D0  
                      l2937 41B2                        l2929 4180                        l2961 420C  
                      l2953 41E4                        l4465 46AA                        l4457 46EE  
                      l4481 4384                        l4473 4348                        l4545 3666  
                      l4537 3628                        l4529 35C8                        l4561 3A08  
                      l4553 39D8                        l4625 3BEA                        l4633 3C3E  
                      l4617 3BB2                        l4609 3B7A                        l4641 32D0  
                      l4713 10E2                        l4705 1086                        l3841 3112  
                      l3833 30D8                        l3825 309E                        l3761 2F32  
                      l2875 4870                        l2891 4920                        l3755 4958  
                      l4299 3CBA                        l3931 2BE0                        l3923 2B9A  
                      l3915 2B74                        l3907 2B48                        l3691 2A42  
                      l3683 29F6                        l3675 29C2                        l3667 299C  
                      l3659 296E                        l3595 2782                        l3587 2772  
                      l3579 2762                        l3747 479E                        l2859 42D6  
                      l2947 41D8                        l2939 41B4                        l2971 4244  
                      l2963 4214                        l2955 41F2                        l4467 46B8  
                      l4459 4706                        l4483 4388                        l4475 4358  
                      l4547 3676                        l4539 3642                        l4491 34C6  
                      l4571 3A30                        l4563 3A0C                        l4555 39DA  
                      l4627 3BFC                        l4619 3BB8                        l4651 3320  
                      l4643 32D2                        l4811 14DE                        l4803 147A  
                      l4731 110C                        l4723 1100                        l4715 10E8  
                      l4707 10C6                        l3851 315A                        l3843 3122  
                      l3835 30E6                        l3827 30AE                        l3819 3064  
                      l3771 2F6E                        l3763 2F3E                        l2877 487E  
                      l2893 4924                        l3757 48B6                        l3941 2C1A  
                      l3933 2BF0                        l3925 2BAA                        l3917 2B7A  
                      l3909 2B58                        l3693 2A50                        l3685 2A0C  
                      l3677 29C6                        l3669 29AA                        l3597 2786  
                      l3589 2776                        l2981 427E                        l2973 425A  
                      l2965 4226                        l2957 41FA                        l4469 46BC  
                      l4485 43B4                        l4477 4366                        l4493 34EA  
                      l4581 3A8A                        l4573 3A36                        l4565 3A12  
                      l4557 39E8                        l4629 3C16                        l4661 3364  
                      l4653 3330                        l4645 32E0                        l4637 32C0  
                      l4821 15C8                        l4813 1510                        l4805 14A8  
                      l4717 10EA                        l4741 1176                        l4709 10D2  
                      l4901 44F0                        l3853 3168                        l3845 3134  
                      l3837 30F2                        l3829 30B4                        l3781 2F9C  
                      l3773 2F7E                        l3765 2F4C                        l2887 4936  
                      l2895 4816                        l3759 4898                        l3951 2C6C  
                      l3943 2C30                        l3927 2BBA                        l3919 2B88  
                      l3695 2A8A                        l3679 29D6                        l3599 278A  
                      l2983 4286                        l2975 4262                        l2967 422E  
                      l2959 41FE                        l4487 43C4                        l4479 4376  
                      l4495 34EC                        l4591 3AFE                        l4583 3AA4  
                      l4575 3A3C                        l4567 3A18                        l4559 3A02  
                      l2991 448E                        l4671 3390                        l4663 336C  
                      l4655 334A                        l4647 32FA                        l4639 32C0  
                      l4823 15E6                        l4815 1542                        l4831 1642  
                      l4807 14C2                        l4751 11C4                        l4743 1194  
                      l4735 1112                        l4727 1106                        l4719 10FA  
                      l4903 44FC                        l4911 4714                        l3863 31F0  
                      l3871 3238                        l3847 314A                        l3855 317A  
                      l3839 3110                        l3791 2FD2                        l3783 2FA2  
                      l3775 2F80                        l3767 2F4E           ?_LCD_Write_Nibble 0005  
                      l2889 493A                        l2897 481A                        l3961 2CB2  
                      l3953 2C7A                        l3945 2C3C                        l3937 2C04  
                      l3929 2BC0                        l3689 2A36                        l3697 2A8C  
                      l2977 4268                        l2969 4236                        l4497 34FA  
                      l4593 3B04                        l4585 3ABE                        l4569 3A1E  
                      l4577 3A5E                        l2993 4496                        l4673 3396  
                      l4665 3372                        l4681 33D2                        l4657 3354  
                      l4649 3312                        l4825 1606                        l4833 1670  
                      l4817 1574                        l4761 1270                        l4753 1204  
                      l4745 1196                        l4905 4518                        l4913 471C  
                      l3881 329A                        l3873 3252                        l3865 31FC  
                      l3857 3198                        l3849 3150                        l3793 2FE2  
                      l3785 2FB0                        l3769 2F5E                        l3777 2F86  
                      l2899 483C                        l3971 2D20                        l3963 2CCC  
                      l3955 2C86                        l3947 2C54                        l3939 2C10  
                      l3699 2A9C                        l2979 426E                        l4499 3514  
                      l4595 3B14                        l4579 3A78                        l4587 3ACC  
                      l2995 449E                        l2987 4476                        l4691 3450  
                      l4683 33EE                        l4675 33A6                        l4667 3378  
                      l4659 335A                        l4843 16C6                        l4835 168E  
                      l4827 1624                        l4819 15AA                        l4851 174C  
                      l4771 12D4                        l4763 1286                        l4755 1210  
                      l4747 11AA                        l4739 111A                        l4907 454A  
                      l4915 4722                        l4931 38FA                        l4923 3850  
                      l3883 329E                        l3875 3268                        l3867 320A  
                      l3859 31C6                        l3795 2FE4                        l3787 2FB2  
                      l3779 2F96                        l3981 2DB6                        l3973 2D4A  
                      l3965 2CDC                        l3957 2C96                        l3949 2C60  
                      l4597 3B1A                        l4589 3ADC                        l2997 44AC  
                      l2989 447C                        l4693 3460                        l4685 3400  
                      l4677 33AC                        l4669 3388                        l4861 1808  
                      l4781 1316                        l4773 12D8                        l4757 1224  
                      l4749 11BA                        l4917 4728                        l4941 399E  
                      l4933 392E                        l4925 38B8                        l3885 32AC  
                      l3877 3282                        l3869 3234                        l3789 2FC2  
                      l3797 2FEA                        l3983 2DC4                        l3975 2D80  
                      l3967 2CF8                        l3959 2CA2                        l2999 44B2  
                      l4695 3474                        l4687 341A                        l4679 33B2  
                      l4871 18AC                        l4863 1836                        l4855 1782  
                      l4839 16AA                        l4791 13E2                        l4775 130A  
                      l4759 1264                        l4767 129E                        l4919 473C  
                      l4943 39B0                        l4935 3934                        l4927 38D4  
                      l3887 32B2                        l3879 3298                        l3799 2FFA  
                      l4951 1988                        l3993 2E4C                        l3985 2DD6  
                      l3977 2D8E                        l3969 2D04                        l3897 2B0C  
                      l4697 347A                        l4689 3434                        l4881 1910  
                      l4857 17B0                        l4849 1706                        l4793 1400  
                      l4777 130E                        l4785 1324                        l4769 12AC  
                      l4937 3952                        l4929 38EE                        l3889 32B4  
                      l4961 19CC                        l4953 1998                        l4945 197C  
                      l3995 2E58                        l3987 2DF4                        l3979 2DAC  
                      l3899 2B18                        l4699 348A                        l4859 17DE  
                      l4867 1864                        l4875 18B6                        l4795 141E  
                      l4787 137A                        l4891 192A                        l4939 3982  
                      l4971 19F4                        l4963 19DE                        l4955 19A2  
                      l4947 1980                        l3997 2E66                        l3989 2E22  
                      l4893 196A                        l4877 18F6                        l4885 191A  
                      l4869 1892                        l4797 143E                        l4789 13AC  
                      l4981 1AAE                        l4973 1A24                        l4965 19EE  
                      l4957 19B2                        l4949 1984                        l3999 2E90  
                      l4879 1902                        l4799 145C                        l4983 1ACA  
                      l4991 1C24                        l4975 1A34                        l4959 19C8  
                      l4993 1C2E                        l4985 1B14                        l4977 1A3A  
                      l4899 44E8                        l4995 1C3E                        l4987 1B30  
                      l4979 1A56                        l4997 1C58                        l4989 1B7A  
                      l4999 1C72                        STR_1 1081                        STR_2 106E  
                      STR_3 1019                        STR_4 104E                        STR_5 103D  
                      STR_6 102B                        STR_7 1067                        STR_8 1075  
                      STR_9 105F                        u3000 40F8                        u3001 40F4  
                      u3010 4106                        u3011 4102                        u4000 283E  
                      u4001 283A                        u4010 284C                        u4011 2848  
                      u4100 29AA                        u4020 285C                        u4101 29A6  
                      u4021 2858                        u4110 29BA                        u4030 288E  
                      u4111 29B6                        u4031 288A                        u5000 3C74  
                      u4200 2A9C                        u4120 29D6                        u4040 289C  
                      u5001 3C70                        u4201 2A98                        u4121 29D2  
                      u4041 2898                        u5010 3C96                        u4210 2AAC  
                      u4130 29E6                        u4050 28BA                        u2610 42A0  
                      u5011 3C92                        u4211 2AA8                        u4131 29E2  
                      u4051 28B6                        u2611 429C                        u2700 4934  
                      u5020 3CD0                        u5100 3F6E                        u4220 2ACC  
                      u4140 29F6                        u4060 28F2                        u2620 42B0  
                      u3500 3FAE                        u4300 2FB0                        u2701 4930  
                      u5021 3CCC                        u5101 3F6A                        u4221 2AC8  
                      u4141 29F2                        u4061 28EE                        u2621 42AC  
                      u4301 2FAC                        u2710 482C                        u5030 3CF2  
                      u4230 2ADC                        u4150 2A0C                        u4070 2938  
                      u2630 42D6                        u3510 3FBE                        u4310 2FC2  
                      u2711 4828                        u5031 3CEE                        u4231 2AD8  
                      u4151 2A08                        u4071 2934                        u2631 42D2  
                      u3511 3FBA                        u4311 2FBE                        u2720 483C  
                      u5040 3D1A                        u4240 2AF8                        u4160 2A22  
                      u4080 296E                        u2640 4308                        u2800 420C  
                      u3520 4040                        u6000 16F4                        u4400 3168  
                      u4320 2FD2                        u2721 4838                        u5041 3D16  
                      u4241 2AF4                        u4161 2A1E                        u4081 296A  
                      u2641 4304                        u2801 4208                        u4401 3164  
                      u4321 2FCE                        u5050 3D4C                        u4170 2A36  
                      u4090 297E                        u2730 4132                        u2810 4226  
                      u5210 4706                        u3530 4054                        u6010 1728  
                      u4410 3188                        u4330 3010                        u5051 3D48  
                      u4171 2A32                        u4091 297A                        u2731 412E  
                      u2811 4222                        u5211 4702                        u3531 4050  
                      u3507 3FA4                        u4411 3184                        u4331 300C  
                      u2660 487E                        u5060 3EA2                        u4500 2B26  
                      u4180 2A50                        u2740 414C                        u2820 4244  
                      u5220 46DC                        u5300 34FA                        u2900 4598  
                      u6020 176E                        u6100 3952                        u4420 3198  
                      u4340 3050                        u2661 487A                        u5061 3E9E  
                      u4501 2B22                        u4181 2A4C                        u2741 4148  
                      u2821 4240                        u5221 46D8                        u5301 34F6  
                      u2901 4594                        u6101 394E                        u4421 3194  
                      u4341 304C                        u2670 4894                        u5070 3EE0  
                      u4510 2B38                        u4190 2A8A                        u2750 4170  
                      u2830 425A                        u5230 4348                        u5310 3524  
                      u6030 177E                        u4430 31C6                        u4350 30C4  
                      u4270 2F4C                        u6110 1A56                        u2671 4890  
                      u5071 3EDC                        u4511 2B34                        u4191 2A86  
                      u2751 416C                        u2831 4256                        u5231 4344  
                      u5311 3520                        u3527 4036                        u6031 177A  
                      u6007 16EA                        u4431 31C2                        u4351 30C0  
                      u4271 2F48                        u6111 1A52                        u5080 3EFE  
                      u4600 2DE4                        u4520 2B48                        u2760 418E  
                      u2840 427E                        u5240 4366                        u5400 3660  
                      u5320 3532                        u6040 18E6                        u4440 31DC  
                      u4360 30E6                        u4280 2F5E                        u6120 1ACA  
                      u5081 3EFA                        u4601 2DE0                        u4521 2B44  
                      u2761 418A                        u2841 427A                        u5241 4362  
                      u5401 365C                        u5321 352E                        u6017 171E  
                      u4441 31D8                        u4361 30E2                        u4281 2F5A  
                      u6121 1AC6                        u2690 494A                        u5090 3F1E  
                      u4610 2DF4                        u4530 2B88                        u2770 41AA  
                      u5250 43A6                        u5330 3548                        u5410 39D8  
                      u2850 448E                        u6050 18F6                        u4450 31F0  
                      u4370 3110                        u4290 2F6E                        u6130 1B14  
                      u2691 4946                        u5091 3F1A                        u4611 2DF0  
                      u4531 2B84                        u2771 41A6                        u5251 43A2  
                      u5331 3544                        u5411 39D4                        u2851 448A  
                      u6051 18F2                        u6027 1764                        u4451 31EC  
                      u4371 310C                        u4291 2F6A                        u6131 1B10  
                      u4620 2E22                        u4540 2B9A                        u3900 26E8  
                      u4700 3DB8                        u2780 41D0                        u5260 43B4  
                      u5340 356E                        u5500 3AFE                        u5420 39E8  
                      u2860 44AC                        u6060 195A                        u4460 320A  
                      u4380 3134                        u6140 1B30                        u4621 2E1E  
                      u4541 2B96                        u3901 26E4                        u2781 41CC  
                      u5261 43B0                        u5341 356A                        u5501 3AFA  
                      u5421 39E4                        u2861 44A8                        u4461 3206  
                      u4381 3130                        u6141 1B2C                        u4630 2E38  
                      u4550 2BAA                        u3910 26FA                        u4710 3DE6  
                      u2790 41F2                        u2950 4756                        u5350 35FC  
                      u5270 34D6                        u5430 3A78                        u2870 44C8  
                      u5510 3B50                        u6070 453A                        u4470 3252  
                      u4390 314A                        u6150 1B7A                        u4631 2E34  
                      u4551 2BA6                        u3911 26F6                        u4711 3DE2  
                      u2791 41EE                        u2951 4752                        u5351 35F8  
                      u5271 34D0                        u5431 3A74                        u2871 44C4  
                      u5511 3B4C                        u6047 18DC                        u4471 324E  
                      u4391 3146                        u6207 202A                        u6151 1B76  
                      u2960 47FE                        u4640 2E4C                        u4560 2BE0  
                      u3920 270A                        u4720 3DFA                        u4800 37B8  
                      u5360 360E                        u5280 34D8                        u5440 3A8A  
                      u2880 4564                        u5520 3B60                        u5600 330E  
                      u6080 454A                        u4480 3282                        u6160 1C24  
                      u2961 47FA                        u6217 43E8                        u4641 2E48  
                      u4561 2BDC                        u3921 2706                        u4721 3DF6  
                      u4705 3DAE                        u4801 37B4                        u5361 360A  
                      u5441 3A86                        u2881 4560                        u5521 3B5C  
                      u5601 3308                        u6081 4546                        u4481 327E  
                      u6161 1C20                        u4650 2E66                        u4570 2BF0  
                      u3930 2744                        u4730 3E22                        u4810 37D6  
                      u2970 4072                        u5370 3628                        u5290 34EA  
                      u5450 3AA4                        u2890 4582                        u5530 3BEA  
                      u5610 3310                        u6090 38EE                        u4490 32AC  
                      u6227 4402                        u4651 2E62                        u4571 2BEC  
                      u3931 2740                        u4731 3E1E                        u4811 37D2  
                      u2971 406E                        u5371 3624                        u5291 34E6  
                      u5451 3AA0                        u2891 457E                        u5531 3BE6  
                      u6067 1950                        u6091 38EA                        u4491 32A8  
                      u4900 4616                        u4660 2EAE                        u4580 2D6A  
                      u3940 2752                        u3860 2670                        u4740 3E42  
                      u4820 37E6                        u2980 4098                        u5380 3642  
                      u5460 3ABE                        u5540 3BFC                        u5700 3434  
                      u5620 3320                        u6237 441A                        u4901 4612  
                      u4661 2EAA                        u3941 274E                        u3861 266C  
                      u4741 3E3E                        u4821 37E2                        u2981 4094  
                      u5381 363E                        u5461 3ABA                        u5541 3BF8  
                      u5701 3430                        u5621 331C                        u6077 4530  
                      u4910 4858                        u4670 2EDC                        u4590 2DC4  
                      u3950 27BE                        u3870 2682                        u4750 3E52  
                      u4830 37F4                        u2990 40B4                        u5390 3650  
                      u5470 3ACC                        u5550 3C16                        u5710 3442  
                      u5630 3330                        u6247 442E                        u4911 4854  
                      u4671 2ED8                        u4591 2DC0                        u3951 27BA  
                      u3871 267E                        u4751 3E4E                        u4831 37F0  
                      u2991 40B0                        u5391 364C                        u5471 3AC8  
                      u5551 3C12                        u5711 343E                        u5631 332C  
                      u4920 4688                        u4680 2F14                        u3960 27D6  
                      u3880 2692                        u4840 382E                        u4760 36AE  
                      u5480 3ADC                        u5560 3C30                        u5720 3450  
                      u5640 334A                        u5800 11BA                        u4921 4684  
                      u6257 4440                        u4681 2F10                        u4585 2D60  
                      u3961 27D0                        u3881 268E                        u4841 382A  
                      u4761 36AA                        u5481 3AD8                        u5561 3C2C  
                      u5721 344C                        u5641 3346                        u5801 11B6  
                      u6177 19BC                        u3970 27D8                        u3890 26D2  
                      u4690 3D84                        u4850 383C                        u4770 36BC  
                      u5490 3AF0                        u5570 3C3E                        u5730 3460  
                      u5650 3388                        u5810 11F4                        u4930 207C  
                      u6267 445E                        u3891 26CE                        u4691 3D80  
                      u4851 3838                        u4771 36B8                        u5491 3AEC  
                      u5571 3C3A                        u5731 345C                        u5651 3384  
                      u4931 2078                        u6187 1A2A                        u3980 2800  
                      u4780 3718                        u5740 3474                        u5580 32D0  
                      u5900 13CE                        u5820 1204                        u4940 208A  
                      u6277 48FC                        u3981 27FC                        u4781 3714  
                      u5741 3470                        u5581 32CC                        u5821 1200  
                      u4941 2086                        u6197 1C62                        u3990 281E  
                      u4790 376E                        u5670 33EE                        u5590 32E0  
                      u5910 13DE                        u5830 1254                        u5750 10B6  
                      u4950 20B2                        u6287 48E8                        u3991 281A  
                      u4791 376A                        u5671 33EA                        u5591 32DC  
                      u5911 13DA                        u4951 20AE                        u4880 45DC  
                      u5680 3400                        u5920 1500                        u5840 1264  
                      u5760 10C6                        u4960 20E4                        u5681 33FC  
                      u5665 33BE                        u5841 1260                        u5817 11EA  
                      u5761 10C2                        u4961 20E0                        u4890 4606  
                      u5690 341A                        u5930 1510                        u5850 12CE  
                      u5770 114A                        u4970 2154                        u5691 3416  
                      u5931 150C                        u5907 13C4                        u4971 2150  
                      u5940 1532                        u5860 12FA                        u5780 1186  
                      u4980 2184                        u5837 124A                        u5781 1182  
                      u5757 10AC                        u4981 2180                        u5950 1542  
                      u5870 130A                        u5790 1194                        u4990 21CA  
                      u4887 45D2                        u5951 153E                        u5927 14F6  
                      u5871 1306                        u5791 1190                        u5960 1564  
                      u5880 139C                        u4897 45FC                        u5857 12C4  
                      u5777 1140                        u5970 1574                        u5890 13AC  
                      u5971 1570                        u5947 1528                        u5891 13A8  
                      u5867 12F0                        u4995 21C0                        u5980 1596  
                      u5990 15A6                        u5991 15A2                        u5967 155A  
                      u5887 1392                        u5987 158C          ??_LCD_Write_Nibble 0006  
                      abs@a 0007                        _dbuf 0104                        _ctoa 405E  
                      _main 197C                        _dtoa 34C6                        _ftoa 3850  
                      _logf 203E                        _prec 00FA               ?_LCD_Pulse_EN 0001  
          __end_of_I2C_Init 4960                        _otoa 39C8                        _nout 00F6  
                      pad@i 0015                        pad@p 0012                        fsr1h 0FE2  
                      fsr2h 0FDA                        indf1 0FE7                        indf2 0FDF  
                      fsr1l 0FE1                        fsr2l 0FD9                        _utoa 3B40  
          __end_of_I2C_Wait 4896                        _xtoa 32C0            __end_of_I2C_Stop 4936  
          __end_of_ADC_Init 496C            __end_of_ADC_Read 46A0                        prodh 0FF4  
                      prodl 0FF3                        start 7FFC             _LCD_SendCommand 48B4  
           ___fldiv@new_exp 0051               _LCD_Write_I2C 47E2             ftoa@integerPart 006F  
              ___param_bank 0000                       ??_abs 0009                       ??_pad 0014  
          __end_of_LCD_Init 4476              ?_LCD_SetCursor 0009               ___fltol@sign1 0011  
           __end_of___aldiv 3D6E                       ?_ctoa 0009             __end_of___fladd 2B0C  
                     ?_main 0001                       ?_dtoa 0017                       ?_ftoa 004F  
                     ?_logf 0059             __end_of___fldiv 32C0             __end_of___awdiv 41E2  
                     STR_10 107B             __end_of___awmod 4290             __end_of___flmul 2F32  
                     ?_otoa 0017             __end_of___flsub 465E             __end_of___fltol 3E74  
                     ?_utoa 0017             ___awdiv@divisor 0003                       ?_xtoa 0017  
           __end_of___lwdiv 44E8             __end_of___lwmod 45B6             ___awdiv@counter 0005  
              vfpfcnvrt@fmt 002A              ??_LCD_SendData 0008                       _fabsf 477C  
                     _flags 005F         read_prec_or_width@c 0005                       _errno 00FC  
       read_prec_or_width@n 0006                       _fputc 4290                       _fputs 46A0  
                     pad@fp 000F                       _width 00F8                       ctoa@c 000A  
                     _putch 496C                       ctoa@l 000C                       ctoa@w 000E  
                     main@i 00E8                       dtoa@d 0018                       dtoa@i 0021  
                     dtoa@p 001C                       dtoa@s 0020                       dtoa@w 001E  
                     ftoa@f 004F                       ftoa@i 006D           __end_of_I2C_Start 494C  
                     logf@R 0066                       logf@k 0082                       logf@s 008C  
                     logf@w 0094                       logf@x 0059                       logf@z 0090  
         __end_of_I2C_Write 4846                       tablat 0FF5                       otoa@d 0018  
                     otoa@i 0021                       otoa@p 001C                       otoa@t 001E  
                     otoa@w 001F              ??_LCD_Pulse_EN 0004                       utoa@d 0018  
                     utoa@i 001E                       utoa@p 001A                       utoa@w 001C  
                     status 0FD8             __end_of_sprintf 4748                       xtoa@a 001E  
                     xtoa@c 0026                       xtoa@d 0018                       xtoa@i 0027  
                     xtoa@p 0021                       xtoa@w 0024                       xtoa@x 001A  
            ?_LCD_Write_I2C 0001             __initialization 47B0                __end_of_ctoa 4122  
              __end_of_main 203E                __end_of_dtoa 369C                __end_of_ftoa 39C8  
              __end_of_logf 2656            _backlight_status 00FE                __end_of_otoa 3B40  
              __end_of_utoa 3C64                __end_of_xtoa 34C6                      ??_ctoa 000B  
                    ??_main 005D                      ??_dtoa 001A                      ??_ftoa 0056  
                    ??_logf 0060                      ??_otoa 001A                      ??_utoa 001A  
                    ??_xtoa 001B           __end_of_LCD_Clear 4908               __activetblptr 0003  
           _LCD_PrintString 45B6  __end_of_read_prec_or_width 405E                      ?_fabsf 0001  
                    _ADCON0 0FC2                      _ADCON1 0FC1                      _ADCON2 0FC0  
                    ?_fputc 0001                      ?_fputs 0009                      _ADRESH 0FC4  
                    _ADRESL 0FC3            ___awdiv@dividend 0001                      ?_putch 0001  
   __end_of_LCD_SendCommand 48D2                      _OSCCON 0FD3               vfpfcnvrt@done 0030  
                    _SSPADD 0FC8        LCD_SetCursor@address 000A                      _SSPBUF 0FC9  
          __end_of___xxtofl 3850          LCD_PrintString@str 0009                vfprintf@cfmt 003C  
                    ___flge 3E74                   ??___aldiv 0009                   ??___fladd 0030  
                    _ln2_hi 1015                   ??___fldiv 0048                   ??___awdiv 0005  
                    _ln2_lo 1011                   ??___awmod 0005             ??_LCD_SetCursor 000A  
                 ??___flmul 0017                   ??___flsub 0040                   ??___fltol 000D  
      main@leituraSensorAvg 00EC                   ??___lwdiv 0005                   ??___lwmod 0005  
      main@leituraSensorSum 00E0             ADC_Read@channel 0005                      fabsf@u 0005  
                    fabsf@x 0001        read_prec_or_width@ap 0002                      clear_0 47C8  
                    clear_1 47D4            ___awdiv@quotient 0007             ___awmod@divisor 0003  
                    isa$std 0001             ___awmod@counter 0005                      pad@buf 0010  
                    ctoa@fp 0009                      dtoa@fp 0017                      _strlen 46DE  
                    logf@t1 006A                      logf@t2 006E                      logf@dk 0088  
                    fputc@c 0001                      logf@ux 009C                      fputs@c 000C  
                    fputs@i 000D                      fputs@s 0009                   ?_I2C_Init 0001  
                 ?_I2C_Wait 0001                   ?_I2C_Stop 0001                   ?_ADC_Init 0001  
                 ?_ADC_Read 0001                __mediumconst 1000                      otoa@fp 0017  
                    tblptrh 0FF7                      tblptrl 0FF6                      tblptru 0FF8  
                    putch@c 0001            __end_of_vfprintf 4552                      utoa@fp 0017  
                 ??_sprintf 0043                      xtoa@fp 0017                  ___flge@ff1 0040  
                ___flge@ff2 0044                ___xxtofl@arg 000B                ___xxtofl@exp 000A  
              ___xxtofl@val 0001                  __accesstop 0060     __end_of__initialization 47DC  
                 ?_LCD_Init 0001             ??_LCD_Write_I2C 0003               ___rparam_used 0001  
                ___fltol@f1 0009              __pcstackCOMRAM 0001        __end_of_LCD_SendData 48B4  
              __pidataBANK0 496E               __end_of_fabsf 47B0               __end_of_fputc 433A  
   __end_of_LCD_PrintString 4618               __end_of_fputs 46DE               __end_of_putch 496E  
    LCD_Write_Nibble@nibble 0006        __end_of_LCD_Pulse_EN 48F0                  ??_I2C_Init 0001  
                ??_I2C_Wait 0001                  ??_I2C_Stop 0002                  ??_ADC_Init 0001  
                ??_ADC_Read 0003                     ??_fabsf 0005                     ??_fputc 0004  
                   ??_fputs 000C                     ??_putch 0001                  __pbssBANK0 00F2  
                __pbssBANK1 0100            ?_LCD_SendCommand 0001                  ??_LCD_Init 0009  
                   ?___flge 0040                     ?_strlen 0001                   ?___xxtofl 0001  
          LCD_SendData@data 0008                     _SSPCON1 0FC6                     _SSPCON2 0FC5  
                   _SSPSTAT 0FC7           LCD_Write_I2C@data 0003                   _I2C_Start 4936  
                 _I2C_Write 4814                     __Hparam 0000                     __Lparam 0000  
                   ___aldiv 3C64                     ___fladd 2656                     ___fldiv 2F32  
                   ___awdiv 4122                     ___awmod 41E2                     ___flmul 2B0C  
                   ___flsub 4618                     ___fltol 3D6E                     ___lwdiv 4476  
                   ___lwmod 4552                   ?_vfprintf 0038                __psmallconst 1000  
          ?_LCD_PrintString 0009                     __pcinit 47B0                     __ramtop 1000  
                   __ptext0 197C                     __ptext1 203E                     __ptext2 2F32  
                   __ptext3 3850                     __ptext4 4714                     __ptext5 44E8  
                   __ptext6 1086                     __ptext7 32C0                     __ptext8 3B40  
                   __ptext9 4552              main@tempBuffer 00A0       read_prec_or_width@fmt 0001  
                ??___xxtofl 0005              main@tempKelvin 00C4            ___awmod@dividend 0001  
          ___aldiv@dividend 0001                   _LCD_Clear 48F0              main@valorPonte 00CC  
                   _sprintf 4714        end_of_initialization 47DC            LCD_SetCursor@col 000B  
          LCD_SetCursor@row 0009                     fputc@fp 0003                     fputs@fp 000B  
        _read_prec_or_width 3F78                  ?_I2C_Start 0001                  ?_I2C_Write 0001  
         __end_of_vfpfcnvrt 197C            ___aldiv@quotient 000B                     postdec2 0FDD  
       ?_read_prec_or_width 0001                     postinc0 0FEE                     postinc1 0FE6  
                   postinc2 0FDE            vfpfcnvrt@convarg 0032                  ??_vfprintf 003C  
                   strlen@a 0003                     strlen@s 0001                 ___fladd@grs 0037  
             ___xxtofl@sign 0009                   _TRISCbits 0F94                  ?_LCD_Clear 0001  
      ??_read_prec_or_width 0003                 ___fldiv@grs 0053                 ___fldiv@rem 004C  
              _LCD_SendData 4896                 ___flmul@grs 001C                  main@logNTC 00EE  
              _LCD_Pulse_EN 48D2            _LCD_Write_Nibble 4908               ftoa@precision 0054  
            __end_of___flge 3F78                 vfpfcnvrt@ap 002B                 vfpfcnvrt@cp 0036  
               vfpfcnvrt@fp 0029              __end_of_ln2_hi 1019              __end_of_ln2_lo 1015  
     __end_of_LCD_SetCursor 4870                  ftoa@buffer 0053              __end_of_strlen 4714  
       start_initialization 47B0                  ftoa@format 0060                 __end_of_Lg1 1011  
               __end_of_Lg2 100D                 __end_of_Lg3 1009                 __end_of_Lg4 1005  
               __end_of_abs 477C                 __end_of_pad 43DE                 ??_I2C_Start 0002  
               ??_I2C_Write 0002       __end_of_LCD_Write_I2C 4814                 vfprintf@fmt 0039  
                  ??___flge 0048          LCD_SendCommand@cmd 0008                 __pdataBANK0 00FE  
                  ??_strlen 0003                   ___fladd@a 002C                   ___fladd@b 0028  
                 ___fldiv@a 0044                   ___fldiv@b 0040                   ___flmul@a 0013  
                 ___flmul@b 000F                 __pbssCOMRAM 005F                   ___flsub@a 003C  
                 ___flsub@b 0038               __pcstackBANK0 0060                 ??_LCD_Clear 0009  
                 _main$1575 00D4                   _main$1576 00D8                   _main$1577 00DC  
          ___lwdiv@dividend 0001                   _dtoa$1231 001A                    ?___aldiv 0001  
                  ?___fladd 0028                    ?___fldiv 0040                    ?___awdiv 0001  
                 _ftoa$1574 006C                    ?___awmod 0001                    ?___flmul 000F  
                  ?___flsub 0038                    ?___fltol 0009                    ?___lwdiv 0001  
                  ?___lwmod 0001                   _logf$1580 0076                   _logf$1581 007A  
                 _logf$1582 007E                   _logf$1578 0098                   _logf$1579 0072  
                 fabsf@F465 00F2                 __smallconst 1000                    _I2C_Init 494C  
                  _I2C_Wait 4870                    _I2C_Stop 4920                    _ADC_Init 4960  
                  _ADC_Read 465E            ___lwdiv@quotient 0005                    ?_sprintf 003E  
       ftoa@fractionalAsInt 006A             ___aldiv@divisor 0005             ___aldiv@counter 0009  
                  _LCD_Init 43DE                    _PIR1bits 0F9E                   _vfpfcnvrt 1086  
                 _xtoa$1256 001F                  _ADCON0bits 0FC2            main@tensaoBuffer 00B0  
                vfpfcnvrt@c 0031    __end_of_LCD_Write_Nibble 4920                    __Hrparam 0000  
                vfprintf@ap 003B                    __Lrparam 0000                  vfprintf@fp 0038  
             I2C_Write@data 0002                  ?_vfpfcnvrt 0029           ??_LCD_SendCommand 0008  
      LCD_Write_Nibble@data 0007                  sprintf@fmt 003F                    ___xxtofl 369C  
           ___lwdiv@divisor 0003             ___lwdiv@counter 0007                    __ptext10 4476  
                  __ptext11 3F78                    __ptext20 405E                    __ptext12 39C8  
                  __ptext21 4290                    __ptext13 34C6                    __ptext30 3C64  
                  __ptext22 496C                    __ptext14 433A                    __ptext31 4846  
                  __ptext23 477C                    __ptext15 46DE                    __ptext40 47E2  
                  __ptext32 45B6                    __ptext24 369C                    __ptext16 46A0  
                  __ptext41 4814                    __ptext33 4896                    __ptext25 3D6E  
                  __ptext17 4748                    __ptext42 4920                    __ptext34 43DE  
                  __ptext26 4618                    __ptext18 41E2                    __ptext43 4936  
                  __ptext35 494C                    __ptext27 2656                    __ptext19 4122  
                  __ptext44 4870                    __ptext36 48F0                    __ptext28 2B0C  
                  __ptext45 465E                    __ptext37 48B4                    __ptext29 3E74  
                  __ptext46 4960                    __ptext38 4908                    __ptext39 48D2  
           main@tempCelsius 00C8          ftoa@fractionalPart 0071                    isa$xinst 0000  
          LCD_Pulse_EN@data 0004                    _vfprintf 44E8             main@tensaoPonte 00D0  
                  logf@F472 0100                    logf@hfsq 0084               xtoa@d_nonzero 0023  
                 sprintf@ap 004E           ??_LCD_PrintString 000B            ___lwmod@dividend 0001  
               ??_vfpfcnvrt 002D          LCD_Write_Nibble@rs 0005                    sprintf@f 0043  
                  sprintf@s 003E             ___lwmod@divisor 0003             ___lwmod@counter 0005  
              ___aldiv@sign 000A                 _SSPCON2bits 0FC5               ___fladd@signs 0034  
              ___fladd@aexp 0035                ___fladd@bexp 0036  
